(dp0
S'com/google/javascript/jscomp/AnonymousFunctionNamingPolicy.<init>(Ljava/lang/String;I[C)V:java/lang/Enum.<init>(Ljava/lang/String;I)V'
p1
I3
sS'com/google/javascript/jscomp/AnonymousFunctionNamingPolicy.<init>(Ljava/lang/String;I[C)V'
p2
I3
s.