(dp0
S'com/google/javascript/jscomp/DiagnosticType.error(Ljava/lang/String;Ljava/lang/String;)Lcom/google/javascript/jscomp/DiagnosticType;:com/google/javascript/jscomp/DiagnosticType.make(Ljava/lang/String;Lcom/google/javascript/jscomp/CheckLevel;Ljava/lang/String;)Lcom/google/javascript/jscomp/DiagnosticType;'
p1
I1
sS'com/google/common/base/Preconditions.checkNotNull(Ljava/lang/Object;)Ljava/lang/Object;:com/google/common/base/Preconditions.checkNotNull(Ljava/lang/Object;)Ljava/lang/Object;:java/util/ArrayList.<init>()V'
p2
I4
sS'java/util/ArrayList.<init>()V'
p3
I4
sS'com/google/common/base/Preconditions.checkNotNull(Ljava/lang/Object;)Ljava/lang/Object;:com/google/common/base/Preconditions.checkNotNull(Ljava/lang/Object;)Ljava/lang/Object;:java/lang/Object.<init>()V'
p4
I2
sS'com/google/common/base/Preconditions.checkNotNull(Ljava/lang/Object;)Ljava/lang/Object;:java/util/ArrayList.<init>()V'
p5
I4
sS'com/google/common/base/Preconditions.checkNotNull(Ljava/lang/Object;)Ljava/lang/Object;:com/google/common/base/Preconditions.checkNotNull(Ljava/lang/Object;)Ljava/lang/Object;'
p6
I1
sS'com/google/javascript/jscomp/DiagnosticType.error(Ljava/lang/String;Ljava/lang/String;)Lcom/google/javascript/jscomp/DiagnosticType;:com/google/javascript/jscomp/DiagnosticType.make(Ljava/lang/String;Lcom/google/javascript/jscomp/CheckLevel;Ljava/lang/String;)Lcom/google/javascript/jscomp/DiagnosticType;:com/google/javascript/jscomp/DiagnosticType.<init>(Ljava/lang/String;Lcom/google/javascript/jscomp/CheckLevel;Ljava/text/MessageFormat;)V:java/lang/Object.<init>()V'
p7
I1
sS'com/google/common/base/Preconditions.checkNotNull(Ljava/lang/Object;)Ljava/lang/Object;:com/google/common/base/Preconditions.checkNotNull(Ljava/lang/Object;)Ljava/lang/Object;:com/google/common/base/Preconditions.checkNotNull(Ljava/lang/Object;)Ljava/lang/Object;'
p8
I1
sS'java/lang/Object.<init>()V'
p9
I2
sS'com/google/javascript/jscomp/DiagnosticType.error(Ljava/lang/String;Ljava/lang/String;)Lcom/google/javascript/jscomp/DiagnosticType;:com/google/javascript/jscomp/CheckLevel.<init>(Ljava/lang/String;I)V'
p10
I3
sS'com/google/javascript/jscomp/DiagnosticType.error(Ljava/lang/String;Ljava/lang/String;)Lcom/google/javascript/jscomp/DiagnosticType;:com/google/javascript/jscomp/CheckLevel.<init>(Ljava/lang/String;I)V:java/lang/Enum.<init>(Ljava/lang/String;I)V'
p11
I3
sS'com/google/javascript/jscomp/DiagnosticType.error(Ljava/lang/String;Ljava/lang/String;)Lcom/google/javascript/jscomp/DiagnosticType;:com/google/javascript/jscomp/DiagnosticType.make(Ljava/lang/String;Lcom/google/javascript/jscomp/CheckLevel;Ljava/lang/String;)Lcom/google/javascript/jscomp/DiagnosticType;:java/text/MessageFormat.<init>(Ljava/lang/String;)V'
p12
I1
sS'com/google/javascript/jscomp/DiagnosticType.error(Ljava/lang/String;Ljava/lang/String;)Lcom/google/javascript/jscomp/DiagnosticType;'
p13
I1
sS'com/google/javascript/jscomp/DiagnosticType.error(Ljava/lang/String;Ljava/lang/String;)Lcom/google/javascript/jscomp/DiagnosticType;:com/google/javascript/jscomp/DiagnosticType.make(Ljava/lang/String;Lcom/google/javascript/jscomp/CheckLevel;Ljava/lang/String;)Lcom/google/javascript/jscomp/DiagnosticType;:com/google/javascript/jscomp/DiagnosticType.<init>(Ljava/lang/String;Lcom/google/javascript/jscomp/CheckLevel;Ljava/text/MessageFormat;)V'
p14
I1
sS'com/google/common/base/Preconditions.checkNotNull(Ljava/lang/Object;)Ljava/lang/Object;:java/lang/Object.<init>()V'
p15
I2
sS'com/google/common/base/Preconditions.checkNotNull(Ljava/lang/Object;)Ljava/lang/Object;'
p16
I1
s.