(dp0
S'com/google/javascript/jscomp/newtypes/Typedef$State.<init>(Ljava/lang/String;I)V:java/lang/Enum.<init>(Ljava/lang/String;I)V'
p1
I3
sS'com/google/javascript/jscomp/newtypes/Typedef$State.<init>(Ljava/lang/String;I)V'
p2
I3
s.