(dp0
S'com/google/common/base/Preconditions.checkArgument(ZLjava/lang/Object;)V:com/google/javascript/jscomp/CompilerOptions$LanguageMode.<init>(Ljava/lang/String;I)V:java/lang/Enum.<init>(Ljava/lang/String;I)V'
p1
I7
sS'com/google/javascript/rhino/jstype/TernaryValue$3.<init>(Ljava/lang/String;I)V:com/google/javascript/rhino/jstype/TernaryValue.<init>(Ljava/lang/String;ILcom/google/javascript/rhino/jstype/TernaryValue$1;)V:com/google/javascript/rhino/jstype/TernaryValue.<init>(Ljava/lang/String;I)V'
p2
I1
sS'java/lang/Object.<init>()V'
p3
I2
sS'com/google/javascript/rhino/jstype/TernaryValue$1.<init>(Ljava/lang/String;I)V:com/google/javascript/rhino/jstype/TernaryValue.<init>(Ljava/lang/String;ILcom/google/javascript/rhino/jstype/TernaryValue$1;)V:com/google/javascript/rhino/jstype/TernaryValue.<init>(Ljava/lang/String;I)V:java/lang/Enum.<init>(Ljava/lang/String;I)V'
p4
I1
sS'com/google/javascript/rhino/jstype/TernaryValue$2.<init>(Ljava/lang/String;I)V:com/google/javascript/rhino/jstype/TernaryValue.<init>(Ljava/lang/String;ILcom/google/javascript/rhino/jstype/TernaryValue$1;)V:com/google/javascript/rhino/jstype/TernaryValue.<init>(Ljava/lang/String;I)V'
p5
I1
sS'com/google/javascript/rhino/jstype/TernaryValue$3.<init>(Ljava/lang/String;I)V'
p6
I1
sS'com/google/javascript/rhino/jstype/TernaryValue$3.<init>(Ljava/lang/String;I)V:com/google/javascript/rhino/jstype/TernaryValue.<init>(Ljava/lang/String;ILcom/google/javascript/rhino/jstype/TernaryValue$1;)V:com/google/javascript/rhino/jstype/TernaryValue.<init>(Ljava/lang/String;I)V:java/lang/Enum.<init>(Ljava/lang/String;I)V'
p7
I1
sS'com/google/javascript/rhino/jstype/TernaryValue$1.<init>(Ljava/lang/String;I)V'
p8
I1
sS'com/google/javascript/rhino/jstype/TernaryValue$3.<init>(Ljava/lang/String;I)V:com/google/javascript/rhino/jstype/TernaryValue.<init>(Ljava/lang/String;ILcom/google/javascript/rhino/jstype/TernaryValue$1;)V'
p9
I1
sS'com/google/javascript/rhino/jstype/TernaryValue$1.<init>(Ljava/lang/String;I)V:com/google/javascript/rhino/jstype/TernaryValue.<init>(Ljava/lang/String;ILcom/google/javascript/rhino/jstype/TernaryValue$1;)V'
p10
I1
sS'com/google/javascript/rhino/jstype/TernaryValue$2.<init>(Ljava/lang/String;I)V'
p11
I1
sS'com/google/javascript/rhino/jstype/TernaryValue$2.<init>(Ljava/lang/String;I)V:com/google/javascript/rhino/jstype/TernaryValue.<init>(Ljava/lang/String;ILcom/google/javascript/rhino/jstype/TernaryValue$1;)V'
p12
I1
sS'com/google/common/base/Preconditions.checkArgument(ZLjava/lang/Object;)V'
p13
I1
sS'com/google/javascript/rhino/jstype/TernaryValue$1.<init>(Ljava/lang/String;I)V:com/google/javascript/rhino/jstype/TernaryValue.<init>(Ljava/lang/String;ILcom/google/javascript/rhino/jstype/TernaryValue$1;)V:com/google/javascript/rhino/jstype/TernaryValue.<init>(Ljava/lang/String;I)V'
p14
I1
sS'com/google/javascript/rhino/jstype/TernaryValue$2.<init>(Ljava/lang/String;I)V:com/google/javascript/rhino/jstype/TernaryValue.<init>(Ljava/lang/String;ILcom/google/javascript/rhino/jstype/TernaryValue$1;)V:com/google/javascript/rhino/jstype/TernaryValue.<init>(Ljava/lang/String;I)V:java/lang/Enum.<init>(Ljava/lang/String;I)V'
p15
I1
sS'com/google/common/base/Preconditions.checkArgument(ZLjava/lang/Object;)V:com/google/javascript/jscomp/CompilerOptions$LanguageMode.<init>(Ljava/lang/String;I)V'
p16
I7
s.