(dp0
S'com/google/javascript/jscomp/parsing/Annotation.<init>(Ljava/lang/String;I)V'
p1
I55
sS'com/google/javascript/jscomp/parsing/Annotation.<init>(Ljava/lang/String;I)V:java/lang/Enum.<init>(Ljava/lang/String;I)V'
p2
I55
s.