(dp0
S'com/google/javascript/jscomp/parsing/parser/trees/ParseTreeType.values()[Lcom/google/javascript/jscomp/parsing/parser/trees/ParseTreeType;:com/google/javascript/jscomp/parsing/parser/trees/ParseTreeType.<init>(Ljava/lang/String;I)V'
p1
I79
sS'com/google/javascript/jscomp/parsing/parser/TokenType.values()[Lcom/google/javascript/jscomp/parsing/parser/TokenType;:com/google/javascript/jscomp/parsing/parser/TokenType.<init>(Ljava/lang/String;ILjava/lang/String;)V'
p2
I61
sS'com/google/javascript/jscomp/parsing/parser/TokenType.ordinal()I'
p3
I52
sS'com/google/javascript/jscomp/parsing/Config$LanguageMode.ordinal()I'
p4
I6
sS'com/google/javascript/jscomp/parsing/parser/trees/ParseTreeType.ordinal()I'
p5
I79
sS'com/google/javascript/jscomp/parsing/Config$LanguageMode.values()[Lcom/google/javascript/jscomp/parsing/Config$LanguageMode;:com/google/javascript/jscomp/parsing/Config$LanguageMode.<init>(Ljava/lang/String;I)V'
p6
I6
sS'com/google/javascript/jscomp/parsing/parser/TokenType.values()[Lcom/google/javascript/jscomp/parsing/parser/TokenType;:com/google/javascript/jscomp/parsing/parser/TokenType.<init>(Ljava/lang/String;ILjava/lang/String;)V:java/lang/Enum.<init>(Ljava/lang/String;I)V'
p7
I61
sS'com/google/javascript/jscomp/parsing/parser/trees/ParseTreeType.values()[Lcom/google/javascript/jscomp/parsing/parser/trees/ParseTreeType;'
p8
I1
sS'com/google/javascript/jscomp/parsing/Config$LanguageMode.values()[Lcom/google/javascript/jscomp/parsing/Config$LanguageMode;:[Lcom/google/javascript/jscomp/parsing/Config$LanguageMode;.clone()Ljava/lang/Object;'
p9
I1
sS'com/google/javascript/jscomp/parsing/parser/TokenType.values()[Lcom/google/javascript/jscomp/parsing/parser/TokenType;:com/google/javascript/jscomp/parsing/parser/TokenType.<init>(Ljava/lang/String;I)V:com/google/javascript/jscomp/parsing/parser/TokenType.<init>(Ljava/lang/String;ILjava/lang/String;)V:java/lang/Enum.<init>(Ljava/lang/String;I)V'
p10
I45
sS'com/google/javascript/jscomp/parsing/parser/TokenType.values()[Lcom/google/javascript/jscomp/parsing/parser/TokenType;:[Lcom/google/javascript/jscomp/parsing/parser/TokenType;.clone()Ljava/lang/Object;'
p11
I1
sS'com/google/javascript/jscomp/parsing/parser/TokenType.values()[Lcom/google/javascript/jscomp/parsing/parser/TokenType;:com/google/javascript/jscomp/parsing/parser/TokenType.<init>(Ljava/lang/String;I)V:com/google/javascript/jscomp/parsing/parser/TokenType.<init>(Ljava/lang/String;ILjava/lang/String;)V'
p12
I45
sS'com/google/javascript/jscomp/parsing/parser/TokenType.values()[Lcom/google/javascript/jscomp/parsing/parser/TokenType;'
p13
I1
sS'com/google/javascript/jscomp/parsing/Config$LanguageMode.values()[Lcom/google/javascript/jscomp/parsing/Config$LanguageMode;:com/google/javascript/jscomp/parsing/Config$LanguageMode.<init>(Ljava/lang/String;I)V:java/lang/Enum.<init>(Ljava/lang/String;I)V'
p14
I6
sS'com/google/javascript/jscomp/parsing/Config$LanguageMode.values()[Lcom/google/javascript/jscomp/parsing/Config$LanguageMode;'
p15
I1
sS'com/google/javascript/jscomp/parsing/parser/trees/ParseTreeType.values()[Lcom/google/javascript/jscomp/parsing/parser/trees/ParseTreeType;:[Lcom/google/javascript/jscomp/parsing/parser/trees/ParseTreeType;.clone()Ljava/lang/Object;'
p16
I1
sS'com/google/javascript/jscomp/parsing/parser/trees/ParseTreeType.values()[Lcom/google/javascript/jscomp/parsing/parser/trees/ParseTreeType;:com/google/javascript/jscomp/parsing/parser/trees/ParseTreeType.<init>(Ljava/lang/String;I)V:java/lang/Enum.<init>(Ljava/lang/String;I)V'
p17
I79
sS'com/google/javascript/jscomp/parsing/parser/TokenType.values()[Lcom/google/javascript/jscomp/parsing/parser/TokenType;:com/google/javascript/jscomp/parsing/parser/TokenType.<init>(Ljava/lang/String;I)V'
p18
I45
s.