(dp0
S'com/google/javascript/jscomp/parsing/parser/Keywords.<init>(Ljava/lang/String;ILjava/lang/String;Lcom/google/javascript/jscomp/parsing/parser/TokenType;)V'
p1
I45
sS'com/google/javascript/jscomp/parsing/parser/TokenType.<init>(Ljava/lang/String;I)V:com/google/javascript/jscomp/parsing/parser/TokenType.<init>(Ljava/lang/String;ILjava/lang/String;)V'
p2
I45
sS'com/google/javascript/jscomp/parsing/parser/TokenType.<init>(Ljava/lang/String;ILjava/lang/String;)V'
p3
I61
sS'com/google/javascript/jscomp/parsing/parser/TokenType.<init>(Ljava/lang/String;ILjava/lang/String;)V:java/lang/Enum.<init>(Ljava/lang/String;I)V'
p4
I61
sS'com/google/common/collect/ImmutableMap.builder()Lcom/google/common/collect/ImmutableMap$Builder;'
p5
I1
sS'com/google/javascript/jscomp/parsing/parser/TokenType.<init>(Ljava/lang/String;I)V:com/google/javascript/jscomp/parsing/parser/TokenType.<init>(Ljava/lang/String;ILjava/lang/String;)V:java/lang/Enum.<init>(Ljava/lang/String;I)V'
p6
I45
sS'com/google/javascript/jscomp/parsing/parser/Keywords.<init>(Ljava/lang/String;ILjava/lang/String;Lcom/google/javascript/jscomp/parsing/parser/TokenType;)V:java/lang/Enum.<init>(Ljava/lang/String;I)V'
p7
I45
sS'com/google/javascript/jscomp/parsing/parser/TokenType.<init>(Ljava/lang/String;I)V'
p8
I45
s.