(dp0
S'com/google/javascript/jscomp/parsing/parser/trees/ParseTreeType.<init>(Ljava/lang/String;I)V'
p1
I79
sS'com/google/javascript/jscomp/parsing/parser/trees/ParseTreeType.<init>(Ljava/lang/String;I)V:java/lang/Enum.<init>(Ljava/lang/String;I)V'
p2
I79
s.