(dp0
S'com/google/common/collect/Sets.newTreeSet(Ljava/util/Comparator;)Ljava/util/TreeSet;:com/google/common/collect/Sets.newTreeSet(Ljava/util/Comparator;)Ljava/util/TreeSet;:com/google/common/collect/Sets.newTreeSet(Ljava/util/Comparator;)Ljava/util/TreeSet;:com/google/common/collect/Sets.newTreeSet(Ljava/util/Comparator;)Ljava/util/TreeSet;:com/google/common/collect/Sets.newTreeSet(Ljava/util/Comparator;)Ljava/util/TreeSet;:com/google/common/collect/Sets.newTreeSet(Ljava/util/Comparator;)Ljava/util/TreeSet;:com/google/common/collect/Sets.newTreeSet(Ljava/util/Comparator;)Ljava/util/TreeSet;:com/google/common/collect/Sets.newTreeSet(Ljava/util/Comparator;)Ljava/util/TreeSet;:com/google/common/collect/Sets.newTreeSet(Ljava/util/Comparator;)Ljava/util/TreeSet;:com/google/common/collect/Sets.newTreeSet(Ljava/util/Comparator;)Ljava/util/TreeSet;:com/google/common/collect/Sets.newTreeSet(Ljava/util/Comparator;)Ljava/util/TreeSet;:com/google/common/collect/Sets.newTreeSet(Ljava/util/Comparator;)Ljava/util/TreeSet;:com/google/common/collect/Sets.newTreeSet(Ljava/util/Comparator;)Ljava/util/TreeSet;:com/google/common/collect/Sets.newTreeSet(Ljava/util/Comparator;)Ljava/util/TreeSet;:com/google/common/collect/Sets.newTreeSet(Ljava/util/Comparator;)Ljava/util/TreeSet;:java/lang/Object.<init>()V'
p1
I1
sS'com/google/common/collect/Sets.newTreeSet(Ljava/util/Comparator;)Ljava/util/TreeSet;:com/google/common/collect/Sets.newTreeSet(Ljava/util/Comparator;)Ljava/util/TreeSet;:com/google/common/collect/Sets.newTreeSet(Ljava/util/Comparator;)Ljava/util/TreeSet;:com/google/common/collect/Sets.newTreeSet(Ljava/util/Comparator;)Ljava/util/TreeSet;:com/google/common/collect/Sets.newTreeSet(Ljava/util/Comparator;)Ljava/util/TreeSet;:com/google/common/collect/Sets.newTreeSet(Ljava/util/Comparator;)Ljava/util/TreeSet;:com/google/common/collect/Sets.newTreeSet(Ljava/util/Comparator;)Ljava/util/TreeSet;:com/google/common/collect/Sets.newTreeSet(Ljava/util/Comparator;)Ljava/util/TreeSet;:com/google/common/collect/Sets.newTreeSet(Ljava/util/Comparator;)Ljava/util/TreeSet;'
p2
I1
sS'com/google/common/collect/Sets.newTreeSet(Ljava/util/Comparator;)Ljava/util/TreeSet;:com/google/common/collect/Sets.newTreeSet(Ljava/util/Comparator;)Ljava/util/TreeSet;:com/google/common/collect/Sets.newTreeSet(Ljava/util/Comparator;)Ljava/util/TreeSet;:com/google/common/collect/Sets.newTreeSet(Ljava/util/Comparator;)Ljava/util/TreeSet;:com/google/common/collect/Sets.newTreeSet(Ljava/util/Comparator;)Ljava/util/TreeSet;:com/google/common/collect/Sets.newTreeSet(Ljava/util/Comparator;)Ljava/util/TreeSet;:com/google/common/collect/Sets.newTreeSet(Ljava/util/Comparator;)Ljava/util/TreeSet;:com/google/common/collect/Sets.newTreeSet(Ljava/util/Comparator;)Ljava/util/TreeSet;:com/google/common/collect/Sets.newTreeSet(Ljava/util/Comparator;)Ljava/util/TreeSet;:com/google/common/collect/Sets.newTreeSet(Ljava/util/Comparator;)Ljava/util/TreeSet;:com/google/common/collect/Sets.newTreeSet(Ljava/util/Comparator;)Ljava/util/TreeSet;:com/google/common/collect/Sets.newTreeSet(Ljava/util/Comparator;)Ljava/util/TreeSet;:com/google/common/collect/Sets.newTreeSet(Ljava/util/Comparator;)Ljava/util/TreeSet;:com/google/common/collect/Sets.newTreeSet(Ljava/util/Comparator;)Ljava/util/TreeSet;:com/google/common/collect/Sets.newTreeSet(Ljava/util/Comparator;)Ljava/util/TreeSet;:com/google/common/collect/Sets.newTreeSet(Ljava/util/Comparator;)Ljava/util/TreeSet;:com/google/common/collect/Sets.newTreeSet(Ljava/util/Comparator;)Ljava/util/TreeSet;:com/google/common/collect/Sets.newTreeSet(Ljava/util/Comparator;)Ljava/util/TreeSet;:com/google/common/collect/Sets.newTreeSet(Ljava/util/Comparator;)Ljava/util/TreeSet;:com/google/common/collect/Sets.newTreeSet(Ljava/util/Comparator;)Ljava/util/TreeSet;:com/google/javascript/jscomp/BasicErrorManager$LeveledJSErrorComparator.<init>()V:java/lang/Object.<init>()V'
p3
I1
sS'com/google/common/collect/Sets.newTreeSet(Ljava/util/Comparator;)Ljava/util/TreeSet;:com/google/common/collect/Sets.newTreeSet(Ljava/util/Comparator;)Ljava/util/TreeSet;:com/google/common/collect/Sets.newTreeSet(Ljava/util/Comparator;)Ljava/util/TreeSet;:com/google/common/collect/Sets.newTreeSet(Ljava/util/Comparator;)Ljava/util/TreeSet;:com/google/common/collect/Sets.newTreeSet(Ljava/util/Comparator;)Ljava/util/TreeSet;:com/google/common/collect/Sets.newTreeSet(Ljava/util/Comparator;)Ljava/util/TreeSet;:com/google/common/collect/Sets.newTreeSet(Ljava/util/Comparator;)Ljava/util/TreeSet;:com/google/common/collect/Sets.newTreeSet(Ljava/util/Comparator;)Ljava/util/TreeSet;:com/google/common/collect/Sets.newTreeSet(Ljava/util/Comparator;)Ljava/util/TreeSet;:com/google/common/collect/Sets.newTreeSet(Ljava/util/Comparator;)Ljava/util/TreeSet;:com/google/common/collect/Sets.newTreeSet(Ljava/util/Comparator;)Ljava/util/TreeSet;:com/google/common/collect/Sets.newTreeSet(Ljava/util/Comparator;)Ljava/util/TreeSet;:com/google/common/collect/Sets.newTreeSet(Ljava/util/Comparator;)Ljava/util/TreeSet;:com/google/common/collect/Sets.newTreeSet(Ljava/util/Comparator;)Ljava/util/TreeSet;:com/google/javascript/jscomp/BasicErrorManager$LeveledJSErrorComparator.<init>()V'
p4
I1
sS'com/google/common/collect/Sets.newTreeSet(Ljava/util/Comparator;)Ljava/util/TreeSet;:com/google/common/collect/Sets.newTreeSet(Ljava/util/Comparator;)Ljava/util/TreeSet;:com/google/common/collect/Sets.newTreeSet(Ljava/util/Comparator;)Ljava/util/TreeSet;:com/google/common/collect/Sets.newTreeSet(Ljava/util/Comparator;)Ljava/util/TreeSet;:com/google/common/collect/Sets.newTreeSet(Ljava/util/Comparator;)Ljava/util/TreeSet;:com/google/common/collect/Sets.newTreeSet(Ljava/util/Comparator;)Ljava/util/TreeSet;:com/google/common/collect/Sets.newTreeSet(Ljava/util/Comparator;)Ljava/util/TreeSet;:com/google/common/collect/Sets.newTreeSet(Ljava/util/Comparator;)Ljava/util/TreeSet;:com/google/common/collect/Sets.newTreeSet(Ljava/util/Comparator;)Ljava/util/TreeSet;:com/google/common/collect/Sets.newTreeSet(Ljava/util/Comparator;)Ljava/util/TreeSet;:com/google/common/collect/Sets.newTreeSet(Ljava/util/Comparator;)Ljava/util/TreeSet;:com/google/common/collect/Sets.newTreeSet(Ljava/util/Comparator;)Ljava/util/TreeSet;:com/google/common/collect/Sets.newTreeSet(Ljava/util/Comparator;)Ljava/util/TreeSet;:com/google/common/collect/Sets.newTreeSet(Ljava/util/Comparator;)Ljava/util/TreeSet;:com/google/common/collect/Sets.newTreeSet(Ljava/util/Comparator;)Ljava/util/TreeSet;:com/google/common/collect/Sets.newTreeSet(Ljava/util/Comparator;)Ljava/util/TreeSet;:com/google/common/collect/Sets.newTreeSet(Ljava/util/Comparator;)Ljava/util/TreeSet;:com/google/common/collect/Sets.newTreeSet(Ljava/util/Comparator;)Ljava/util/TreeSet;:java/lang/Object.<init>()V'
p5
I1
sS'com/google/common/collect/Sets.newTreeSet(Ljava/util/Comparator;)Ljava/util/TreeSet;:com/google/common/collect/Sets.newTreeSet(Ljava/util/Comparator;)Ljava/util/TreeSet;:com/google/common/collect/Sets.newTreeSet(Ljava/util/Comparator;)Ljava/util/TreeSet;:com/google/common/collect/Sets.newTreeSet(Ljava/util/Comparator;)Ljava/util/TreeSet;:com/google/common/collect/Sets.newTreeSet(Ljava/util/Comparator;)Ljava/util/TreeSet;:com/google/common/collect/Sets.newTreeSet(Ljava/util/Comparator;)Ljava/util/TreeSet;:com/google/common/collect/Sets.newTreeSet(Ljava/util/Comparator;)Ljava/util/TreeSet;:com/google/common/collect/Sets.newTreeSet(Ljava/util/Comparator;)Ljava/util/TreeSet;:com/google/common/collect/Sets.newTreeSet(Ljava/util/Comparator;)Ljava/util/TreeSet;:com/google/common/collect/Sets.newTreeSet(Ljava/util/Comparator;)Ljava/util/TreeSet;:com/google/common/collect/Sets.newTreeSet(Ljava/util/Comparator;)Ljava/util/TreeSet;:com/google/common/collect/Sets.newTreeSet(Ljava/util/Comparator;)Ljava/util/TreeSet;:com/google/common/collect/Sets.newTreeSet(Ljava/util/Comparator;)Ljava/util/TreeSet;:com/google/common/collect/Sets.newTreeSet(Ljava/util/Comparator;)Ljava/util/TreeSet;:com/google/common/collect/Sets.newTreeSet(Ljava/util/Comparator;)Ljava/util/TreeSet;:com/google/common/collect/Sets.newTreeSet(Ljava/util/Comparator;)Ljava/util/TreeSet;:com/google/common/collect/Sets.newTreeSet(Ljava/util/Comparator;)Ljava/util/TreeSet;:com/google/common/collect/Sets.newTreeSet(Ljava/util/Comparator;)Ljava/util/TreeSet;:com/google/common/collect/Sets.newTreeSet(Ljava/util/Comparator;)Ljava/util/TreeSet;:com/google/common/collect/Sets.newTreeSet(Ljava/util/Comparator;)Ljava/util/TreeSet;:com/google/common/collect/Sets.newTreeSet(Ljava/util/Comparator;)Ljava/util/TreeSet;:com/google/common/collect/Sets.newTreeSet(Ljava/util/Comparator;)Ljava/util/TreeSet;:com/google/common/collect/Sets.newTreeSet(Ljava/util/Comparator;)Ljava/util/TreeSet;:com/google/javascript/jscomp/BasicErrorManager$LeveledJSErrorComparator.<init>()V:java/lang/Object.<init>()V'
p6
I1
sS'com/google/common/collect/Sets.newTreeSet(Ljava/util/Comparator;)Ljava/util/TreeSet;:com/google/common/collect/Sets.newTreeSet(Ljava/util/Comparator;)Ljava/util/TreeSet;:com/google/common/collect/Sets.newTreeSet(Ljava/util/Comparator;)Ljava/util/TreeSet;:com/google/common/collect/Sets.newTreeSet(Ljava/util/Comparator;)Ljava/util/TreeSet;:com/google/common/collect/Sets.newTreeSet(Ljava/util/Comparator;)Ljava/util/TreeSet;:com/google/common/collect/Sets.newTreeSet(Ljava/util/Comparator;)Ljava/util/TreeSet;:com/google/common/collect/Sets.newTreeSet(Ljava/util/Comparator;)Ljava/util/TreeSet;:com/google/common/collect/Sets.newTreeSet(Ljava/util/Comparator;)Ljava/util/TreeSet;:com/google/common/collect/Sets.newTreeSet(Ljava/util/Comparator;)Ljava/util/TreeSet;:com/google/common/collect/Sets.newTreeSet(Ljava/util/Comparator;)Ljava/util/TreeSet;:com/google/common/collect/Sets.newTreeSet(Ljava/util/Comparator;)Ljava/util/TreeSet;:com/google/common/collect/Sets.newTreeSet(Ljava/util/Comparator;)Ljava/util/TreeSet;:com/google/common/collect/Sets.newTreeSet(Ljava/util/Comparator;)Ljava/util/TreeSet;:com/google/common/collect/Sets.newTreeSet(Ljava/util/Comparator;)Ljava/util/TreeSet;:com/google/common/collect/Sets.newTreeSet(Ljava/util/Comparator;)Ljava/util/TreeSet;:com/google/common/collect/Sets.newTreeSet(Ljava/util/Comparator;)Ljava/util/TreeSet;:com/google/common/collect/Sets.newTreeSet(Ljava/util/Comparator;)Ljava/util/TreeSet;:com/google/common/collect/Sets.newTreeSet(Ljava/util/Comparator;)Ljava/util/TreeSet;:com/google/common/collect/Sets.newTreeSet(Ljava/util/Comparator;)Ljava/util/TreeSet;:com/google/common/collect/Sets.newTreeSet(Ljava/util/Comparator;)Ljava/util/TreeSet;:com/google/common/collect/Sets.newTreeSet(Ljava/util/Comparator;)Ljava/util/TreeSet;:com/google/common/collect/Sets.newTreeSet(Ljava/util/Comparator;)Ljava/util/TreeSet;:com/google/common/collect/Sets.newTreeSet(Ljava/util/Comparator;)Ljava/util/TreeSet;:com/google/common/collect/Sets.newTreeSet(Ljava/util/Comparator;)Ljava/util/TreeSet;:com/google/common/collect/Sets.newTreeSet(Ljava/util/Comparator;)Ljava/util/TreeSet;:com/google/common/collect/Sets.newTreeSet(Ljava/util/Comparator;)Ljava/util/TreeSet;:com/google/common/collect/Sets.newTreeSet(Ljava/util/Comparator;)Ljava/util/TreeSet;:com/google/common/collect/Sets.newTreeSet(Ljava/util/Comparator;)Ljava/util/TreeSet;:java/lang/Object.<init>()V'
p7
I1
sS'com/google/common/collect/Sets.newTreeSet(Ljava/util/Comparator;)Ljava/util/TreeSet;:com/google/common/collect/Sets.newTreeSet(Ljava/util/Comparator;)Ljava/util/TreeSet;:com/google/common/collect/Sets.newTreeSet(Ljava/util/Comparator;)Ljava/util/TreeSet;:com/google/common/collect/Sets.newTreeSet(Ljava/util/Comparator;)Ljava/util/TreeSet;:com/google/common/collect/Sets.newTreeSet(Ljava/util/Comparator;)Ljava/util/TreeSet;:com/google/common/collect/Sets.newTreeSet(Ljava/util/Comparator;)Ljava/util/TreeSet;:com/google/common/collect/Sets.newTreeSet(Ljava/util/Comparator;)Ljava/util/TreeSet;:com/google/common/collect/Sets.newTreeSet(Ljava/util/Comparator;)Ljava/util/TreeSet;:com/google/common/collect/Sets.newTreeSet(Ljava/util/Comparator;)Ljava/util/TreeSet;:com/google/common/collect/Sets.newTreeSet(Ljava/util/Comparator;)Ljava/util/TreeSet;:com/google/common/collect/Sets.newTreeSet(Ljava/util/Comparator;)Ljava/util/TreeSet;:com/google/common/collect/Sets.newTreeSet(Ljava/util/Comparator;)Ljava/util/TreeSet;:com/google/common/collect/Sets.newTreeSet(Ljava/util/Comparator;)Ljava/util/TreeSet;:com/google/javascript/jscomp/BasicErrorManager$LeveledJSErrorComparator.<init>()V:java/lang/Object.<init>()V'
p8
I1
sS'com/google/common/collect/Sets.newTreeSet(Ljava/util/Comparator;)Ljava/util/TreeSet;:com/google/common/collect/Sets.newTreeSet(Ljava/util/Comparator;)Ljava/util/TreeSet;:com/google/common/collect/Sets.newTreeSet(Ljava/util/Comparator;)Ljava/util/TreeSet;:com/google/common/collect/Sets.newTreeSet(Ljava/util/Comparator;)Ljava/util/TreeSet;:com/google/common/collect/Sets.newTreeSet(Ljava/util/Comparator;)Ljava/util/TreeSet;:com/google/javascript/jscomp/BasicErrorManager$LeveledJSErrorComparator.<init>()V:java/lang/Object.<init>()V'
p9
I1
sS'com/google/common/collect/Sets.newTreeSet(Ljava/util/Comparator;)Ljava/util/TreeSet;:com/google/common/collect/Sets.newTreeSet(Ljava/util/Comparator;)Ljava/util/TreeSet;:com/google/common/collect/Sets.newTreeSet(Ljava/util/Comparator;)Ljava/util/TreeSet;:com/google/common/collect/Sets.newTreeSet(Ljava/util/Comparator;)Ljava/util/TreeSet;:com/google/common/collect/Sets.newTreeSet(Ljava/util/Comparator;)Ljava/util/TreeSet;:com/google/common/collect/Sets.newTreeSet(Ljava/util/Comparator;)Ljava/util/TreeSet;:com/google/common/collect/Sets.newTreeSet(Ljava/util/Comparator;)Ljava/util/TreeSet;:com/google/common/collect/Sets.newTreeSet(Ljava/util/Comparator;)Ljava/util/TreeSet;:com/google/common/collect/Sets.newTreeSet(Ljava/util/Comparator;)Ljava/util/TreeSet;:com/google/common/collect/Sets.newTreeSet(Ljava/util/Comparator;)Ljava/util/TreeSet;:com/google/common/collect/Sets.newTreeSet(Ljava/util/Comparator;)Ljava/util/TreeSet;:com/google/common/collect/Sets.newTreeSet(Ljava/util/Comparator;)Ljava/util/TreeSet;:com/google/common/collect/Sets.newTreeSet(Ljava/util/Comparator;)Ljava/util/TreeSet;:com/google/common/collect/Sets.newTreeSet(Ljava/util/Comparator;)Ljava/util/TreeSet;:com/google/common/collect/Sets.newTreeSet(Ljava/util/Comparator;)Ljava/util/TreeSet;:com/google/common/collect/Sets.newTreeSet(Ljava/util/Comparator;)Ljava/util/TreeSet;:com/google/common/collect/Sets.newTreeSet(Ljava/util/Comparator;)Ljava/util/TreeSet;:com/google/common/collect/Sets.newTreeSet(Ljava/util/Comparator;)Ljava/util/TreeSet;:com/google/common/collect/Sets.newTreeSet(Ljava/util/Comparator;)Ljava/util/TreeSet;:java/lang/Object.<init>()V'
p10
I1
sS'com/google/common/collect/Sets.newTreeSet(Ljava/util/Comparator;)Ljava/util/TreeSet;:com/google/common/collect/Sets.newTreeSet(Ljava/util/Comparator;)Ljava/util/TreeSet;:com/google/common/collect/Sets.newTreeSet(Ljava/util/Comparator;)Ljava/util/TreeSet;:com/google/common/collect/Sets.newTreeSet(Ljava/util/Comparator;)Ljava/util/TreeSet;:com/google/common/collect/Sets.newTreeSet(Ljava/util/Comparator;)Ljava/util/TreeSet;:com/google/common/collect/Sets.newTreeSet(Ljava/util/Comparator;)Ljava/util/TreeSet;:com/google/common/collect/Sets.newTreeSet(Ljava/util/Comparator;)Ljava/util/TreeSet;:com/google/common/collect/Sets.newTreeSet(Ljava/util/Comparator;)Ljava/util/TreeSet;:com/google/common/collect/Sets.newTreeSet(Ljava/util/Comparator;)Ljava/util/TreeSet;:com/google/common/collect/Sets.newTreeSet(Ljava/util/Comparator;)Ljava/util/TreeSet;:com/google/common/collect/Sets.newTreeSet(Ljava/util/Comparator;)Ljava/util/TreeSet;:com/google/common/collect/Sets.newTreeSet(Ljava/util/Comparator;)Ljava/util/TreeSet;:com/google/common/collect/Sets.newTreeSet(Ljava/util/Comparator;)Ljava/util/TreeSet;:com/google/common/collect/Sets.newTreeSet(Ljava/util/Comparator;)Ljava/util/TreeSet;:com/google/javascript/jscomp/BasicErrorManager$LeveledJSErrorComparator.<init>()V:java/lang/Object.<init>()V'
p11
I1
sS'com/google/common/collect/Sets.newTreeSet(Ljava/util/Comparator;)Ljava/util/TreeSet;:com/google/common/collect/Sets.newTreeSet(Ljava/util/Comparator;)Ljava/util/TreeSet;:com/google/common/collect/Sets.newTreeSet(Ljava/util/Comparator;)Ljava/util/TreeSet;:com/google/common/collect/Sets.newTreeSet(Ljava/util/Comparator;)Ljava/util/TreeSet;'
p12
I1
sS'com/google/common/collect/Sets.newTreeSet(Ljava/util/Comparator;)Ljava/util/TreeSet;:com/google/common/collect/Sets.newTreeSet(Ljava/util/Comparator;)Ljava/util/TreeSet;:com/google/common/collect/Sets.newTreeSet(Ljava/util/Comparator;)Ljava/util/TreeSet;:com/google/common/collect/Sets.newTreeSet(Ljava/util/Comparator;)Ljava/util/TreeSet;:com/google/common/collect/Sets.newTreeSet(Ljava/util/Comparator;)Ljava/util/TreeSet;:com/google/common/collect/Sets.newTreeSet(Ljava/util/Comparator;)Ljava/util/TreeSet;:com/google/common/collect/Sets.newTreeSet(Ljava/util/Comparator;)Ljava/util/TreeSet;:com/google/common/collect/Sets.newTreeSet(Ljava/util/Comparator;)Ljava/util/TreeSet;:com/google/common/collect/Sets.newTreeSet(Ljava/util/Comparator;)Ljava/util/TreeSet;:com/google/common/collect/Sets.newTreeSet(Ljava/util/Comparator;)Ljava/util/TreeSet;:com/google/common/collect/Sets.newTreeSet(Ljava/util/Comparator;)Ljava/util/TreeSet;:com/google/common/collect/Sets.newTreeSet(Ljava/util/Comparator;)Ljava/util/TreeSet;:com/google/common/collect/Sets.newTreeSet(Ljava/util/Comparator;)Ljava/util/TreeSet;:com/google/common/collect/Sets.newTreeSet(Ljava/util/Comparator;)Ljava/util/TreeSet;:com/google/common/collect/Sets.newTreeSet(Ljava/util/Comparator;)Ljava/util/TreeSet;:com/google/common/collect/Sets.newTreeSet(Ljava/util/Comparator;)Ljava/util/TreeSet;:com/google/common/collect/Sets.newTreeSet(Ljava/util/Comparator;)Ljava/util/TreeSet;:com/google/common/collect/Sets.newTreeSet(Ljava/util/Comparator;)Ljava/util/TreeSet;:com/google/common/collect/Sets.newTreeSet(Ljava/util/Comparator;)Ljava/util/TreeSet;:com/google/common/collect/Sets.newTreeSet(Ljava/util/Comparator;)Ljava/util/TreeSet;:com/google/common/collect/Sets.newTreeSet(Ljava/util/Comparator;)Ljava/util/TreeSet;:com/google/common/collect/Sets.newTreeSet(Ljava/util/Comparator;)Ljava/util/TreeSet;:com/google/common/collect/Sets.newTreeSet(Ljava/util/Comparator;)Ljava/util/TreeSet;:com/google/common/collect/Sets.newTreeSet(Ljava/util/Comparator;)Ljava/util/TreeSet;:com/google/common/collect/Sets.newTreeSet(Ljava/util/Comparator;)Ljava/util/TreeSet;:com/google/common/collect/Sets.newTreeSet(Ljava/util/Comparator;)Ljava/util/TreeSet;'
p13
I1
sS'com/google/common/collect/Sets.newTreeSet(Ljava/util/Comparator;)Ljava/util/TreeSet;:java/lang/Object.<init>()V'
p14
I1
sS'com/google/common/collect/Sets.newTreeSet(Ljava/util/Comparator;)Ljava/util/TreeSet;:com/google/common/collect/Sets.newTreeSet(Ljava/util/Comparator;)Ljava/util/TreeSet;:com/google/common/collect/Sets.newTreeSet(Ljava/util/Comparator;)Ljava/util/TreeSet;:com/google/common/collect/Sets.newTreeSet(Ljava/util/Comparator;)Ljava/util/TreeSet;:com/google/common/collect/Sets.newTreeSet(Ljava/util/Comparator;)Ljava/util/TreeSet;:com/google/common/collect/Sets.newTreeSet(Ljava/util/Comparator;)Ljava/util/TreeSet;:com/google/common/collect/Sets.newTreeSet(Ljava/util/Comparator;)Ljava/util/TreeSet;:com/google/common/collect/Sets.newTreeSet(Ljava/util/Comparator;)Ljava/util/TreeSet;:com/google/common/collect/Sets.newTreeSet(Ljava/util/Comparator;)Ljava/util/TreeSet;:com/google/common/collect/Sets.newTreeSet(Ljava/util/Comparator;)Ljava/util/TreeSet;:com/google/common/collect/Sets.newTreeSet(Ljava/util/Comparator;)Ljava/util/TreeSet;:com/google/common/collect/Sets.newTreeSet(Ljava/util/Comparator;)Ljava/util/TreeSet;:com/google/common/collect/Sets.newTreeSet(Ljava/util/Comparator;)Ljava/util/TreeSet;:com/google/common/collect/Sets.newTreeSet(Ljava/util/Comparator;)Ljava/util/TreeSet;:com/google/common/collect/Sets.newTreeSet(Ljava/util/Comparator;)Ljava/util/TreeSet;:com/google/common/collect/Sets.newTreeSet(Ljava/util/Comparator;)Ljava/util/TreeSet;:com/google/javascript/jscomp/BasicErrorManager$LeveledJSErrorComparator.<init>()V:java/lang/Object.<init>()V'
p15
I1
sS'com/google/common/collect/Sets.newTreeSet(Ljava/util/Comparator;)Ljava/util/TreeSet;:com/google/common/collect/Sets.newTreeSet(Ljava/util/Comparator;)Ljava/util/TreeSet;:com/google/common/collect/Sets.newTreeSet(Ljava/util/Comparator;)Ljava/util/TreeSet;:com/google/common/collect/Sets.newTreeSet(Ljava/util/Comparator;)Ljava/util/TreeSet;:com/google/common/collect/Sets.newTreeSet(Ljava/util/Comparator;)Ljava/util/TreeSet;:com/google/common/collect/Sets.newTreeSet(Ljava/util/Comparator;)Ljava/util/TreeSet;'
p16
I1
sS'com/google/common/collect/Sets.newTreeSet(Ljava/util/Comparator;)Ljava/util/TreeSet;:com/google/common/collect/Sets.newTreeSet(Ljava/util/Comparator;)Ljava/util/TreeSet;:com/google/common/collect/Sets.newTreeSet(Ljava/util/Comparator;)Ljava/util/TreeSet;:com/google/common/collect/Sets.newTreeSet(Ljava/util/Comparator;)Ljava/util/TreeSet;:com/google/common/collect/Sets.newTreeSet(Ljava/util/Comparator;)Ljava/util/TreeSet;:com/google/common/collect/Sets.newTreeSet(Ljava/util/Comparator;)Ljava/util/TreeSet;:com/google/common/collect/Sets.newTreeSet(Ljava/util/Comparator;)Ljava/util/TreeSet;:com/google/common/collect/Sets.newTreeSet(Ljava/util/Comparator;)Ljava/util/TreeSet;:com/google/common/collect/Sets.newTreeSet(Ljava/util/Comparator;)Ljava/util/TreeSet;:com/google/common/collect/Sets.newTreeSet(Ljava/util/Comparator;)Ljava/util/TreeSet;:com/google/common/collect/Sets.newTreeSet(Ljava/util/Comparator;)Ljava/util/TreeSet;:com/google/common/collect/Sets.newTreeSet(Ljava/util/Comparator;)Ljava/util/TreeSet;:com/google/common/collect/Sets.newTreeSet(Ljava/util/Comparator;)Ljava/util/TreeSet;:com/google/common/collect/Sets.newTreeSet(Ljava/util/Comparator;)Ljava/util/TreeSet;:com/google/common/collect/Sets.newTreeSet(Ljava/util/Comparator;)Ljava/util/TreeSet;:com/google/common/collect/Sets.newTreeSet(Ljava/util/Comparator;)Ljava/util/TreeSet;:com/google/common/collect/Sets.newTreeSet(Ljava/util/Comparator;)Ljava/util/TreeSet;:com/google/common/collect/Sets.newTreeSet(Ljava/util/Comparator;)Ljava/util/TreeSet;:com/google/common/collect/Sets.newTreeSet(Ljava/util/Comparator;)Ljava/util/TreeSet;:com/google/common/collect/Sets.newTreeSet(Ljava/util/Comparator;)Ljava/util/TreeSet;:com/google/common/collect/Sets.newTreeSet(Ljava/util/Comparator;)Ljava/util/TreeSet;'
p17
I1
sS'com/google/common/collect/Sets.newTreeSet(Ljava/util/Comparator;)Ljava/util/TreeSet;:com/google/common/collect/Sets.newTreeSet(Ljava/util/Comparator;)Ljava/util/TreeSet;:com/google/javascript/jscomp/BasicErrorManager$LeveledJSErrorComparator.<init>()V:java/lang/Object.<init>()V'
p18
I1
sS'com/google/common/collect/Sets.newTreeSet(Ljava/util/Comparator;)Ljava/util/TreeSet;:com/google/common/collect/Sets.newTreeSet(Ljava/util/Comparator;)Ljava/util/TreeSet;:com/google/common/collect/Sets.newTreeSet(Ljava/util/Comparator;)Ljava/util/TreeSet;:com/google/common/collect/Sets.newTreeSet(Ljava/util/Comparator;)Ljava/util/TreeSet;:com/google/common/collect/Sets.newTreeSet(Ljava/util/Comparator;)Ljava/util/TreeSet;:com/google/common/collect/Sets.newTreeSet(Ljava/util/Comparator;)Ljava/util/TreeSet;:com/google/common/collect/Sets.newTreeSet(Ljava/util/Comparator;)Ljava/util/TreeSet;:com/google/common/collect/Sets.newTreeSet(Ljava/util/Comparator;)Ljava/util/TreeSet;:com/google/common/collect/Sets.newTreeSet(Ljava/util/Comparator;)Ljava/util/TreeSet;:com/google/common/collect/Sets.newTreeSet(Ljava/util/Comparator;)Ljava/util/TreeSet;:com/google/common/collect/Sets.newTreeSet(Ljava/util/Comparator;)Ljava/util/TreeSet;:com/google/common/collect/Sets.newTreeSet(Ljava/util/Comparator;)Ljava/util/TreeSet;:com/google/common/collect/Sets.newTreeSet(Ljava/util/Comparator;)Ljava/util/TreeSet;:com/google/common/collect/Sets.newTreeSet(Ljava/util/Comparator;)Ljava/util/TreeSet;:com/google/common/collect/Sets.newTreeSet(Ljava/util/Comparator;)Ljava/util/TreeSet;:com/google/common/collect/Sets.newTreeSet(Ljava/util/Comparator;)Ljava/util/TreeSet;:com/google/common/collect/Sets.newTreeSet(Ljava/util/Comparator;)Ljava/util/TreeSet;:com/google/common/collect/Sets.newTreeSet(Ljava/util/Comparator;)Ljava/util/TreeSet;:com/google/common/collect/Sets.newTreeSet(Ljava/util/Comparator;)Ljava/util/TreeSet;:com/google/common/collect/Sets.newTreeSet(Ljava/util/Comparator;)Ljava/util/TreeSet;:com/google/common/collect/Sets.newTreeSet(Ljava/util/Comparator;)Ljava/util/TreeSet;:com/google/common/collect/Sets.newTreeSet(Ljava/util/Comparator;)Ljava/util/TreeSet;:com/google/common/collect/Sets.newTreeSet(Ljava/util/Comparator;)Ljava/util/TreeSet;:com/google/common/collect/Sets.newTreeSet(Ljava/util/Comparator;)Ljava/util/TreeSet;:com/google/common/collect/Sets.newTreeSet(Ljava/util/Comparator;)Ljava/util/TreeSet;:com/google/common/collect/Sets.newTreeSet(Ljava/util/Comparator;)Ljava/util/TreeSet;:com/google/common/collect/Sets.newTreeSet(Ljava/util/Comparator;)Ljava/util/TreeSet;:com/google/common/collect/Sets.newTreeSet(Ljava/util/Comparator;)Ljava/util/TreeSet;:com/google/javascript/jscomp/BasicErrorManager$LeveledJSErrorComparator.<init>()V'
p19
I1
sS'com/google/common/collect/Sets.newTreeSet(Ljava/util/Comparator;)Ljava/util/TreeSet;:com/google/common/collect/Sets.newTreeSet(Ljava/util/Comparator;)Ljava/util/TreeSet;:com/google/common/collect/Sets.newTreeSet(Ljava/util/Comparator;)Ljava/util/TreeSet;:com/google/common/collect/Sets.newTreeSet(Ljava/util/Comparator;)Ljava/util/TreeSet;:com/google/common/collect/Sets.newTreeSet(Ljava/util/Comparator;)Ljava/util/TreeSet;:com/google/common/collect/Sets.newTreeSet(Ljava/util/Comparator;)Ljava/util/TreeSet;:com/google/common/collect/Sets.newTreeSet(Ljava/util/Comparator;)Ljava/util/TreeSet;:com/google/common/collect/Sets.newTreeSet(Ljava/util/Comparator;)Ljava/util/TreeSet;:com/google/common/collect/Sets.newTreeSet(Ljava/util/Comparator;)Ljava/util/TreeSet;:com/google/common/collect/Sets.newTreeSet(Ljava/util/Comparator;)Ljava/util/TreeSet;:com/google/common/collect/Sets.newTreeSet(Ljava/util/Comparator;)Ljava/util/TreeSet;:com/google/common/collect/Sets.newTreeSet(Ljava/util/Comparator;)Ljava/util/TreeSet;:com/google/common/collect/Sets.newTreeSet(Ljava/util/Comparator;)Ljava/util/TreeSet;:com/google/common/collect/Sets.newTreeSet(Ljava/util/Comparator;)Ljava/util/TreeSet;:com/google/common/collect/Sets.newTreeSet(Ljava/util/Comparator;)Ljava/util/TreeSet;:com/google/common/collect/Sets.newTreeSet(Ljava/util/Comparator;)Ljava/util/TreeSet;:com/google/common/collect/Sets.newTreeSet(Ljava/util/Comparator;)Ljava/util/TreeSet;:com/google/javascript/jscomp/BasicErrorManager$LeveledJSErrorComparator.<init>()V'
p20
I1
sS'com/google/common/collect/Sets.newTreeSet(Ljava/util/Comparator;)Ljava/util/TreeSet;:com/google/common/collect/Sets.newTreeSet(Ljava/util/Comparator;)Ljava/util/TreeSet;:com/google/common/collect/Sets.newTreeSet(Ljava/util/Comparator;)Ljava/util/TreeSet;:com/google/common/collect/Sets.newTreeSet(Ljava/util/Comparator;)Ljava/util/TreeSet;:com/google/common/collect/Sets.newTreeSet(Ljava/util/Comparator;)Ljava/util/TreeSet;:com/google/common/collect/Sets.newTreeSet(Ljava/util/Comparator;)Ljava/util/TreeSet;:java/lang/Object.<init>()V'
p21
I1
sS'com/google/common/collect/Sets.newTreeSet(Ljava/util/Comparator;)Ljava/util/TreeSet;:com/google/common/collect/Sets.newTreeSet(Ljava/util/Comparator;)Ljava/util/TreeSet;:com/google/common/collect/Sets.newTreeSet(Ljava/util/Comparator;)Ljava/util/TreeSet;:com/google/common/collect/Sets.newTreeSet(Ljava/util/Comparator;)Ljava/util/TreeSet;:com/google/common/collect/Sets.newTreeSet(Ljava/util/Comparator;)Ljava/util/TreeSet;:com/google/common/collect/Sets.newTreeSet(Ljava/util/Comparator;)Ljava/util/TreeSet;:com/google/common/collect/Sets.newTreeSet(Ljava/util/Comparator;)Ljava/util/TreeSet;:com/google/common/collect/Sets.newTreeSet(Ljava/util/Comparator;)Ljava/util/TreeSet;:com/google/common/collect/Sets.newTreeSet(Ljava/util/Comparator;)Ljava/util/TreeSet;:com/google/common/collect/Sets.newTreeSet(Ljava/util/Comparator;)Ljava/util/TreeSet;:com/google/common/collect/Sets.newTreeSet(Ljava/util/Comparator;)Ljava/util/TreeSet;:com/google/javascript/jscomp/BasicErrorManager$LeveledJSErrorComparator.<init>()V'
p22
I1
sS'com/google/common/collect/Sets.newTreeSet(Ljava/util/Comparator;)Ljava/util/TreeSet;:com/google/common/collect/Sets.newTreeSet(Ljava/util/Comparator;)Ljava/util/TreeSet;:com/google/common/collect/Sets.newTreeSet(Ljava/util/Comparator;)Ljava/util/TreeSet;:com/google/common/collect/Sets.newTreeSet(Ljava/util/Comparator;)Ljava/util/TreeSet;:com/google/common/collect/Sets.newTreeSet(Ljava/util/Comparator;)Ljava/util/TreeSet;:com/google/common/collect/Sets.newTreeSet(Ljava/util/Comparator;)Ljava/util/TreeSet;:com/google/common/collect/Sets.newTreeSet(Ljava/util/Comparator;)Ljava/util/TreeSet;:com/google/common/collect/Sets.newTreeSet(Ljava/util/Comparator;)Ljava/util/TreeSet;:com/google/common/collect/Sets.newTreeSet(Ljava/util/Comparator;)Ljava/util/TreeSet;:com/google/javascript/jscomp/BasicErrorManager$LeveledJSErrorComparator.<init>()V:java/lang/Object.<init>()V'
p23
I1
sS'com/google/common/collect/Sets.newTreeSet(Ljava/util/Comparator;)Ljava/util/TreeSet;:com/google/common/collect/Sets.newTreeSet(Ljava/util/Comparator;)Ljava/util/TreeSet;:com/google/javascript/jscomp/BasicErrorManager$LeveledJSErrorComparator.<init>()V'
p24
I1
sS'com/google/common/collect/Sets.newTreeSet(Ljava/util/Comparator;)Ljava/util/TreeSet;:com/google/common/collect/Sets.newTreeSet(Ljava/util/Comparator;)Ljava/util/TreeSet;:com/google/common/collect/Sets.newTreeSet(Ljava/util/Comparator;)Ljava/util/TreeSet;:com/google/common/collect/Sets.newTreeSet(Ljava/util/Comparator;)Ljava/util/TreeSet;:com/google/common/collect/Sets.newTreeSet(Ljava/util/Comparator;)Ljava/util/TreeSet;:com/google/common/collect/Sets.newTreeSet(Ljava/util/Comparator;)Ljava/util/TreeSet;:com/google/common/collect/Sets.newTreeSet(Ljava/util/Comparator;)Ljava/util/TreeSet;:com/google/common/collect/Sets.newTreeSet(Ljava/util/Comparator;)Ljava/util/TreeSet;:com/google/common/collect/Sets.newTreeSet(Ljava/util/Comparator;)Ljava/util/TreeSet;:com/google/common/collect/Sets.newTreeSet(Ljava/util/Comparator;)Ljava/util/TreeSet;:com/google/common/collect/Sets.newTreeSet(Ljava/util/Comparator;)Ljava/util/TreeSet;:com/google/common/collect/Sets.newTreeSet(Ljava/util/Comparator;)Ljava/util/TreeSet;:com/google/common/collect/Sets.newTreeSet(Ljava/util/Comparator;)Ljava/util/TreeSet;:com/google/common/collect/Sets.newTreeSet(Ljava/util/Comparator;)Ljava/util/TreeSet;:com/google/common/collect/Sets.newTreeSet(Ljava/util/Comparator;)Ljava/util/TreeSet;:com/google/common/collect/Sets.newTreeSet(Ljava/util/Comparator;)Ljava/util/TreeSet;:com/google/common/collect/Sets.newTreeSet(Ljava/util/Comparator;)Ljava/util/TreeSet;:com/google/common/collect/Sets.newTreeSet(Ljava/util/Comparator;)Ljava/util/TreeSet;:com/google/common/collect/Sets.newTreeSet(Ljava/util/Comparator;)Ljava/util/TreeSet;:com/google/javascript/jscomp/BasicErrorManager$LeveledJSErrorComparator.<init>()V:java/lang/Object.<init>()V'
p25
I1
sS'com/google/common/collect/Sets.newTreeSet(Ljava/util/Comparator;)Ljava/util/TreeSet;:com/google/common/collect/Sets.newTreeSet(Ljava/util/Comparator;)Ljava/util/TreeSet;:com/google/common/collect/Sets.newTreeSet(Ljava/util/Comparator;)Ljava/util/TreeSet;:com/google/common/collect/Sets.newTreeSet(Ljava/util/Comparator;)Ljava/util/TreeSet;:com/google/common/collect/Sets.newTreeSet(Ljava/util/Comparator;)Ljava/util/TreeSet;:com/google/common/collect/Sets.newTreeSet(Ljava/util/Comparator;)Ljava/util/TreeSet;:com/google/common/collect/Sets.newTreeSet(Ljava/util/Comparator;)Ljava/util/TreeSet;:com/google/common/collect/Sets.newTreeSet(Ljava/util/Comparator;)Ljava/util/TreeSet;:com/google/common/collect/Sets.newTreeSet(Ljava/util/Comparator;)Ljava/util/TreeSet;:com/google/common/collect/Sets.newTreeSet(Ljava/util/Comparator;)Ljava/util/TreeSet;:com/google/common/collect/Sets.newTreeSet(Ljava/util/Comparator;)Ljava/util/TreeSet;:com/google/common/collect/Sets.newTreeSet(Ljava/util/Comparator;)Ljava/util/TreeSet;:com/google/common/collect/Sets.newTreeSet(Ljava/util/Comparator;)Ljava/util/TreeSet;:com/google/common/collect/Sets.newTreeSet(Ljava/util/Comparator;)Ljava/util/TreeSet;:com/google/common/collect/Sets.newTreeSet(Ljava/util/Comparator;)Ljava/util/TreeSet;:com/google/common/collect/Sets.newTreeSet(Ljava/util/Comparator;)Ljava/util/TreeSet;:com/google/javascript/jscomp/BasicErrorManager$LeveledJSErrorComparator.<init>()V'
p26
I1
sS'com/google/common/collect/Sets.newTreeSet(Ljava/util/Comparator;)Ljava/util/TreeSet;:com/google/common/collect/Sets.newTreeSet(Ljava/util/Comparator;)Ljava/util/TreeSet;:com/google/common/collect/Sets.newTreeSet(Ljava/util/Comparator;)Ljava/util/TreeSet;:com/google/common/collect/Sets.newTreeSet(Ljava/util/Comparator;)Ljava/util/TreeSet;:com/google/common/collect/Sets.newTreeSet(Ljava/util/Comparator;)Ljava/util/TreeSet;:com/google/common/collect/Sets.newTreeSet(Ljava/util/Comparator;)Ljava/util/TreeSet;:com/google/common/collect/Sets.newTreeSet(Ljava/util/Comparator;)Ljava/util/TreeSet;'
p27
I1
sS'com/google/common/collect/Sets.newTreeSet(Ljava/util/Comparator;)Ljava/util/TreeSet;:com/google/common/collect/Sets.newTreeSet(Ljava/util/Comparator;)Ljava/util/TreeSet;:com/google/common/collect/Sets.newTreeSet(Ljava/util/Comparator;)Ljava/util/TreeSet;:com/google/common/collect/Sets.newTreeSet(Ljava/util/Comparator;)Ljava/util/TreeSet;:com/google/common/collect/Sets.newTreeSet(Ljava/util/Comparator;)Ljava/util/TreeSet;:com/google/common/collect/Sets.newTreeSet(Ljava/util/Comparator;)Ljava/util/TreeSet;:com/google/common/collect/Sets.newTreeSet(Ljava/util/Comparator;)Ljava/util/TreeSet;:com/google/common/collect/Sets.newTreeSet(Ljava/util/Comparator;)Ljava/util/TreeSet;:com/google/common/collect/Sets.newTreeSet(Ljava/util/Comparator;)Ljava/util/TreeSet;:com/google/common/collect/Sets.newTreeSet(Ljava/util/Comparator;)Ljava/util/TreeSet;:com/google/common/collect/Sets.newTreeSet(Ljava/util/Comparator;)Ljava/util/TreeSet;:com/google/javascript/jscomp/BasicErrorManager$LeveledJSErrorComparator.<init>()V:java/lang/Object.<init>()V'
p28
I1
sS'com/google/common/collect/Sets.newTreeSet(Ljava/util/Comparator;)Ljava/util/TreeSet;:com/google/common/collect/Sets.newTreeSet(Ljava/util/Comparator;)Ljava/util/TreeSet;:com/google/common/collect/Sets.newTreeSet(Ljava/util/Comparator;)Ljava/util/TreeSet;:com/google/common/collect/Sets.newTreeSet(Ljava/util/Comparator;)Ljava/util/TreeSet;:com/google/common/collect/Sets.newTreeSet(Ljava/util/Comparator;)Ljava/util/TreeSet;:com/google/common/collect/Sets.newTreeSet(Ljava/util/Comparator;)Ljava/util/TreeSet;:com/google/common/collect/Sets.newTreeSet(Ljava/util/Comparator;)Ljava/util/TreeSet;:com/google/common/collect/Sets.newTreeSet(Ljava/util/Comparator;)Ljava/util/TreeSet;:com/google/common/collect/Sets.newTreeSet(Ljava/util/Comparator;)Ljava/util/TreeSet;:com/google/common/collect/Sets.newTreeSet(Ljava/util/Comparator;)Ljava/util/TreeSet;:com/google/common/collect/Sets.newTreeSet(Ljava/util/Comparator;)Ljava/util/TreeSet;:com/google/common/collect/Sets.newTreeSet(Ljava/util/Comparator;)Ljava/util/TreeSet;'
p29
I1
sS'com/google/common/collect/Sets.newTreeSet(Ljava/util/Comparator;)Ljava/util/TreeSet;:com/google/common/collect/Sets.newTreeSet(Ljava/util/Comparator;)Ljava/util/TreeSet;:com/google/common/collect/Sets.newTreeSet(Ljava/util/Comparator;)Ljava/util/TreeSet;:com/google/javascript/jscomp/BasicErrorManager$LeveledJSErrorComparator.<init>()V'
p30
I1
sS'com/google/common/collect/Sets.newTreeSet(Ljava/util/Comparator;)Ljava/util/TreeSet;:com/google/common/collect/Sets.newTreeSet(Ljava/util/Comparator;)Ljava/util/TreeSet;:com/google/common/collect/Sets.newTreeSet(Ljava/util/Comparator;)Ljava/util/TreeSet;:com/google/common/collect/Sets.newTreeSet(Ljava/util/Comparator;)Ljava/util/TreeSet;:com/google/common/collect/Sets.newTreeSet(Ljava/util/Comparator;)Ljava/util/TreeSet;:com/google/common/collect/Sets.newTreeSet(Ljava/util/Comparator;)Ljava/util/TreeSet;:com/google/common/collect/Sets.newTreeSet(Ljava/util/Comparator;)Ljava/util/TreeSet;:com/google/common/collect/Sets.newTreeSet(Ljava/util/Comparator;)Ljava/util/TreeSet;:com/google/common/collect/Sets.newTreeSet(Ljava/util/Comparator;)Ljava/util/TreeSet;:com/google/common/collect/Sets.newTreeSet(Ljava/util/Comparator;)Ljava/util/TreeSet;:com/google/common/collect/Sets.newTreeSet(Ljava/util/Comparator;)Ljava/util/TreeSet;:com/google/common/collect/Sets.newTreeSet(Ljava/util/Comparator;)Ljava/util/TreeSet;:com/google/javascript/jscomp/BasicErrorManager$LeveledJSErrorComparator.<init>()V:java/lang/Object.<init>()V'
p31
I1
sS'com/google/common/collect/Sets.newTreeSet(Ljava/util/Comparator;)Ljava/util/TreeSet;:com/google/common/collect/Sets.newTreeSet(Ljava/util/Comparator;)Ljava/util/TreeSet;:com/google/common/collect/Sets.newTreeSet(Ljava/util/Comparator;)Ljava/util/TreeSet;:com/google/common/collect/Sets.newTreeSet(Ljava/util/Comparator;)Ljava/util/TreeSet;:com/google/common/collect/Sets.newTreeSet(Ljava/util/Comparator;)Ljava/util/TreeSet;:com/google/common/collect/Sets.newTreeSet(Ljava/util/Comparator;)Ljava/util/TreeSet;:com/google/common/collect/Sets.newTreeSet(Ljava/util/Comparator;)Ljava/util/TreeSet;:com/google/common/collect/Sets.newTreeSet(Ljava/util/Comparator;)Ljava/util/TreeSet;:com/google/common/collect/Sets.newTreeSet(Ljava/util/Comparator;)Ljava/util/TreeSet;:com/google/common/collect/Sets.newTreeSet(Ljava/util/Comparator;)Ljava/util/TreeSet;'
p32
I1
sS'com/google/common/collect/Sets.newTreeSet(Ljava/util/Comparator;)Ljava/util/TreeSet;:com/google/common/collect/Sets.newTreeSet(Ljava/util/Comparator;)Ljava/util/TreeSet;:com/google/common/collect/Sets.newTreeSet(Ljava/util/Comparator;)Ljava/util/TreeSet;:com/google/common/collect/Sets.newTreeSet(Ljava/util/Comparator;)Ljava/util/TreeSet;:com/google/common/collect/Sets.newTreeSet(Ljava/util/Comparator;)Ljava/util/TreeSet;:com/google/common/collect/Sets.newTreeSet(Ljava/util/Comparator;)Ljava/util/TreeSet;:com/google/common/collect/Sets.newTreeSet(Ljava/util/Comparator;)Ljava/util/TreeSet;:com/google/common/collect/Sets.newTreeSet(Ljava/util/Comparator;)Ljava/util/TreeSet;:com/google/common/collect/Sets.newTreeSet(Ljava/util/Comparator;)Ljava/util/TreeSet;:com/google/common/collect/Sets.newTreeSet(Ljava/util/Comparator;)Ljava/util/TreeSet;:com/google/common/collect/Sets.newTreeSet(Ljava/util/Comparator;)Ljava/util/TreeSet;:com/google/common/collect/Sets.newTreeSet(Ljava/util/Comparator;)Ljava/util/TreeSet;:com/google/common/collect/Sets.newTreeSet(Ljava/util/Comparator;)Ljava/util/TreeSet;:com/google/common/collect/Sets.newTreeSet(Ljava/util/Comparator;)Ljava/util/TreeSet;:com/google/common/collect/Sets.newTreeSet(Ljava/util/Comparator;)Ljava/util/TreeSet;:com/google/common/collect/Sets.newTreeSet(Ljava/util/Comparator;)Ljava/util/TreeSet;:com/google/common/collect/Sets.newTreeSet(Ljava/util/Comparator;)Ljava/util/TreeSet;:com/google/common/collect/Sets.newTreeSet(Ljava/util/Comparator;)Ljava/util/TreeSet;:com/google/common/collect/Sets.newTreeSet(Ljava/util/Comparator;)Ljava/util/TreeSet;:com/google/javascript/jscomp/BasicErrorManager$LeveledJSErrorComparator.<init>()V'
p33
I1
sS'com/google/common/collect/Sets.newTreeSet(Ljava/util/Comparator;)Ljava/util/TreeSet;:com/google/common/collect/Sets.newTreeSet(Ljava/util/Comparator;)Ljava/util/TreeSet;:com/google/common/collect/Sets.newTreeSet(Ljava/util/Comparator;)Ljava/util/TreeSet;:com/google/common/collect/Sets.newTreeSet(Ljava/util/Comparator;)Ljava/util/TreeSet;:com/google/common/collect/Sets.newTreeSet(Ljava/util/Comparator;)Ljava/util/TreeSet;:com/google/common/collect/Sets.newTreeSet(Ljava/util/Comparator;)Ljava/util/TreeSet;:com/google/common/collect/Sets.newTreeSet(Ljava/util/Comparator;)Ljava/util/TreeSet;:com/google/common/collect/Sets.newTreeSet(Ljava/util/Comparator;)Ljava/util/TreeSet;:com/google/common/collect/Sets.newTreeSet(Ljava/util/Comparator;)Ljava/util/TreeSet;:com/google/common/collect/Sets.newTreeSet(Ljava/util/Comparator;)Ljava/util/TreeSet;:com/google/common/collect/Sets.newTreeSet(Ljava/util/Comparator;)Ljava/util/TreeSet;:com/google/common/collect/Sets.newTreeSet(Ljava/util/Comparator;)Ljava/util/TreeSet;:com/google/common/collect/Sets.newTreeSet(Ljava/util/Comparator;)Ljava/util/TreeSet;:com/google/common/collect/Sets.newTreeSet(Ljava/util/Comparator;)Ljava/util/TreeSet;:com/google/common/collect/Sets.newTreeSet(Ljava/util/Comparator;)Ljava/util/TreeSet;:com/google/common/collect/Sets.newTreeSet(Ljava/util/Comparator;)Ljava/util/TreeSet;:com/google/common/collect/Sets.newTreeSet(Ljava/util/Comparator;)Ljava/util/TreeSet;:com/google/javascript/jscomp/BasicErrorManager$LeveledJSErrorComparator.<init>()V:java/lang/Object.<init>()V'
p34
I1
sS'com/google/common/collect/Sets.newTreeSet(Ljava/util/Comparator;)Ljava/util/TreeSet;:com/google/common/collect/Sets.newTreeSet(Ljava/util/Comparator;)Ljava/util/TreeSet;:com/google/common/collect/Sets.newTreeSet(Ljava/util/Comparator;)Ljava/util/TreeSet;:com/google/common/collect/Sets.newTreeSet(Ljava/util/Comparator;)Ljava/util/TreeSet;:com/google/javascript/jscomp/BasicErrorManager$LeveledJSErrorComparator.<init>()V'
p35
I1
sS'com/google/common/collect/Sets.newTreeSet(Ljava/util/Comparator;)Ljava/util/TreeSet;:com/google/common/collect/Sets.newTreeSet(Ljava/util/Comparator;)Ljava/util/TreeSet;:com/google/common/collect/Sets.newTreeSet(Ljava/util/Comparator;)Ljava/util/TreeSet;:com/google/common/collect/Sets.newTreeSet(Ljava/util/Comparator;)Ljava/util/TreeSet;:com/google/common/collect/Sets.newTreeSet(Ljava/util/Comparator;)Ljava/util/TreeSet;:com/google/common/collect/Sets.newTreeSet(Ljava/util/Comparator;)Ljava/util/TreeSet;:com/google/common/collect/Sets.newTreeSet(Ljava/util/Comparator;)Ljava/util/TreeSet;:com/google/common/collect/Sets.newTreeSet(Ljava/util/Comparator;)Ljava/util/TreeSet;:com/google/common/collect/Sets.newTreeSet(Ljava/util/Comparator;)Ljava/util/TreeSet;:com/google/common/collect/Sets.newTreeSet(Ljava/util/Comparator;)Ljava/util/TreeSet;:com/google/common/collect/Sets.newTreeSet(Ljava/util/Comparator;)Ljava/util/TreeSet;:com/google/common/collect/Sets.newTreeSet(Ljava/util/Comparator;)Ljava/util/TreeSet;:com/google/common/collect/Sets.newTreeSet(Ljava/util/Comparator;)Ljava/util/TreeSet;:com/google/common/collect/Sets.newTreeSet(Ljava/util/Comparator;)Ljava/util/TreeSet;:java/lang/Object.<init>()V'
p36
I1
sS'com/google/common/collect/Sets.newTreeSet(Ljava/util/Comparator;)Ljava/util/TreeSet;:com/google/common/collect/Sets.newTreeSet(Ljava/util/Comparator;)Ljava/util/TreeSet;:com/google/common/collect/Sets.newTreeSet(Ljava/util/Comparator;)Ljava/util/TreeSet;:com/google/common/collect/Sets.newTreeSet(Ljava/util/Comparator;)Ljava/util/TreeSet;:com/google/common/collect/Sets.newTreeSet(Ljava/util/Comparator;)Ljava/util/TreeSet;:com/google/common/collect/Sets.newTreeSet(Ljava/util/Comparator;)Ljava/util/TreeSet;:com/google/common/collect/Sets.newTreeSet(Ljava/util/Comparator;)Ljava/util/TreeSet;:com/google/common/collect/Sets.newTreeSet(Ljava/util/Comparator;)Ljava/util/TreeSet;:com/google/common/collect/Sets.newTreeSet(Ljava/util/Comparator;)Ljava/util/TreeSet;:com/google/common/collect/Sets.newTreeSet(Ljava/util/Comparator;)Ljava/util/TreeSet;:com/google/common/collect/Sets.newTreeSet(Ljava/util/Comparator;)Ljava/util/TreeSet;:com/google/common/collect/Sets.newTreeSet(Ljava/util/Comparator;)Ljava/util/TreeSet;:com/google/common/collect/Sets.newTreeSet(Ljava/util/Comparator;)Ljava/util/TreeSet;:com/google/common/collect/Sets.newTreeSet(Ljava/util/Comparator;)Ljava/util/TreeSet;:com/google/common/collect/Sets.newTreeSet(Ljava/util/Comparator;)Ljava/util/TreeSet;:com/google/common/collect/Sets.newTreeSet(Ljava/util/Comparator;)Ljava/util/TreeSet;:java/lang/Object.<init>()V'
p37
I1
sS'com/google/common/collect/Sets.newTreeSet(Ljava/util/Comparator;)Ljava/util/TreeSet;:com/google/common/collect/Sets.newTreeSet(Ljava/util/Comparator;)Ljava/util/TreeSet;:com/google/common/collect/Sets.newTreeSet(Ljava/util/Comparator;)Ljava/util/TreeSet;:com/google/common/collect/Sets.newTreeSet(Ljava/util/Comparator;)Ljava/util/TreeSet;:com/google/common/collect/Sets.newTreeSet(Ljava/util/Comparator;)Ljava/util/TreeSet;:com/google/common/collect/Sets.newTreeSet(Ljava/util/Comparator;)Ljava/util/TreeSet;:com/google/common/collect/Sets.newTreeSet(Ljava/util/Comparator;)Ljava/util/TreeSet;:com/google/common/collect/Sets.newTreeSet(Ljava/util/Comparator;)Ljava/util/TreeSet;:com/google/common/collect/Sets.newTreeSet(Ljava/util/Comparator;)Ljava/util/TreeSet;:com/google/common/collect/Sets.newTreeSet(Ljava/util/Comparator;)Ljava/util/TreeSet;:com/google/common/collect/Sets.newTreeSet(Ljava/util/Comparator;)Ljava/util/TreeSet;:com/google/common/collect/Sets.newTreeSet(Ljava/util/Comparator;)Ljava/util/TreeSet;:com/google/common/collect/Sets.newTreeSet(Ljava/util/Comparator;)Ljava/util/TreeSet;:com/google/common/collect/Sets.newTreeSet(Ljava/util/Comparator;)Ljava/util/TreeSet;:com/google/common/collect/Sets.newTreeSet(Ljava/util/Comparator;)Ljava/util/TreeSet;:com/google/javascript/jscomp/BasicErrorManager$LeveledJSErrorComparator.<init>()V:java/lang/Object.<init>()V'
p38
I1
sS'com/google/common/collect/Sets.newTreeSet(Ljava/util/Comparator;)Ljava/util/TreeSet;:com/google/javascript/jscomp/BasicErrorManager$LeveledJSErrorComparator.<init>()V:java/lang/Object.<init>()V'
p39
I1
sS'com/google/common/collect/Sets.newTreeSet(Ljava/util/Comparator;)Ljava/util/TreeSet;:com/google/common/collect/Sets.newTreeSet(Ljava/util/Comparator;)Ljava/util/TreeSet;:com/google/common/collect/Sets.newTreeSet(Ljava/util/Comparator;)Ljava/util/TreeSet;'
p40
I1
sS'com/google/common/collect/Sets.newTreeSet(Ljava/util/Comparator;)Ljava/util/TreeSet;:com/google/common/collect/Sets.newTreeSet(Ljava/util/Comparator;)Ljava/util/TreeSet;:com/google/common/collect/Sets.newTreeSet(Ljava/util/Comparator;)Ljava/util/TreeSet;:com/google/common/collect/Sets.newTreeSet(Ljava/util/Comparator;)Ljava/util/TreeSet;:com/google/common/collect/Sets.newTreeSet(Ljava/util/Comparator;)Ljava/util/TreeSet;:com/google/common/collect/Sets.newTreeSet(Ljava/util/Comparator;)Ljava/util/TreeSet;:com/google/common/collect/Sets.newTreeSet(Ljava/util/Comparator;)Ljava/util/TreeSet;:com/google/common/collect/Sets.newTreeSet(Ljava/util/Comparator;)Ljava/util/TreeSet;:com/google/common/collect/Sets.newTreeSet(Ljava/util/Comparator;)Ljava/util/TreeSet;:com/google/common/collect/Sets.newTreeSet(Ljava/util/Comparator;)Ljava/util/TreeSet;:com/google/common/collect/Sets.newTreeSet(Ljava/util/Comparator;)Ljava/util/TreeSet;:com/google/common/collect/Sets.newTreeSet(Ljava/util/Comparator;)Ljava/util/TreeSet;:com/google/common/collect/Sets.newTreeSet(Ljava/util/Comparator;)Ljava/util/TreeSet;:com/google/common/collect/Sets.newTreeSet(Ljava/util/Comparator;)Ljava/util/TreeSet;:com/google/common/collect/Sets.newTreeSet(Ljava/util/Comparator;)Ljava/util/TreeSet;:com/google/common/collect/Sets.newTreeSet(Ljava/util/Comparator;)Ljava/util/TreeSet;:com/google/common/collect/Sets.newTreeSet(Ljava/util/Comparator;)Ljava/util/TreeSet;:com/google/common/collect/Sets.newTreeSet(Ljava/util/Comparator;)Ljava/util/TreeSet;:com/google/common/collect/Sets.newTreeSet(Ljava/util/Comparator;)Ljava/util/TreeSet;:com/google/common/collect/Sets.newTreeSet(Ljava/util/Comparator;)Ljava/util/TreeSet;:com/google/common/collect/Sets.newTreeSet(Ljava/util/Comparator;)Ljava/util/TreeSet;:com/google/common/collect/Sets.newTreeSet(Ljava/util/Comparator;)Ljava/util/TreeSet;:com/google/common/collect/Sets.newTreeSet(Ljava/util/Comparator;)Ljava/util/TreeSet;:com/google/common/collect/Sets.newTreeSet(Ljava/util/Comparator;)Ljava/util/TreeSet;:com/google/common/collect/Sets.newTreeSet(Ljava/util/Comparator;)Ljava/util/TreeSet;:com/google/common/collect/Sets.newTreeSet(Ljava/util/Comparator;)Ljava/util/TreeSet;:com/google/common/collect/Sets.newTreeSet(Ljava/util/Comparator;)Ljava/util/TreeSet;:com/google/javascript/jscomp/BasicErrorManager$LeveledJSErrorComparator.<init>()V:java/lang/Object.<init>()V'
p41
I1
sS'com/google/common/collect/Sets.newTreeSet(Ljava/util/Comparator;)Ljava/util/TreeSet;:com/google/common/collect/Sets.newTreeSet(Ljava/util/Comparator;)Ljava/util/TreeSet;:com/google/common/collect/Sets.newTreeSet(Ljava/util/Comparator;)Ljava/util/TreeSet;:com/google/common/collect/Sets.newTreeSet(Ljava/util/Comparator;)Ljava/util/TreeSet;:com/google/common/collect/Sets.newTreeSet(Ljava/util/Comparator;)Ljava/util/TreeSet;:com/google/common/collect/Sets.newTreeSet(Ljava/util/Comparator;)Ljava/util/TreeSet;:com/google/javascript/jscomp/BasicErrorManager$LeveledJSErrorComparator.<init>()V'
p42
I1
sS'com/google/common/collect/Sets.newTreeSet(Ljava/util/Comparator;)Ljava/util/TreeSet;:com/google/common/collect/Sets.newTreeSet(Ljava/util/Comparator;)Ljava/util/TreeSet;:java/lang/Object.<init>()V'
p43
I1
sS'com/google/common/collect/Sets.newTreeSet(Ljava/util/Comparator;)Ljava/util/TreeSet;:com/google/common/collect/Sets.newTreeSet(Ljava/util/Comparator;)Ljava/util/TreeSet;:com/google/common/collect/Sets.newTreeSet(Ljava/util/Comparator;)Ljava/util/TreeSet;:com/google/common/collect/Sets.newTreeSet(Ljava/util/Comparator;)Ljava/util/TreeSet;:com/google/common/collect/Sets.newTreeSet(Ljava/util/Comparator;)Ljava/util/TreeSet;:com/google/common/collect/Sets.newTreeSet(Ljava/util/Comparator;)Ljava/util/TreeSet;:com/google/common/collect/Sets.newTreeSet(Ljava/util/Comparator;)Ljava/util/TreeSet;:com/google/common/collect/Sets.newTreeSet(Ljava/util/Comparator;)Ljava/util/TreeSet;:com/google/common/collect/Sets.newTreeSet(Ljava/util/Comparator;)Ljava/util/TreeSet;:com/google/common/collect/Sets.newTreeSet(Ljava/util/Comparator;)Ljava/util/TreeSet;:com/google/common/collect/Sets.newTreeSet(Ljava/util/Comparator;)Ljava/util/TreeSet;:com/google/common/collect/Sets.newTreeSet(Ljava/util/Comparator;)Ljava/util/TreeSet;:com/google/common/collect/Sets.newTreeSet(Ljava/util/Comparator;)Ljava/util/TreeSet;:com/google/common/collect/Sets.newTreeSet(Ljava/util/Comparator;)Ljava/util/TreeSet;:com/google/common/collect/Sets.newTreeSet(Ljava/util/Comparator;)Ljava/util/TreeSet;:com/google/common/collect/Sets.newTreeSet(Ljava/util/Comparator;)Ljava/util/TreeSet;:com/google/common/collect/Sets.newTreeSet(Ljava/util/Comparator;)Ljava/util/TreeSet;:com/google/common/collect/Sets.newTreeSet(Ljava/util/Comparator;)Ljava/util/TreeSet;:com/google/common/collect/Sets.newTreeSet(Ljava/util/Comparator;)Ljava/util/TreeSet;:com/google/common/collect/Sets.newTreeSet(Ljava/util/Comparator;)Ljava/util/TreeSet;:com/google/common/collect/Sets.newTreeSet(Ljava/util/Comparator;)Ljava/util/TreeSet;:com/google/common/collect/Sets.newTreeSet(Ljava/util/Comparator;)Ljava/util/TreeSet;'
p44
I1
sS'com/google/javascript/jscomp/BasicErrorManager$LeveledJSErrorComparator.<init>()V'
p45
I1
sS'com/google/common/collect/Sets.newTreeSet(Ljava/util/Comparator;)Ljava/util/TreeSet;:com/google/common/collect/Sets.newTreeSet(Ljava/util/Comparator;)Ljava/util/TreeSet;:com/google/common/collect/Sets.newTreeSet(Ljava/util/Comparator;)Ljava/util/TreeSet;:com/google/common/collect/Sets.newTreeSet(Ljava/util/Comparator;)Ljava/util/TreeSet;:com/google/common/collect/Sets.newTreeSet(Ljava/util/Comparator;)Ljava/util/TreeSet;:com/google/common/collect/Sets.newTreeSet(Ljava/util/Comparator;)Ljava/util/TreeSet;:com/google/common/collect/Sets.newTreeSet(Ljava/util/Comparator;)Ljava/util/TreeSet;:com/google/common/collect/Sets.newTreeSet(Ljava/util/Comparator;)Ljava/util/TreeSet;:com/google/common/collect/Sets.newTreeSet(Ljava/util/Comparator;)Ljava/util/TreeSet;:com/google/common/collect/Sets.newTreeSet(Ljava/util/Comparator;)Ljava/util/TreeSet;:com/google/common/collect/Sets.newTreeSet(Ljava/util/Comparator;)Ljava/util/TreeSet;:com/google/common/collect/Sets.newTreeSet(Ljava/util/Comparator;)Ljava/util/TreeSet;:com/google/common/collect/Sets.newTreeSet(Ljava/util/Comparator;)Ljava/util/TreeSet;:com/google/common/collect/Sets.newTreeSet(Ljava/util/Comparator;)Ljava/util/TreeSet;'
p46
I1
sS'com/google/common/collect/Sets.newTreeSet(Ljava/util/Comparator;)Ljava/util/TreeSet;:com/google/common/collect/Sets.newTreeSet(Ljava/util/Comparator;)Ljava/util/TreeSet;:com/google/common/collect/Sets.newTreeSet(Ljava/util/Comparator;)Ljava/util/TreeSet;:com/google/common/collect/Sets.newTreeSet(Ljava/util/Comparator;)Ljava/util/TreeSet;:com/google/common/collect/Sets.newTreeSet(Ljava/util/Comparator;)Ljava/util/TreeSet;:com/google/common/collect/Sets.newTreeSet(Ljava/util/Comparator;)Ljava/util/TreeSet;:com/google/common/collect/Sets.newTreeSet(Ljava/util/Comparator;)Ljava/util/TreeSet;:com/google/common/collect/Sets.newTreeSet(Ljava/util/Comparator;)Ljava/util/TreeSet;:com/google/common/collect/Sets.newTreeSet(Ljava/util/Comparator;)Ljava/util/TreeSet;:com/google/common/collect/Sets.newTreeSet(Ljava/util/Comparator;)Ljava/util/TreeSet;:java/lang/Object.<init>()V'
p47
I1
sS'com/google/common/collect/Sets.newTreeSet(Ljava/util/Comparator;)Ljava/util/TreeSet;:com/google/common/collect/Sets.newTreeSet(Ljava/util/Comparator;)Ljava/util/TreeSet;:com/google/common/collect/Sets.newTreeSet(Ljava/util/Comparator;)Ljava/util/TreeSet;:com/google/common/collect/Sets.newTreeSet(Ljava/util/Comparator;)Ljava/util/TreeSet;:com/google/javascript/jscomp/BasicErrorManager$LeveledJSErrorComparator.<init>()V:java/lang/Object.<init>()V'
p48
I1
sS'com/google/common/collect/Sets.newTreeSet(Ljava/util/Comparator;)Ljava/util/TreeSet;:com/google/common/collect/Sets.newTreeSet(Ljava/util/Comparator;)Ljava/util/TreeSet;:com/google/common/collect/Sets.newTreeSet(Ljava/util/Comparator;)Ljava/util/TreeSet;:com/google/common/collect/Sets.newTreeSet(Ljava/util/Comparator;)Ljava/util/TreeSet;:com/google/common/collect/Sets.newTreeSet(Ljava/util/Comparator;)Ljava/util/TreeSet;:com/google/common/collect/Sets.newTreeSet(Ljava/util/Comparator;)Ljava/util/TreeSet;:com/google/common/collect/Sets.newTreeSet(Ljava/util/Comparator;)Ljava/util/TreeSet;:com/google/common/collect/Sets.newTreeSet(Ljava/util/Comparator;)Ljava/util/TreeSet;:com/google/common/collect/Sets.newTreeSet(Ljava/util/Comparator;)Ljava/util/TreeSet;:com/google/common/collect/Sets.newTreeSet(Ljava/util/Comparator;)Ljava/util/TreeSet;:com/google/common/collect/Sets.newTreeSet(Ljava/util/Comparator;)Ljava/util/TreeSet;:com/google/common/collect/Sets.newTreeSet(Ljava/util/Comparator;)Ljava/util/TreeSet;:com/google/common/collect/Sets.newTreeSet(Ljava/util/Comparator;)Ljava/util/TreeSet;:com/google/common/collect/Sets.newTreeSet(Ljava/util/Comparator;)Ljava/util/TreeSet;:com/google/common/collect/Sets.newTreeSet(Ljava/util/Comparator;)Ljava/util/TreeSet;:com/google/common/collect/Sets.newTreeSet(Ljava/util/Comparator;)Ljava/util/TreeSet;:com/google/common/collect/Sets.newTreeSet(Ljava/util/Comparator;)Ljava/util/TreeSet;:com/google/common/collect/Sets.newTreeSet(Ljava/util/Comparator;)Ljava/util/TreeSet;:com/google/common/collect/Sets.newTreeSet(Ljava/util/Comparator;)Ljava/util/TreeSet;:com/google/common/collect/Sets.newTreeSet(Ljava/util/Comparator;)Ljava/util/TreeSet;:com/google/common/collect/Sets.newTreeSet(Ljava/util/Comparator;)Ljava/util/TreeSet;:com/google/common/collect/Sets.newTreeSet(Ljava/util/Comparator;)Ljava/util/TreeSet;:com/google/common/collect/Sets.newTreeSet(Ljava/util/Comparator;)Ljava/util/TreeSet;:com/google/common/collect/Sets.newTreeSet(Ljava/util/Comparator;)Ljava/util/TreeSet;'
p49
I1
sS'com/google/common/collect/Sets.newTreeSet(Ljava/util/Comparator;)Ljava/util/TreeSet;:com/google/common/collect/Sets.newTreeSet(Ljava/util/Comparator;)Ljava/util/TreeSet;:com/google/common/collect/Sets.newTreeSet(Ljava/util/Comparator;)Ljava/util/TreeSet;:com/google/common/collect/Sets.newTreeSet(Ljava/util/Comparator;)Ljava/util/TreeSet;:com/google/common/collect/Sets.newTreeSet(Ljava/util/Comparator;)Ljava/util/TreeSet;:com/google/common/collect/Sets.newTreeSet(Ljava/util/Comparator;)Ljava/util/TreeSet;:com/google/common/collect/Sets.newTreeSet(Ljava/util/Comparator;)Ljava/util/TreeSet;:com/google/common/collect/Sets.newTreeSet(Ljava/util/Comparator;)Ljava/util/TreeSet;:com/google/common/collect/Sets.newTreeSet(Ljava/util/Comparator;)Ljava/util/TreeSet;:com/google/common/collect/Sets.newTreeSet(Ljava/util/Comparator;)Ljava/util/TreeSet;:com/google/common/collect/Sets.newTreeSet(Ljava/util/Comparator;)Ljava/util/TreeSet;:com/google/common/collect/Sets.newTreeSet(Ljava/util/Comparator;)Ljava/util/TreeSet;:com/google/common/collect/Sets.newTreeSet(Ljava/util/Comparator;)Ljava/util/TreeSet;:com/google/common/collect/Sets.newTreeSet(Ljava/util/Comparator;)Ljava/util/TreeSet;:com/google/common/collect/Sets.newTreeSet(Ljava/util/Comparator;)Ljava/util/TreeSet;:com/google/common/collect/Sets.newTreeSet(Ljava/util/Comparator;)Ljava/util/TreeSet;:com/google/common/collect/Sets.newTreeSet(Ljava/util/Comparator;)Ljava/util/TreeSet;:com/google/common/collect/Sets.newTreeSet(Ljava/util/Comparator;)Ljava/util/TreeSet;:com/google/common/collect/Sets.newTreeSet(Ljava/util/Comparator;)Ljava/util/TreeSet;:com/google/common/collect/Sets.newTreeSet(Ljava/util/Comparator;)Ljava/util/TreeSet;:com/google/javascript/jscomp/BasicErrorManager$LeveledJSErrorComparator.<init>()V'
p50
I1
sS'com/google/common/collect/Sets.newTreeSet(Ljava/util/Comparator;)Ljava/util/TreeSet;:com/google/common/collect/Sets.newTreeSet(Ljava/util/Comparator;)Ljava/util/TreeSet;:com/google/common/collect/Sets.newTreeSet(Ljava/util/Comparator;)Ljava/util/TreeSet;:com/google/common/collect/Sets.newTreeSet(Ljava/util/Comparator;)Ljava/util/TreeSet;:com/google/common/collect/Sets.newTreeSet(Ljava/util/Comparator;)Ljava/util/TreeSet;:com/google/common/collect/Sets.newTreeSet(Ljava/util/Comparator;)Ljava/util/TreeSet;:com/google/common/collect/Sets.newTreeSet(Ljava/util/Comparator;)Ljava/util/TreeSet;:com/google/javascript/jscomp/BasicErrorManager$LeveledJSErrorComparator.<init>()V:java/lang/Object.<init>()V'
p51
I1
sS'com/google/common/collect/Sets.newTreeSet(Ljava/util/Comparator;)Ljava/util/TreeSet;:com/google/common/collect/Sets.newTreeSet(Ljava/util/Comparator;)Ljava/util/TreeSet;:com/google/common/collect/Sets.newTreeSet(Ljava/util/Comparator;)Ljava/util/TreeSet;:com/google/common/collect/Sets.newTreeSet(Ljava/util/Comparator;)Ljava/util/TreeSet;:com/google/common/collect/Sets.newTreeSet(Ljava/util/Comparator;)Ljava/util/TreeSet;:com/google/common/collect/Sets.newTreeSet(Ljava/util/Comparator;)Ljava/util/TreeSet;:com/google/common/collect/Sets.newTreeSet(Ljava/util/Comparator;)Ljava/util/TreeSet;:com/google/common/collect/Sets.newTreeSet(Ljava/util/Comparator;)Ljava/util/TreeSet;:com/google/common/collect/Sets.newTreeSet(Ljava/util/Comparator;)Ljava/util/TreeSet;:com/google/common/collect/Sets.newTreeSet(Ljava/util/Comparator;)Ljava/util/TreeSet;:com/google/common/collect/Sets.newTreeSet(Ljava/util/Comparator;)Ljava/util/TreeSet;:com/google/common/collect/Sets.newTreeSet(Ljava/util/Comparator;)Ljava/util/TreeSet;:java/lang/Object.<init>()V'
p52
I1
sS'com/google/common/collect/Sets.newTreeSet(Ljava/util/Comparator;)Ljava/util/TreeSet;:com/google/common/collect/Sets.newTreeSet(Ljava/util/Comparator;)Ljava/util/TreeSet;:com/google/common/collect/Sets.newTreeSet(Ljava/util/Comparator;)Ljava/util/TreeSet;:java/lang/Object.<init>()V'
p53
I1
sS'com/google/common/collect/Sets.newTreeSet(Ljava/util/Comparator;)Ljava/util/TreeSet;:com/google/common/collect/Sets.newTreeSet(Ljava/util/Comparator;)Ljava/util/TreeSet;:com/google/common/collect/Sets.newTreeSet(Ljava/util/Comparator;)Ljava/util/TreeSet;:com/google/common/collect/Sets.newTreeSet(Ljava/util/Comparator;)Ljava/util/TreeSet;:com/google/common/collect/Sets.newTreeSet(Ljava/util/Comparator;)Ljava/util/TreeSet;:com/google/common/collect/Sets.newTreeSet(Ljava/util/Comparator;)Ljava/util/TreeSet;:com/google/common/collect/Sets.newTreeSet(Ljava/util/Comparator;)Ljava/util/TreeSet;:com/google/common/collect/Sets.newTreeSet(Ljava/util/Comparator;)Ljava/util/TreeSet;:com/google/common/collect/Sets.newTreeSet(Ljava/util/Comparator;)Ljava/util/TreeSet;:com/google/common/collect/Sets.newTreeSet(Ljava/util/Comparator;)Ljava/util/TreeSet;:com/google/common/collect/Sets.newTreeSet(Ljava/util/Comparator;)Ljava/util/TreeSet;:com/google/common/collect/Sets.newTreeSet(Ljava/util/Comparator;)Ljava/util/TreeSet;:com/google/common/collect/Sets.newTreeSet(Ljava/util/Comparator;)Ljava/util/TreeSet;:com/google/common/collect/Sets.newTreeSet(Ljava/util/Comparator;)Ljava/util/TreeSet;:com/google/common/collect/Sets.newTreeSet(Ljava/util/Comparator;)Ljava/util/TreeSet;:com/google/common/collect/Sets.newTreeSet(Ljava/util/Comparator;)Ljava/util/TreeSet;:com/google/common/collect/Sets.newTreeSet(Ljava/util/Comparator;)Ljava/util/TreeSet;'
p54
I1
sS'com/google/common/collect/Sets.newTreeSet(Ljava/util/Comparator;)Ljava/util/TreeSet;:com/google/common/collect/Sets.newTreeSet(Ljava/util/Comparator;)Ljava/util/TreeSet;:com/google/common/collect/Sets.newTreeSet(Ljava/util/Comparator;)Ljava/util/TreeSet;:com/google/common/collect/Sets.newTreeSet(Ljava/util/Comparator;)Ljava/util/TreeSet;:com/google/common/collect/Sets.newTreeSet(Ljava/util/Comparator;)Ljava/util/TreeSet;:com/google/common/collect/Sets.newTreeSet(Ljava/util/Comparator;)Ljava/util/TreeSet;:com/google/common/collect/Sets.newTreeSet(Ljava/util/Comparator;)Ljava/util/TreeSet;:com/google/common/collect/Sets.newTreeSet(Ljava/util/Comparator;)Ljava/util/TreeSet;:com/google/common/collect/Sets.newTreeSet(Ljava/util/Comparator;)Ljava/util/TreeSet;:com/google/common/collect/Sets.newTreeSet(Ljava/util/Comparator;)Ljava/util/TreeSet;:com/google/common/collect/Sets.newTreeSet(Ljava/util/Comparator;)Ljava/util/TreeSet;:com/google/common/collect/Sets.newTreeSet(Ljava/util/Comparator;)Ljava/util/TreeSet;:com/google/common/collect/Sets.newTreeSet(Ljava/util/Comparator;)Ljava/util/TreeSet;:com/google/common/collect/Sets.newTreeSet(Ljava/util/Comparator;)Ljava/util/TreeSet;:com/google/common/collect/Sets.newTreeSet(Ljava/util/Comparator;)Ljava/util/TreeSet;:com/google/common/collect/Sets.newTreeSet(Ljava/util/Comparator;)Ljava/util/TreeSet;:com/google/common/collect/Sets.newTreeSet(Ljava/util/Comparator;)Ljava/util/TreeSet;:com/google/common/collect/Sets.newTreeSet(Ljava/util/Comparator;)Ljava/util/TreeSet;:com/google/common/collect/Sets.newTreeSet(Ljava/util/Comparator;)Ljava/util/TreeSet;:com/google/common/collect/Sets.newTreeSet(Ljava/util/Comparator;)Ljava/util/TreeSet;:com/google/common/collect/Sets.newTreeSet(Ljava/util/Comparator;)Ljava/util/TreeSet;:com/google/common/collect/Sets.newTreeSet(Ljava/util/Comparator;)Ljava/util/TreeSet;:com/google/common/collect/Sets.newTreeSet(Ljava/util/Comparator;)Ljava/util/TreeSet;:com/google/common/collect/Sets.newTreeSet(Ljava/util/Comparator;)Ljava/util/TreeSet;:com/google/common/collect/Sets.newTreeSet(Ljava/util/Comparator;)Ljava/util/TreeSet;:com/google/common/collect/Sets.newTreeSet(Ljava/util/Comparator;)Ljava/util/TreeSet;:com/google/common/collect/Sets.newTreeSet(Ljava/util/Comparator;)Ljava/util/TreeSet;:java/lang/Object.<init>()V'
p55
I1
sS'com/google/common/collect/Sets.newTreeSet(Ljava/util/Comparator;)Ljava/util/TreeSet;:com/google/common/collect/Sets.newTreeSet(Ljava/util/Comparator;)Ljava/util/TreeSet;:com/google/common/collect/Sets.newTreeSet(Ljava/util/Comparator;)Ljava/util/TreeSet;:com/google/common/collect/Sets.newTreeSet(Ljava/util/Comparator;)Ljava/util/TreeSet;:com/google/common/collect/Sets.newTreeSet(Ljava/util/Comparator;)Ljava/util/TreeSet;:com/google/common/collect/Sets.newTreeSet(Ljava/util/Comparator;)Ljava/util/TreeSet;:com/google/common/collect/Sets.newTreeSet(Ljava/util/Comparator;)Ljava/util/TreeSet;:com/google/common/collect/Sets.newTreeSet(Ljava/util/Comparator;)Ljava/util/TreeSet;:com/google/common/collect/Sets.newTreeSet(Ljava/util/Comparator;)Ljava/util/TreeSet;:com/google/common/collect/Sets.newTreeSet(Ljava/util/Comparator;)Ljava/util/TreeSet;:com/google/common/collect/Sets.newTreeSet(Ljava/util/Comparator;)Ljava/util/TreeSet;:com/google/common/collect/Sets.newTreeSet(Ljava/util/Comparator;)Ljava/util/TreeSet;:com/google/common/collect/Sets.newTreeSet(Ljava/util/Comparator;)Ljava/util/TreeSet;:com/google/common/collect/Sets.newTreeSet(Ljava/util/Comparator;)Ljava/util/TreeSet;:com/google/common/collect/Sets.newTreeSet(Ljava/util/Comparator;)Ljava/util/TreeSet;:com/google/common/collect/Sets.newTreeSet(Ljava/util/Comparator;)Ljava/util/TreeSet;:com/google/common/collect/Sets.newTreeSet(Ljava/util/Comparator;)Ljava/util/TreeSet;:com/google/common/collect/Sets.newTreeSet(Ljava/util/Comparator;)Ljava/util/TreeSet;'
p56
I1
sS'com/google/common/collect/Sets.newTreeSet(Ljava/util/Comparator;)Ljava/util/TreeSet;:com/google/common/collect/Sets.newTreeSet(Ljava/util/Comparator;)Ljava/util/TreeSet;:com/google/common/collect/Sets.newTreeSet(Ljava/util/Comparator;)Ljava/util/TreeSet;:com/google/common/collect/Sets.newTreeSet(Ljava/util/Comparator;)Ljava/util/TreeSet;:com/google/common/collect/Sets.newTreeSet(Ljava/util/Comparator;)Ljava/util/TreeSet;:com/google/javascript/jscomp/BasicErrorManager$LeveledJSErrorComparator.<init>()V'
p57
I1
sS'com/google/common/collect/Sets.newTreeSet(Ljava/util/Comparator;)Ljava/util/TreeSet;:com/google/common/collect/Sets.newTreeSet(Ljava/util/Comparator;)Ljava/util/TreeSet;:com/google/common/collect/Sets.newTreeSet(Ljava/util/Comparator;)Ljava/util/TreeSet;:com/google/common/collect/Sets.newTreeSet(Ljava/util/Comparator;)Ljava/util/TreeSet;:com/google/common/collect/Sets.newTreeSet(Ljava/util/Comparator;)Ljava/util/TreeSet;:com/google/common/collect/Sets.newTreeSet(Ljava/util/Comparator;)Ljava/util/TreeSet;:com/google/common/collect/Sets.newTreeSet(Ljava/util/Comparator;)Ljava/util/TreeSet;:com/google/common/collect/Sets.newTreeSet(Ljava/util/Comparator;)Ljava/util/TreeSet;:com/google/common/collect/Sets.newTreeSet(Ljava/util/Comparator;)Ljava/util/TreeSet;:com/google/common/collect/Sets.newTreeSet(Ljava/util/Comparator;)Ljava/util/TreeSet;:com/google/common/collect/Sets.newTreeSet(Ljava/util/Comparator;)Ljava/util/TreeSet;:com/google/common/collect/Sets.newTreeSet(Ljava/util/Comparator;)Ljava/util/TreeSet;:com/google/common/collect/Sets.newTreeSet(Ljava/util/Comparator;)Ljava/util/TreeSet;:com/google/common/collect/Sets.newTreeSet(Ljava/util/Comparator;)Ljava/util/TreeSet;:com/google/common/collect/Sets.newTreeSet(Ljava/util/Comparator;)Ljava/util/TreeSet;:com/google/common/collect/Sets.newTreeSet(Ljava/util/Comparator;)Ljava/util/TreeSet;:com/google/common/collect/Sets.newTreeSet(Ljava/util/Comparator;)Ljava/util/TreeSet;:com/google/common/collect/Sets.newTreeSet(Ljava/util/Comparator;)Ljava/util/TreeSet;:com/google/common/collect/Sets.newTreeSet(Ljava/util/Comparator;)Ljava/util/TreeSet;:com/google/common/collect/Sets.newTreeSet(Ljava/util/Comparator;)Ljava/util/TreeSet;:com/google/common/collect/Sets.newTreeSet(Ljava/util/Comparator;)Ljava/util/TreeSet;:com/google/common/collect/Sets.newTreeSet(Ljava/util/Comparator;)Ljava/util/TreeSet;:com/google/common/collect/Sets.newTreeSet(Ljava/util/Comparator;)Ljava/util/TreeSet;:com/google/common/collect/Sets.newTreeSet(Ljava/util/Comparator;)Ljava/util/TreeSet;:java/lang/Object.<init>()V'
p58
I1
sS'com/google/common/collect/Sets.newTreeSet(Ljava/util/Comparator;)Ljava/util/TreeSet;:com/google/common/collect/Sets.newTreeSet(Ljava/util/Comparator;)Ljava/util/TreeSet;:com/google/common/collect/Sets.newTreeSet(Ljava/util/Comparator;)Ljava/util/TreeSet;:com/google/javascript/jscomp/BasicErrorManager$LeveledJSErrorComparator.<init>()V:java/lang/Object.<init>()V'
p59
I1
sS'com/google/common/collect/Sets.newTreeSet(Ljava/util/Comparator;)Ljava/util/TreeSet;:com/google/javascript/jscomp/BasicErrorManager$LeveledJSErrorComparator.<init>()V'
p60
I1
sS'com/google/common/collect/Sets.newTreeSet(Ljava/util/Comparator;)Ljava/util/TreeSet;:com/google/common/collect/Sets.newTreeSet(Ljava/util/Comparator;)Ljava/util/TreeSet;:com/google/common/collect/Sets.newTreeSet(Ljava/util/Comparator;)Ljava/util/TreeSet;:com/google/common/collect/Sets.newTreeSet(Ljava/util/Comparator;)Ljava/util/TreeSet;:com/google/common/collect/Sets.newTreeSet(Ljava/util/Comparator;)Ljava/util/TreeSet;:com/google/common/collect/Sets.newTreeSet(Ljava/util/Comparator;)Ljava/util/TreeSet;:com/google/common/collect/Sets.newTreeSet(Ljava/util/Comparator;)Ljava/util/TreeSet;:com/google/common/collect/Sets.newTreeSet(Ljava/util/Comparator;)Ljava/util/TreeSet;:com/google/javascript/jscomp/BasicErrorManager$LeveledJSErrorComparator.<init>()V'
p61
I1
sS'com/google/common/collect/Sets.newTreeSet(Ljava/util/Comparator;)Ljava/util/TreeSet;:com/google/common/collect/Sets.newTreeSet(Ljava/util/Comparator;)Ljava/util/TreeSet;:com/google/common/collect/Sets.newTreeSet(Ljava/util/Comparator;)Ljava/util/TreeSet;:com/google/common/collect/Sets.newTreeSet(Ljava/util/Comparator;)Ljava/util/TreeSet;:com/google/common/collect/Sets.newTreeSet(Ljava/util/Comparator;)Ljava/util/TreeSet;:com/google/common/collect/Sets.newTreeSet(Ljava/util/Comparator;)Ljava/util/TreeSet;:com/google/common/collect/Sets.newTreeSet(Ljava/util/Comparator;)Ljava/util/TreeSet;:com/google/common/collect/Sets.newTreeSet(Ljava/util/Comparator;)Ljava/util/TreeSet;:com/google/common/collect/Sets.newTreeSet(Ljava/util/Comparator;)Ljava/util/TreeSet;:com/google/common/collect/Sets.newTreeSet(Ljava/util/Comparator;)Ljava/util/TreeSet;:com/google/common/collect/Sets.newTreeSet(Ljava/util/Comparator;)Ljava/util/TreeSet;:com/google/common/collect/Sets.newTreeSet(Ljava/util/Comparator;)Ljava/util/TreeSet;:com/google/common/collect/Sets.newTreeSet(Ljava/util/Comparator;)Ljava/util/TreeSet;:com/google/common/collect/Sets.newTreeSet(Ljava/util/Comparator;)Ljava/util/TreeSet;:com/google/common/collect/Sets.newTreeSet(Ljava/util/Comparator;)Ljava/util/TreeSet;:com/google/common/collect/Sets.newTreeSet(Ljava/util/Comparator;)Ljava/util/TreeSet;:com/google/common/collect/Sets.newTreeSet(Ljava/util/Comparator;)Ljava/util/TreeSet;:com/google/common/collect/Sets.newTreeSet(Ljava/util/Comparator;)Ljava/util/TreeSet;:com/google/common/collect/Sets.newTreeSet(Ljava/util/Comparator;)Ljava/util/TreeSet;:com/google/common/collect/Sets.newTreeSet(Ljava/util/Comparator;)Ljava/util/TreeSet;:com/google/common/collect/Sets.newTreeSet(Ljava/util/Comparator;)Ljava/util/TreeSet;:com/google/common/collect/Sets.newTreeSet(Ljava/util/Comparator;)Ljava/util/TreeSet;:com/google/common/collect/Sets.newTreeSet(Ljava/util/Comparator;)Ljava/util/TreeSet;:com/google/common/collect/Sets.newTreeSet(Ljava/util/Comparator;)Ljava/util/TreeSet;:com/google/common/collect/Sets.newTreeSet(Ljava/util/Comparator;)Ljava/util/TreeSet;:com/google/common/collect/Sets.newTreeSet(Ljava/util/Comparator;)Ljava/util/TreeSet;:com/google/javascript/jscomp/BasicErrorManager$LeveledJSErrorComparator.<init>()V'
p62
I1
sS'com/google/common/collect/Sets.newTreeSet(Ljava/util/Comparator;)Ljava/util/TreeSet;:com/google/common/collect/Sets.newTreeSet(Ljava/util/Comparator;)Ljava/util/TreeSet;:com/google/common/collect/Sets.newTreeSet(Ljava/util/Comparator;)Ljava/util/TreeSet;:com/google/common/collect/Sets.newTreeSet(Ljava/util/Comparator;)Ljava/util/TreeSet;:com/google/common/collect/Sets.newTreeSet(Ljava/util/Comparator;)Ljava/util/TreeSet;:com/google/common/collect/Sets.newTreeSet(Ljava/util/Comparator;)Ljava/util/TreeSet;:com/google/common/collect/Sets.newTreeSet(Ljava/util/Comparator;)Ljava/util/TreeSet;:com/google/common/collect/Sets.newTreeSet(Ljava/util/Comparator;)Ljava/util/TreeSet;:com/google/common/collect/Sets.newTreeSet(Ljava/util/Comparator;)Ljava/util/TreeSet;:com/google/common/collect/Sets.newTreeSet(Ljava/util/Comparator;)Ljava/util/TreeSet;:com/google/common/collect/Sets.newTreeSet(Ljava/util/Comparator;)Ljava/util/TreeSet;:java/lang/Object.<init>()V'
p63
I1
sS'com/google/common/collect/Sets.newTreeSet(Ljava/util/Comparator;)Ljava/util/TreeSet;:com/google/common/collect/Sets.newTreeSet(Ljava/util/Comparator;)Ljava/util/TreeSet;:com/google/common/collect/Sets.newTreeSet(Ljava/util/Comparator;)Ljava/util/TreeSet;:com/google/common/collect/Sets.newTreeSet(Ljava/util/Comparator;)Ljava/util/TreeSet;:com/google/common/collect/Sets.newTreeSet(Ljava/util/Comparator;)Ljava/util/TreeSet;:com/google/common/collect/Sets.newTreeSet(Ljava/util/Comparator;)Ljava/util/TreeSet;:com/google/common/collect/Sets.newTreeSet(Ljava/util/Comparator;)Ljava/util/TreeSet;:com/google/common/collect/Sets.newTreeSet(Ljava/util/Comparator;)Ljava/util/TreeSet;:com/google/common/collect/Sets.newTreeSet(Ljava/util/Comparator;)Ljava/util/TreeSet;:com/google/common/collect/Sets.newTreeSet(Ljava/util/Comparator;)Ljava/util/TreeSet;:com/google/common/collect/Sets.newTreeSet(Ljava/util/Comparator;)Ljava/util/TreeSet;:com/google/common/collect/Sets.newTreeSet(Ljava/util/Comparator;)Ljava/util/TreeSet;:com/google/common/collect/Sets.newTreeSet(Ljava/util/Comparator;)Ljava/util/TreeSet;:com/google/common/collect/Sets.newTreeSet(Ljava/util/Comparator;)Ljava/util/TreeSet;:com/google/common/collect/Sets.newTreeSet(Ljava/util/Comparator;)Ljava/util/TreeSet;:com/google/common/collect/Sets.newTreeSet(Ljava/util/Comparator;)Ljava/util/TreeSet;:com/google/common/collect/Sets.newTreeSet(Ljava/util/Comparator;)Ljava/util/TreeSet;:com/google/common/collect/Sets.newTreeSet(Ljava/util/Comparator;)Ljava/util/TreeSet;:com/google/common/collect/Sets.newTreeSet(Ljava/util/Comparator;)Ljava/util/TreeSet;:com/google/common/collect/Sets.newTreeSet(Ljava/util/Comparator;)Ljava/util/TreeSet;:com/google/common/collect/Sets.newTreeSet(Ljava/util/Comparator;)Ljava/util/TreeSet;:com/google/common/collect/Sets.newTreeSet(Ljava/util/Comparator;)Ljava/util/TreeSet;:com/google/common/collect/Sets.newTreeSet(Ljava/util/Comparator;)Ljava/util/TreeSet;:com/google/common/collect/Sets.newTreeSet(Ljava/util/Comparator;)Ljava/util/TreeSet;:com/google/common/collect/Sets.newTreeSet(Ljava/util/Comparator;)Ljava/util/TreeSet;'
p64
I1
sS'com/google/common/collect/Sets.newTreeSet(Ljava/util/Comparator;)Ljava/util/TreeSet;:com/google/common/collect/Sets.newTreeSet(Ljava/util/Comparator;)Ljava/util/TreeSet;:com/google/common/collect/Sets.newTreeSet(Ljava/util/Comparator;)Ljava/util/TreeSet;:com/google/common/collect/Sets.newTreeSet(Ljava/util/Comparator;)Ljava/util/TreeSet;:com/google/common/collect/Sets.newTreeSet(Ljava/util/Comparator;)Ljava/util/TreeSet;:com/google/common/collect/Sets.newTreeSet(Ljava/util/Comparator;)Ljava/util/TreeSet;:com/google/common/collect/Sets.newTreeSet(Ljava/util/Comparator;)Ljava/util/TreeSet;:com/google/common/collect/Sets.newTreeSet(Ljava/util/Comparator;)Ljava/util/TreeSet;:com/google/common/collect/Sets.newTreeSet(Ljava/util/Comparator;)Ljava/util/TreeSet;:com/google/common/collect/Sets.newTreeSet(Ljava/util/Comparator;)Ljava/util/TreeSet;:com/google/common/collect/Sets.newTreeSet(Ljava/util/Comparator;)Ljava/util/TreeSet;:com/google/common/collect/Sets.newTreeSet(Ljava/util/Comparator;)Ljava/util/TreeSet;:com/google/common/collect/Sets.newTreeSet(Ljava/util/Comparator;)Ljava/util/TreeSet;:com/google/common/collect/Sets.newTreeSet(Ljava/util/Comparator;)Ljava/util/TreeSet;:com/google/common/collect/Sets.newTreeSet(Ljava/util/Comparator;)Ljava/util/TreeSet;:com/google/common/collect/Sets.newTreeSet(Ljava/util/Comparator;)Ljava/util/TreeSet;:com/google/common/collect/Sets.newTreeSet(Ljava/util/Comparator;)Ljava/util/TreeSet;:com/google/common/collect/Sets.newTreeSet(Ljava/util/Comparator;)Ljava/util/TreeSet;:com/google/common/collect/Sets.newTreeSet(Ljava/util/Comparator;)Ljava/util/TreeSet;:com/google/common/collect/Sets.newTreeSet(Ljava/util/Comparator;)Ljava/util/TreeSet;:com/google/common/collect/Sets.newTreeSet(Ljava/util/Comparator;)Ljava/util/TreeSet;:com/google/common/collect/Sets.newTreeSet(Ljava/util/Comparator;)Ljava/util/TreeSet;:java/lang/Object.<init>()V'
p65
I1
sS'com/google/common/collect/Sets.newTreeSet(Ljava/util/Comparator;)Ljava/util/TreeSet;:com/google/common/collect/Sets.newTreeSet(Ljava/util/Comparator;)Ljava/util/TreeSet;:com/google/common/collect/Sets.newTreeSet(Ljava/util/Comparator;)Ljava/util/TreeSet;:com/google/common/collect/Sets.newTreeSet(Ljava/util/Comparator;)Ljava/util/TreeSet;:com/google/common/collect/Sets.newTreeSet(Ljava/util/Comparator;)Ljava/util/TreeSet;:com/google/common/collect/Sets.newTreeSet(Ljava/util/Comparator;)Ljava/util/TreeSet;:com/google/common/collect/Sets.newTreeSet(Ljava/util/Comparator;)Ljava/util/TreeSet;:com/google/common/collect/Sets.newTreeSet(Ljava/util/Comparator;)Ljava/util/TreeSet;:com/google/javascript/jscomp/BasicErrorManager$LeveledJSErrorComparator.<init>()V:java/lang/Object.<init>()V'
p66
I1
sS'com/google/common/collect/Sets.newTreeSet(Ljava/util/Comparator;)Ljava/util/TreeSet;'
p67
I1
sS'com/google/common/collect/Sets.newTreeSet(Ljava/util/Comparator;)Ljava/util/TreeSet;:com/google/common/collect/Sets.newTreeSet(Ljava/util/Comparator;)Ljava/util/TreeSet;:com/google/common/collect/Sets.newTreeSet(Ljava/util/Comparator;)Ljava/util/TreeSet;:com/google/common/collect/Sets.newTreeSet(Ljava/util/Comparator;)Ljava/util/TreeSet;:com/google/common/collect/Sets.newTreeSet(Ljava/util/Comparator;)Ljava/util/TreeSet;:com/google/common/collect/Sets.newTreeSet(Ljava/util/Comparator;)Ljava/util/TreeSet;:com/google/common/collect/Sets.newTreeSet(Ljava/util/Comparator;)Ljava/util/TreeSet;:com/google/common/collect/Sets.newTreeSet(Ljava/util/Comparator;)Ljava/util/TreeSet;:com/google/common/collect/Sets.newTreeSet(Ljava/util/Comparator;)Ljava/util/TreeSet;:com/google/common/collect/Sets.newTreeSet(Ljava/util/Comparator;)Ljava/util/TreeSet;:com/google/common/collect/Sets.newTreeSet(Ljava/util/Comparator;)Ljava/util/TreeSet;:com/google/common/collect/Sets.newTreeSet(Ljava/util/Comparator;)Ljava/util/TreeSet;:com/google/common/collect/Sets.newTreeSet(Ljava/util/Comparator;)Ljava/util/TreeSet;:com/google/common/collect/Sets.newTreeSet(Ljava/util/Comparator;)Ljava/util/TreeSet;:com/google/common/collect/Sets.newTreeSet(Ljava/util/Comparator;)Ljava/util/TreeSet;:com/google/common/collect/Sets.newTreeSet(Ljava/util/Comparator;)Ljava/util/TreeSet;:com/google/common/collect/Sets.newTreeSet(Ljava/util/Comparator;)Ljava/util/TreeSet;:com/google/common/collect/Sets.newTreeSet(Ljava/util/Comparator;)Ljava/util/TreeSet;:com/google/common/collect/Sets.newTreeSet(Ljava/util/Comparator;)Ljava/util/TreeSet;:com/google/common/collect/Sets.newTreeSet(Ljava/util/Comparator;)Ljava/util/TreeSet;:com/google/common/collect/Sets.newTreeSet(Ljava/util/Comparator;)Ljava/util/TreeSet;:com/google/common/collect/Sets.newTreeSet(Ljava/util/Comparator;)Ljava/util/TreeSet;:com/google/common/collect/Sets.newTreeSet(Ljava/util/Comparator;)Ljava/util/TreeSet;:com/google/common/collect/Sets.newTreeSet(Ljava/util/Comparator;)Ljava/util/TreeSet;:com/google/common/collect/Sets.newTreeSet(Ljava/util/Comparator;)Ljava/util/TreeSet;:com/google/common/collect/Sets.newTreeSet(Ljava/util/Comparator;)Ljava/util/TreeSet;:java/lang/Object.<init>()V'
p68
I1
sS'com/google/common/collect/Sets.newTreeSet(Ljava/util/Comparator;)Ljava/util/TreeSet;:com/google/common/collect/Sets.newTreeSet(Ljava/util/Comparator;)Ljava/util/TreeSet;:com/google/common/collect/Sets.newTreeSet(Ljava/util/Comparator;)Ljava/util/TreeSet;:com/google/common/collect/Sets.newTreeSet(Ljava/util/Comparator;)Ljava/util/TreeSet;:com/google/common/collect/Sets.newTreeSet(Ljava/util/Comparator;)Ljava/util/TreeSet;:com/google/common/collect/Sets.newTreeSet(Ljava/util/Comparator;)Ljava/util/TreeSet;:com/google/common/collect/Sets.newTreeSet(Ljava/util/Comparator;)Ljava/util/TreeSet;:com/google/common/collect/Sets.newTreeSet(Ljava/util/Comparator;)Ljava/util/TreeSet;:com/google/common/collect/Sets.newTreeSet(Ljava/util/Comparator;)Ljava/util/TreeSet;:com/google/common/collect/Sets.newTreeSet(Ljava/util/Comparator;)Ljava/util/TreeSet;:com/google/common/collect/Sets.newTreeSet(Ljava/util/Comparator;)Ljava/util/TreeSet;'
p69
I1
sS'com/google/common/collect/Sets.newTreeSet(Ljava/util/Comparator;)Ljava/util/TreeSet;:com/google/common/collect/Sets.newTreeSet(Ljava/util/Comparator;)Ljava/util/TreeSet;:com/google/common/collect/Sets.newTreeSet(Ljava/util/Comparator;)Ljava/util/TreeSet;:com/google/common/collect/Sets.newTreeSet(Ljava/util/Comparator;)Ljava/util/TreeSet;:com/google/common/collect/Sets.newTreeSet(Ljava/util/Comparator;)Ljava/util/TreeSet;:com/google/common/collect/Sets.newTreeSet(Ljava/util/Comparator;)Ljava/util/TreeSet;:com/google/common/collect/Sets.newTreeSet(Ljava/util/Comparator;)Ljava/util/TreeSet;:com/google/common/collect/Sets.newTreeSet(Ljava/util/Comparator;)Ljava/util/TreeSet;:com/google/common/collect/Sets.newTreeSet(Ljava/util/Comparator;)Ljava/util/TreeSet;:com/google/common/collect/Sets.newTreeSet(Ljava/util/Comparator;)Ljava/util/TreeSet;:com/google/common/collect/Sets.newTreeSet(Ljava/util/Comparator;)Ljava/util/TreeSet;:com/google/common/collect/Sets.newTreeSet(Ljava/util/Comparator;)Ljava/util/TreeSet;:com/google/common/collect/Sets.newTreeSet(Ljava/util/Comparator;)Ljava/util/TreeSet;:com/google/common/collect/Sets.newTreeSet(Ljava/util/Comparator;)Ljava/util/TreeSet;:com/google/common/collect/Sets.newTreeSet(Ljava/util/Comparator;)Ljava/util/TreeSet;:com/google/common/collect/Sets.newTreeSet(Ljava/util/Comparator;)Ljava/util/TreeSet;:com/google/common/collect/Sets.newTreeSet(Ljava/util/Comparator;)Ljava/util/TreeSet;:com/google/common/collect/Sets.newTreeSet(Ljava/util/Comparator;)Ljava/util/TreeSet;:com/google/common/collect/Sets.newTreeSet(Ljava/util/Comparator;)Ljava/util/TreeSet;:com/google/common/collect/Sets.newTreeSet(Ljava/util/Comparator;)Ljava/util/TreeSet;:com/google/common/collect/Sets.newTreeSet(Ljava/util/Comparator;)Ljava/util/TreeSet;:com/google/common/collect/Sets.newTreeSet(Ljava/util/Comparator;)Ljava/util/TreeSet;:com/google/common/collect/Sets.newTreeSet(Ljava/util/Comparator;)Ljava/util/TreeSet;:com/google/common/collect/Sets.newTreeSet(Ljava/util/Comparator;)Ljava/util/TreeSet;:com/google/common/collect/Sets.newTreeSet(Ljava/util/Comparator;)Ljava/util/TreeSet;:com/google/common/collect/Sets.newTreeSet(Ljava/util/Comparator;)Ljava/util/TreeSet;:com/google/common/collect/Sets.newTreeSet(Ljava/util/Comparator;)Ljava/util/TreeSet;:com/google/common/collect/Sets.newTreeSet(Ljava/util/Comparator;)Ljava/util/TreeSet;'
p70
I1
sS'com/google/common/collect/Sets.newTreeSet(Ljava/util/Comparator;)Ljava/util/TreeSet;:com/google/common/collect/Sets.newTreeSet(Ljava/util/Comparator;)Ljava/util/TreeSet;'
p71
I1
sS'com/google/common/collect/Sets.newTreeSet(Ljava/util/Comparator;)Ljava/util/TreeSet;:com/google/common/collect/Sets.newTreeSet(Ljava/util/Comparator;)Ljava/util/TreeSet;:com/google/common/collect/Sets.newTreeSet(Ljava/util/Comparator;)Ljava/util/TreeSet;:com/google/common/collect/Sets.newTreeSet(Ljava/util/Comparator;)Ljava/util/TreeSet;:com/google/common/collect/Sets.newTreeSet(Ljava/util/Comparator;)Ljava/util/TreeSet;:com/google/common/collect/Sets.newTreeSet(Ljava/util/Comparator;)Ljava/util/TreeSet;:com/google/common/collect/Sets.newTreeSet(Ljava/util/Comparator;)Ljava/util/TreeSet;:com/google/common/collect/Sets.newTreeSet(Ljava/util/Comparator;)Ljava/util/TreeSet;:com/google/common/collect/Sets.newTreeSet(Ljava/util/Comparator;)Ljava/util/TreeSet;:com/google/common/collect/Sets.newTreeSet(Ljava/util/Comparator;)Ljava/util/TreeSet;:com/google/javascript/jscomp/BasicErrorManager$LeveledJSErrorComparator.<init>()V:java/lang/Object.<init>()V'
p72
I1
sS'com/google/common/collect/Sets.newTreeSet(Ljava/util/Comparator;)Ljava/util/TreeSet;:com/google/common/collect/Sets.newTreeSet(Ljava/util/Comparator;)Ljava/util/TreeSet;:com/google/common/collect/Sets.newTreeSet(Ljava/util/Comparator;)Ljava/util/TreeSet;:com/google/common/collect/Sets.newTreeSet(Ljava/util/Comparator;)Ljava/util/TreeSet;:com/google/common/collect/Sets.newTreeSet(Ljava/util/Comparator;)Ljava/util/TreeSet;:com/google/common/collect/Sets.newTreeSet(Ljava/util/Comparator;)Ljava/util/TreeSet;:com/google/common/collect/Sets.newTreeSet(Ljava/util/Comparator;)Ljava/util/TreeSet;:com/google/common/collect/Sets.newTreeSet(Ljava/util/Comparator;)Ljava/util/TreeSet;:com/google/common/collect/Sets.newTreeSet(Ljava/util/Comparator;)Ljava/util/TreeSet;:com/google/common/collect/Sets.newTreeSet(Ljava/util/Comparator;)Ljava/util/TreeSet;:com/google/common/collect/Sets.newTreeSet(Ljava/util/Comparator;)Ljava/util/TreeSet;:com/google/common/collect/Sets.newTreeSet(Ljava/util/Comparator;)Ljava/util/TreeSet;:com/google/common/collect/Sets.newTreeSet(Ljava/util/Comparator;)Ljava/util/TreeSet;:com/google/common/collect/Sets.newTreeSet(Ljava/util/Comparator;)Ljava/util/TreeSet;:com/google/common/collect/Sets.newTreeSet(Ljava/util/Comparator;)Ljava/util/TreeSet;:com/google/common/collect/Sets.newTreeSet(Ljava/util/Comparator;)Ljava/util/TreeSet;:com/google/common/collect/Sets.newTreeSet(Ljava/util/Comparator;)Ljava/util/TreeSet;:com/google/common/collect/Sets.newTreeSet(Ljava/util/Comparator;)Ljava/util/TreeSet;:com/google/common/collect/Sets.newTreeSet(Ljava/util/Comparator;)Ljava/util/TreeSet;:com/google/common/collect/Sets.newTreeSet(Ljava/util/Comparator;)Ljava/util/TreeSet;:com/google/common/collect/Sets.newTreeSet(Ljava/util/Comparator;)Ljava/util/TreeSet;:com/google/javascript/jscomp/BasicErrorManager$LeveledJSErrorComparator.<init>()V:java/lang/Object.<init>()V'
p73
I1
sS'com/google/common/collect/Sets.newTreeSet(Ljava/util/Comparator;)Ljava/util/TreeSet;:com/google/common/collect/Sets.newTreeSet(Ljava/util/Comparator;)Ljava/util/TreeSet;:com/google/common/collect/Sets.newTreeSet(Ljava/util/Comparator;)Ljava/util/TreeSet;:com/google/common/collect/Sets.newTreeSet(Ljava/util/Comparator;)Ljava/util/TreeSet;:com/google/common/collect/Sets.newTreeSet(Ljava/util/Comparator;)Ljava/util/TreeSet;:com/google/common/collect/Sets.newTreeSet(Ljava/util/Comparator;)Ljava/util/TreeSet;:com/google/common/collect/Sets.newTreeSet(Ljava/util/Comparator;)Ljava/util/TreeSet;:com/google/common/collect/Sets.newTreeSet(Ljava/util/Comparator;)Ljava/util/TreeSet;:com/google/common/collect/Sets.newTreeSet(Ljava/util/Comparator;)Ljava/util/TreeSet;:com/google/common/collect/Sets.newTreeSet(Ljava/util/Comparator;)Ljava/util/TreeSet;:com/google/common/collect/Sets.newTreeSet(Ljava/util/Comparator;)Ljava/util/TreeSet;:com/google/common/collect/Sets.newTreeSet(Ljava/util/Comparator;)Ljava/util/TreeSet;:com/google/common/collect/Sets.newTreeSet(Ljava/util/Comparator;)Ljava/util/TreeSet;:com/google/common/collect/Sets.newTreeSet(Ljava/util/Comparator;)Ljava/util/TreeSet;:com/google/common/collect/Sets.newTreeSet(Ljava/util/Comparator;)Ljava/util/TreeSet;:com/google/common/collect/Sets.newTreeSet(Ljava/util/Comparator;)Ljava/util/TreeSet;:com/google/common/collect/Sets.newTreeSet(Ljava/util/Comparator;)Ljava/util/TreeSet;:com/google/common/collect/Sets.newTreeSet(Ljava/util/Comparator;)Ljava/util/TreeSet;:com/google/common/collect/Sets.newTreeSet(Ljava/util/Comparator;)Ljava/util/TreeSet;:com/google/common/collect/Sets.newTreeSet(Ljava/util/Comparator;)Ljava/util/TreeSet;:com/google/common/collect/Sets.newTreeSet(Ljava/util/Comparator;)Ljava/util/TreeSet;:com/google/javascript/jscomp/BasicErrorManager$LeveledJSErrorComparator.<init>()V'
p74
I1
sS'com/google/common/collect/Sets.newTreeSet(Ljava/util/Comparator;)Ljava/util/TreeSet;:com/google/common/collect/Sets.newTreeSet(Ljava/util/Comparator;)Ljava/util/TreeSet;:com/google/common/collect/Sets.newTreeSet(Ljava/util/Comparator;)Ljava/util/TreeSet;:com/google/common/collect/Sets.newTreeSet(Ljava/util/Comparator;)Ljava/util/TreeSet;:com/google/common/collect/Sets.newTreeSet(Ljava/util/Comparator;)Ljava/util/TreeSet;:com/google/common/collect/Sets.newTreeSet(Ljava/util/Comparator;)Ljava/util/TreeSet;:com/google/common/collect/Sets.newTreeSet(Ljava/util/Comparator;)Ljava/util/TreeSet;:com/google/common/collect/Sets.newTreeSet(Ljava/util/Comparator;)Ljava/util/TreeSet;:com/google/common/collect/Sets.newTreeSet(Ljava/util/Comparator;)Ljava/util/TreeSet;:com/google/common/collect/Sets.newTreeSet(Ljava/util/Comparator;)Ljava/util/TreeSet;:com/google/common/collect/Sets.newTreeSet(Ljava/util/Comparator;)Ljava/util/TreeSet;:com/google/common/collect/Sets.newTreeSet(Ljava/util/Comparator;)Ljava/util/TreeSet;:com/google/common/collect/Sets.newTreeSet(Ljava/util/Comparator;)Ljava/util/TreeSet;:com/google/common/collect/Sets.newTreeSet(Ljava/util/Comparator;)Ljava/util/TreeSet;:com/google/common/collect/Sets.newTreeSet(Ljava/util/Comparator;)Ljava/util/TreeSet;:com/google/javascript/jscomp/BasicErrorManager$LeveledJSErrorComparator.<init>()V'
p75
I1
sS'com/google/common/collect/Sets.newTreeSet(Ljava/util/Comparator;)Ljava/util/TreeSet;:com/google/common/collect/Sets.newTreeSet(Ljava/util/Comparator;)Ljava/util/TreeSet;:com/google/common/collect/Sets.newTreeSet(Ljava/util/Comparator;)Ljava/util/TreeSet;:com/google/common/collect/Sets.newTreeSet(Ljava/util/Comparator;)Ljava/util/TreeSet;:com/google/common/collect/Sets.newTreeSet(Ljava/util/Comparator;)Ljava/util/TreeSet;:com/google/common/collect/Sets.newTreeSet(Ljava/util/Comparator;)Ljava/util/TreeSet;:com/google/common/collect/Sets.newTreeSet(Ljava/util/Comparator;)Ljava/util/TreeSet;:com/google/common/collect/Sets.newTreeSet(Ljava/util/Comparator;)Ljava/util/TreeSet;:com/google/common/collect/Sets.newTreeSet(Ljava/util/Comparator;)Ljava/util/TreeSet;:com/google/common/collect/Sets.newTreeSet(Ljava/util/Comparator;)Ljava/util/TreeSet;:com/google/common/collect/Sets.newTreeSet(Ljava/util/Comparator;)Ljava/util/TreeSet;:com/google/common/collect/Sets.newTreeSet(Ljava/util/Comparator;)Ljava/util/TreeSet;:com/google/common/collect/Sets.newTreeSet(Ljava/util/Comparator;)Ljava/util/TreeSet;:com/google/common/collect/Sets.newTreeSet(Ljava/util/Comparator;)Ljava/util/TreeSet;:com/google/common/collect/Sets.newTreeSet(Ljava/util/Comparator;)Ljava/util/TreeSet;:com/google/common/collect/Sets.newTreeSet(Ljava/util/Comparator;)Ljava/util/TreeSet;:com/google/common/collect/Sets.newTreeSet(Ljava/util/Comparator;)Ljava/util/TreeSet;:com/google/common/collect/Sets.newTreeSet(Ljava/util/Comparator;)Ljava/util/TreeSet;:com/google/common/collect/Sets.newTreeSet(Ljava/util/Comparator;)Ljava/util/TreeSet;:com/google/common/collect/Sets.newTreeSet(Ljava/util/Comparator;)Ljava/util/TreeSet;'
p76
I1
sS'com/google/common/collect/Sets.newTreeSet(Ljava/util/Comparator;)Ljava/util/TreeSet;:com/google/common/collect/Sets.newTreeSet(Ljava/util/Comparator;)Ljava/util/TreeSet;:com/google/common/collect/Sets.newTreeSet(Ljava/util/Comparator;)Ljava/util/TreeSet;:com/google/common/collect/Sets.newTreeSet(Ljava/util/Comparator;)Ljava/util/TreeSet;:com/google/common/collect/Sets.newTreeSet(Ljava/util/Comparator;)Ljava/util/TreeSet;:com/google/common/collect/Sets.newTreeSet(Ljava/util/Comparator;)Ljava/util/TreeSet;:com/google/common/collect/Sets.newTreeSet(Ljava/util/Comparator;)Ljava/util/TreeSet;:com/google/common/collect/Sets.newTreeSet(Ljava/util/Comparator;)Ljava/util/TreeSet;:com/google/common/collect/Sets.newTreeSet(Ljava/util/Comparator;)Ljava/util/TreeSet;:java/lang/Object.<init>()V'
p77
I1
sS'com/google/common/collect/Sets.newTreeSet(Ljava/util/Comparator;)Ljava/util/TreeSet;:com/google/common/collect/Sets.newTreeSet(Ljava/util/Comparator;)Ljava/util/TreeSet;:com/google/common/collect/Sets.newTreeSet(Ljava/util/Comparator;)Ljava/util/TreeSet;:com/google/common/collect/Sets.newTreeSet(Ljava/util/Comparator;)Ljava/util/TreeSet;:com/google/common/collect/Sets.newTreeSet(Ljava/util/Comparator;)Ljava/util/TreeSet;:com/google/common/collect/Sets.newTreeSet(Ljava/util/Comparator;)Ljava/util/TreeSet;:com/google/common/collect/Sets.newTreeSet(Ljava/util/Comparator;)Ljava/util/TreeSet;:com/google/common/collect/Sets.newTreeSet(Ljava/util/Comparator;)Ljava/util/TreeSet;:com/google/common/collect/Sets.newTreeSet(Ljava/util/Comparator;)Ljava/util/TreeSet;:com/google/common/collect/Sets.newTreeSet(Ljava/util/Comparator;)Ljava/util/TreeSet;:com/google/common/collect/Sets.newTreeSet(Ljava/util/Comparator;)Ljava/util/TreeSet;:com/google/common/collect/Sets.newTreeSet(Ljava/util/Comparator;)Ljava/util/TreeSet;:com/google/common/collect/Sets.newTreeSet(Ljava/util/Comparator;)Ljava/util/TreeSet;:com/google/common/collect/Sets.newTreeSet(Ljava/util/Comparator;)Ljava/util/TreeSet;:com/google/common/collect/Sets.newTreeSet(Ljava/util/Comparator;)Ljava/util/TreeSet;:com/google/common/collect/Sets.newTreeSet(Ljava/util/Comparator;)Ljava/util/TreeSet;:com/google/common/collect/Sets.newTreeSet(Ljava/util/Comparator;)Ljava/util/TreeSet;:com/google/common/collect/Sets.newTreeSet(Ljava/util/Comparator;)Ljava/util/TreeSet;:com/google/common/collect/Sets.newTreeSet(Ljava/util/Comparator;)Ljava/util/TreeSet;:com/google/common/collect/Sets.newTreeSet(Ljava/util/Comparator;)Ljava/util/TreeSet;:com/google/common/collect/Sets.newTreeSet(Ljava/util/Comparator;)Ljava/util/TreeSet;:com/google/common/collect/Sets.newTreeSet(Ljava/util/Comparator;)Ljava/util/TreeSet;:com/google/common/collect/Sets.newTreeSet(Ljava/util/Comparator;)Ljava/util/TreeSet;:com/google/common/collect/Sets.newTreeSet(Ljava/util/Comparator;)Ljava/util/TreeSet;:com/google/common/collect/Sets.newTreeSet(Ljava/util/Comparator;)Ljava/util/TreeSet;:java/lang/Object.<init>()V'
p78
I1
sS'com/google/common/collect/Sets.newTreeSet(Ljava/util/Comparator;)Ljava/util/TreeSet;:com/google/common/collect/Sets.newTreeSet(Ljava/util/Comparator;)Ljava/util/TreeSet;:com/google/common/collect/Sets.newTreeSet(Ljava/util/Comparator;)Ljava/util/TreeSet;:com/google/common/collect/Sets.newTreeSet(Ljava/util/Comparator;)Ljava/util/TreeSet;:com/google/common/collect/Sets.newTreeSet(Ljava/util/Comparator;)Ljava/util/TreeSet;:com/google/common/collect/Sets.newTreeSet(Ljava/util/Comparator;)Ljava/util/TreeSet;:com/google/common/collect/Sets.newTreeSet(Ljava/util/Comparator;)Ljava/util/TreeSet;:com/google/common/collect/Sets.newTreeSet(Ljava/util/Comparator;)Ljava/util/TreeSet;:com/google/common/collect/Sets.newTreeSet(Ljava/util/Comparator;)Ljava/util/TreeSet;:com/google/common/collect/Sets.newTreeSet(Ljava/util/Comparator;)Ljava/util/TreeSet;:com/google/common/collect/Sets.newTreeSet(Ljava/util/Comparator;)Ljava/util/TreeSet;:com/google/common/collect/Sets.newTreeSet(Ljava/util/Comparator;)Ljava/util/TreeSet;:com/google/common/collect/Sets.newTreeSet(Ljava/util/Comparator;)Ljava/util/TreeSet;:com/google/common/collect/Sets.newTreeSet(Ljava/util/Comparator;)Ljava/util/TreeSet;:com/google/common/collect/Sets.newTreeSet(Ljava/util/Comparator;)Ljava/util/TreeSet;:com/google/common/collect/Sets.newTreeSet(Ljava/util/Comparator;)Ljava/util/TreeSet;:com/google/common/collect/Sets.newTreeSet(Ljava/util/Comparator;)Ljava/util/TreeSet;:com/google/common/collect/Sets.newTreeSet(Ljava/util/Comparator;)Ljava/util/TreeSet;:com/google/common/collect/Sets.newTreeSet(Ljava/util/Comparator;)Ljava/util/TreeSet;'
p79
I1
sS'java/lang/Object.<init>()V'
p80
I1
sS'com/google/common/collect/Sets.newTreeSet(Ljava/util/Comparator;)Ljava/util/TreeSet;:com/google/common/collect/Sets.newTreeSet(Ljava/util/Comparator;)Ljava/util/TreeSet;:com/google/common/collect/Sets.newTreeSet(Ljava/util/Comparator;)Ljava/util/TreeSet;:com/google/common/collect/Sets.newTreeSet(Ljava/util/Comparator;)Ljava/util/TreeSet;:com/google/common/collect/Sets.newTreeSet(Ljava/util/Comparator;)Ljava/util/TreeSet;:com/google/common/collect/Sets.newTreeSet(Ljava/util/Comparator;)Ljava/util/TreeSet;:com/google/javascript/jscomp/BasicErrorManager$LeveledJSErrorComparator.<init>()V:java/lang/Object.<init>()V'
p81
I1
sS'com/google/common/collect/Sets.newTreeSet(Ljava/util/Comparator;)Ljava/util/TreeSet;:com/google/common/collect/Sets.newTreeSet(Ljava/util/Comparator;)Ljava/util/TreeSet;:com/google/common/collect/Sets.newTreeSet(Ljava/util/Comparator;)Ljava/util/TreeSet;:com/google/common/collect/Sets.newTreeSet(Ljava/util/Comparator;)Ljava/util/TreeSet;:com/google/common/collect/Sets.newTreeSet(Ljava/util/Comparator;)Ljava/util/TreeSet;:java/lang/Object.<init>()V'
p82
I1
sS'com/google/common/collect/Sets.newTreeSet(Ljava/util/Comparator;)Ljava/util/TreeSet;:com/google/common/collect/Sets.newTreeSet(Ljava/util/Comparator;)Ljava/util/TreeSet;:com/google/common/collect/Sets.newTreeSet(Ljava/util/Comparator;)Ljava/util/TreeSet;:com/google/common/collect/Sets.newTreeSet(Ljava/util/Comparator;)Ljava/util/TreeSet;:com/google/common/collect/Sets.newTreeSet(Ljava/util/Comparator;)Ljava/util/TreeSet;:com/google/common/collect/Sets.newTreeSet(Ljava/util/Comparator;)Ljava/util/TreeSet;:com/google/common/collect/Sets.newTreeSet(Ljava/util/Comparator;)Ljava/util/TreeSet;:com/google/common/collect/Sets.newTreeSet(Ljava/util/Comparator;)Ljava/util/TreeSet;:com/google/common/collect/Sets.newTreeSet(Ljava/util/Comparator;)Ljava/util/TreeSet;:com/google/common/collect/Sets.newTreeSet(Ljava/util/Comparator;)Ljava/util/TreeSet;:com/google/javascript/jscomp/BasicErrorManager$LeveledJSErrorComparator.<init>()V'
p83
I1
sS'com/google/common/collect/Sets.newTreeSet(Ljava/util/Comparator;)Ljava/util/TreeSet;:com/google/common/collect/Sets.newTreeSet(Ljava/util/Comparator;)Ljava/util/TreeSet;:com/google/common/collect/Sets.newTreeSet(Ljava/util/Comparator;)Ljava/util/TreeSet;:com/google/common/collect/Sets.newTreeSet(Ljava/util/Comparator;)Ljava/util/TreeSet;:com/google/common/collect/Sets.newTreeSet(Ljava/util/Comparator;)Ljava/util/TreeSet;:com/google/common/collect/Sets.newTreeSet(Ljava/util/Comparator;)Ljava/util/TreeSet;:com/google/common/collect/Sets.newTreeSet(Ljava/util/Comparator;)Ljava/util/TreeSet;:java/lang/Object.<init>()V'
p84
I1
sS'com/google/common/collect/Sets.newTreeSet(Ljava/util/Comparator;)Ljava/util/TreeSet;:com/google/common/collect/Sets.newTreeSet(Ljava/util/Comparator;)Ljava/util/TreeSet;:com/google/common/collect/Sets.newTreeSet(Ljava/util/Comparator;)Ljava/util/TreeSet;:com/google/common/collect/Sets.newTreeSet(Ljava/util/Comparator;)Ljava/util/TreeSet;:com/google/common/collect/Sets.newTreeSet(Ljava/util/Comparator;)Ljava/util/TreeSet;:com/google/common/collect/Sets.newTreeSet(Ljava/util/Comparator;)Ljava/util/TreeSet;:com/google/common/collect/Sets.newTreeSet(Ljava/util/Comparator;)Ljava/util/TreeSet;:com/google/common/collect/Sets.newTreeSet(Ljava/util/Comparator;)Ljava/util/TreeSet;:com/google/common/collect/Sets.newTreeSet(Ljava/util/Comparator;)Ljava/util/TreeSet;:com/google/common/collect/Sets.newTreeSet(Ljava/util/Comparator;)Ljava/util/TreeSet;:com/google/common/collect/Sets.newTreeSet(Ljava/util/Comparator;)Ljava/util/TreeSet;:com/google/common/collect/Sets.newTreeSet(Ljava/util/Comparator;)Ljava/util/TreeSet;:com/google/common/collect/Sets.newTreeSet(Ljava/util/Comparator;)Ljava/util/TreeSet;:com/google/common/collect/Sets.newTreeSet(Ljava/util/Comparator;)Ljava/util/TreeSet;:com/google/common/collect/Sets.newTreeSet(Ljava/util/Comparator;)Ljava/util/TreeSet;:com/google/common/collect/Sets.newTreeSet(Ljava/util/Comparator;)Ljava/util/TreeSet;:com/google/common/collect/Sets.newTreeSet(Ljava/util/Comparator;)Ljava/util/TreeSet;:java/lang/Object.<init>()V'
p85
I1
sS'com/google/common/collect/Sets.newTreeSet(Ljava/util/Comparator;)Ljava/util/TreeSet;:com/google/common/collect/Sets.newTreeSet(Ljava/util/Comparator;)Ljava/util/TreeSet;:com/google/common/collect/Sets.newTreeSet(Ljava/util/Comparator;)Ljava/util/TreeSet;:com/google/common/collect/Sets.newTreeSet(Ljava/util/Comparator;)Ljava/util/TreeSet;:com/google/common/collect/Sets.newTreeSet(Ljava/util/Comparator;)Ljava/util/TreeSet;:com/google/common/collect/Sets.newTreeSet(Ljava/util/Comparator;)Ljava/util/TreeSet;:com/google/common/collect/Sets.newTreeSet(Ljava/util/Comparator;)Ljava/util/TreeSet;:com/google/common/collect/Sets.newTreeSet(Ljava/util/Comparator;)Ljava/util/TreeSet;:com/google/common/collect/Sets.newTreeSet(Ljava/util/Comparator;)Ljava/util/TreeSet;:com/google/common/collect/Sets.newTreeSet(Ljava/util/Comparator;)Ljava/util/TreeSet;:com/google/common/collect/Sets.newTreeSet(Ljava/util/Comparator;)Ljava/util/TreeSet;:com/google/common/collect/Sets.newTreeSet(Ljava/util/Comparator;)Ljava/util/TreeSet;:com/google/common/collect/Sets.newTreeSet(Ljava/util/Comparator;)Ljava/util/TreeSet;:com/google/common/collect/Sets.newTreeSet(Ljava/util/Comparator;)Ljava/util/TreeSet;:com/google/common/collect/Sets.newTreeSet(Ljava/util/Comparator;)Ljava/util/TreeSet;:com/google/common/collect/Sets.newTreeSet(Ljava/util/Comparator;)Ljava/util/TreeSet;:com/google/common/collect/Sets.newTreeSet(Ljava/util/Comparator;)Ljava/util/TreeSet;:com/google/common/collect/Sets.newTreeSet(Ljava/util/Comparator;)Ljava/util/TreeSet;:com/google/common/collect/Sets.newTreeSet(Ljava/util/Comparator;)Ljava/util/TreeSet;:com/google/common/collect/Sets.newTreeSet(Ljava/util/Comparator;)Ljava/util/TreeSet;:com/google/common/collect/Sets.newTreeSet(Ljava/util/Comparator;)Ljava/util/TreeSet;:com/google/common/collect/Sets.newTreeSet(Ljava/util/Comparator;)Ljava/util/TreeSet;:com/google/common/collect/Sets.newTreeSet(Ljava/util/Comparator;)Ljava/util/TreeSet;:com/google/common/collect/Sets.newTreeSet(Ljava/util/Comparator;)Ljava/util/TreeSet;:com/google/common/collect/Sets.newTreeSet(Ljava/util/Comparator;)Ljava/util/TreeSet;:com/google/common/collect/Sets.newTreeSet(Ljava/util/Comparator;)Ljava/util/TreeSet;:com/google/javascript/jscomp/BasicErrorManager$LeveledJSErrorComparator.<init>()V:java/lang/Object.<init>()V'
p86
I1
sS'com/google/common/collect/Sets.newTreeSet(Ljava/util/Comparator;)Ljava/util/TreeSet;:com/google/common/collect/Sets.newTreeSet(Ljava/util/Comparator;)Ljava/util/TreeSet;:com/google/common/collect/Sets.newTreeSet(Ljava/util/Comparator;)Ljava/util/TreeSet;:com/google/common/collect/Sets.newTreeSet(Ljava/util/Comparator;)Ljava/util/TreeSet;:com/google/common/collect/Sets.newTreeSet(Ljava/util/Comparator;)Ljava/util/TreeSet;'
p87
I1
sS'com/google/common/collect/Sets.newTreeSet(Ljava/util/Comparator;)Ljava/util/TreeSet;:com/google/common/collect/Sets.newTreeSet(Ljava/util/Comparator;)Ljava/util/TreeSet;:com/google/common/collect/Sets.newTreeSet(Ljava/util/Comparator;)Ljava/util/TreeSet;:com/google/common/collect/Sets.newTreeSet(Ljava/util/Comparator;)Ljava/util/TreeSet;:com/google/common/collect/Sets.newTreeSet(Ljava/util/Comparator;)Ljava/util/TreeSet;:com/google/common/collect/Sets.newTreeSet(Ljava/util/Comparator;)Ljava/util/TreeSet;:com/google/common/collect/Sets.newTreeSet(Ljava/util/Comparator;)Ljava/util/TreeSet;:com/google/common/collect/Sets.newTreeSet(Ljava/util/Comparator;)Ljava/util/TreeSet;:com/google/common/collect/Sets.newTreeSet(Ljava/util/Comparator;)Ljava/util/TreeSet;:com/google/common/collect/Sets.newTreeSet(Ljava/util/Comparator;)Ljava/util/TreeSet;:com/google/common/collect/Sets.newTreeSet(Ljava/util/Comparator;)Ljava/util/TreeSet;:com/google/common/collect/Sets.newTreeSet(Ljava/util/Comparator;)Ljava/util/TreeSet;:com/google/common/collect/Sets.newTreeSet(Ljava/util/Comparator;)Ljava/util/TreeSet;:com/google/common/collect/Sets.newTreeSet(Ljava/util/Comparator;)Ljava/util/TreeSet;:com/google/common/collect/Sets.newTreeSet(Ljava/util/Comparator;)Ljava/util/TreeSet;:com/google/common/collect/Sets.newTreeSet(Ljava/util/Comparator;)Ljava/util/TreeSet;:com/google/common/collect/Sets.newTreeSet(Ljava/util/Comparator;)Ljava/util/TreeSet;:com/google/common/collect/Sets.newTreeSet(Ljava/util/Comparator;)Ljava/util/TreeSet;:com/google/javascript/jscomp/BasicErrorManager$LeveledJSErrorComparator.<init>()V:java/lang/Object.<init>()V'
p88
I1
sS'com/google/common/collect/Sets.newTreeSet(Ljava/util/Comparator;)Ljava/util/TreeSet;:com/google/common/collect/Sets.newTreeSet(Ljava/util/Comparator;)Ljava/util/TreeSet;:com/google/common/collect/Sets.newTreeSet(Ljava/util/Comparator;)Ljava/util/TreeSet;:com/google/common/collect/Sets.newTreeSet(Ljava/util/Comparator;)Ljava/util/TreeSet;:com/google/common/collect/Sets.newTreeSet(Ljava/util/Comparator;)Ljava/util/TreeSet;:com/google/common/collect/Sets.newTreeSet(Ljava/util/Comparator;)Ljava/util/TreeSet;:com/google/common/collect/Sets.newTreeSet(Ljava/util/Comparator;)Ljava/util/TreeSet;:com/google/common/collect/Sets.newTreeSet(Ljava/util/Comparator;)Ljava/util/TreeSet;:com/google/common/collect/Sets.newTreeSet(Ljava/util/Comparator;)Ljava/util/TreeSet;:com/google/common/collect/Sets.newTreeSet(Ljava/util/Comparator;)Ljava/util/TreeSet;:com/google/common/collect/Sets.newTreeSet(Ljava/util/Comparator;)Ljava/util/TreeSet;:com/google/common/collect/Sets.newTreeSet(Ljava/util/Comparator;)Ljava/util/TreeSet;:com/google/common/collect/Sets.newTreeSet(Ljava/util/Comparator;)Ljava/util/TreeSet;:com/google/common/collect/Sets.newTreeSet(Ljava/util/Comparator;)Ljava/util/TreeSet;:com/google/common/collect/Sets.newTreeSet(Ljava/util/Comparator;)Ljava/util/TreeSet;:com/google/common/collect/Sets.newTreeSet(Ljava/util/Comparator;)Ljava/util/TreeSet;:com/google/common/collect/Sets.newTreeSet(Ljava/util/Comparator;)Ljava/util/TreeSet;:com/google/common/collect/Sets.newTreeSet(Ljava/util/Comparator;)Ljava/util/TreeSet;:com/google/common/collect/Sets.newTreeSet(Ljava/util/Comparator;)Ljava/util/TreeSet;:com/google/common/collect/Sets.newTreeSet(Ljava/util/Comparator;)Ljava/util/TreeSet;:com/google/common/collect/Sets.newTreeSet(Ljava/util/Comparator;)Ljava/util/TreeSet;:com/google/common/collect/Sets.newTreeSet(Ljava/util/Comparator;)Ljava/util/TreeSet;:com/google/common/collect/Sets.newTreeSet(Ljava/util/Comparator;)Ljava/util/TreeSet;:com/google/javascript/jscomp/BasicErrorManager$LeveledJSErrorComparator.<init>()V'
p89
I1
sS'com/google/common/collect/Sets.newTreeSet(Ljava/util/Comparator;)Ljava/util/TreeSet;:com/google/common/collect/Sets.newTreeSet(Ljava/util/Comparator;)Ljava/util/TreeSet;:com/google/common/collect/Sets.newTreeSet(Ljava/util/Comparator;)Ljava/util/TreeSet;:com/google/common/collect/Sets.newTreeSet(Ljava/util/Comparator;)Ljava/util/TreeSet;:com/google/common/collect/Sets.newTreeSet(Ljava/util/Comparator;)Ljava/util/TreeSet;:com/google/common/collect/Sets.newTreeSet(Ljava/util/Comparator;)Ljava/util/TreeSet;:com/google/common/collect/Sets.newTreeSet(Ljava/util/Comparator;)Ljava/util/TreeSet;:com/google/common/collect/Sets.newTreeSet(Ljava/util/Comparator;)Ljava/util/TreeSet;:com/google/common/collect/Sets.newTreeSet(Ljava/util/Comparator;)Ljava/util/TreeSet;:com/google/common/collect/Sets.newTreeSet(Ljava/util/Comparator;)Ljava/util/TreeSet;:com/google/common/collect/Sets.newTreeSet(Ljava/util/Comparator;)Ljava/util/TreeSet;:com/google/common/collect/Sets.newTreeSet(Ljava/util/Comparator;)Ljava/util/TreeSet;:com/google/common/collect/Sets.newTreeSet(Ljava/util/Comparator;)Ljava/util/TreeSet;:com/google/common/collect/Sets.newTreeSet(Ljava/util/Comparator;)Ljava/util/TreeSet;:com/google/common/collect/Sets.newTreeSet(Ljava/util/Comparator;)Ljava/util/TreeSet;:com/google/common/collect/Sets.newTreeSet(Ljava/util/Comparator;)Ljava/util/TreeSet;:com/google/common/collect/Sets.newTreeSet(Ljava/util/Comparator;)Ljava/util/TreeSet;:com/google/common/collect/Sets.newTreeSet(Ljava/util/Comparator;)Ljava/util/TreeSet;:com/google/common/collect/Sets.newTreeSet(Ljava/util/Comparator;)Ljava/util/TreeSet;:com/google/common/collect/Sets.newTreeSet(Ljava/util/Comparator;)Ljava/util/TreeSet;:com/google/common/collect/Sets.newTreeSet(Ljava/util/Comparator;)Ljava/util/TreeSet;:com/google/common/collect/Sets.newTreeSet(Ljava/util/Comparator;)Ljava/util/TreeSet;:com/google/common/collect/Sets.newTreeSet(Ljava/util/Comparator;)Ljava/util/TreeSet;:com/google/common/collect/Sets.newTreeSet(Ljava/util/Comparator;)Ljava/util/TreeSet;:com/google/common/collect/Sets.newTreeSet(Ljava/util/Comparator;)Ljava/util/TreeSet;:com/google/common/collect/Sets.newTreeSet(Ljava/util/Comparator;)Ljava/util/TreeSet;:com/google/common/collect/Sets.newTreeSet(Ljava/util/Comparator;)Ljava/util/TreeSet;:com/google/common/collect/Sets.newTreeSet(Ljava/util/Comparator;)Ljava/util/TreeSet;:com/google/javascript/jscomp/BasicErrorManager$LeveledJSErrorComparator.<init>()V:java/lang/Object.<init>()V'
p90
I1
sS'com/google/common/collect/Sets.newTreeSet(Ljava/util/Comparator;)Ljava/util/TreeSet;:com/google/common/collect/Sets.newTreeSet(Ljava/util/Comparator;)Ljava/util/TreeSet;:com/google/common/collect/Sets.newTreeSet(Ljava/util/Comparator;)Ljava/util/TreeSet;:com/google/common/collect/Sets.newTreeSet(Ljava/util/Comparator;)Ljava/util/TreeSet;:com/google/common/collect/Sets.newTreeSet(Ljava/util/Comparator;)Ljava/util/TreeSet;:com/google/common/collect/Sets.newTreeSet(Ljava/util/Comparator;)Ljava/util/TreeSet;:com/google/common/collect/Sets.newTreeSet(Ljava/util/Comparator;)Ljava/util/TreeSet;:com/google/common/collect/Sets.newTreeSet(Ljava/util/Comparator;)Ljava/util/TreeSet;:com/google/common/collect/Sets.newTreeSet(Ljava/util/Comparator;)Ljava/util/TreeSet;:com/google/common/collect/Sets.newTreeSet(Ljava/util/Comparator;)Ljava/util/TreeSet;:com/google/common/collect/Sets.newTreeSet(Ljava/util/Comparator;)Ljava/util/TreeSet;:com/google/common/collect/Sets.newTreeSet(Ljava/util/Comparator;)Ljava/util/TreeSet;:com/google/common/collect/Sets.newTreeSet(Ljava/util/Comparator;)Ljava/util/TreeSet;:com/google/common/collect/Sets.newTreeSet(Ljava/util/Comparator;)Ljava/util/TreeSet;:com/google/common/collect/Sets.newTreeSet(Ljava/util/Comparator;)Ljava/util/TreeSet;:com/google/common/collect/Sets.newTreeSet(Ljava/util/Comparator;)Ljava/util/TreeSet;'
p91
I1
sS'com/google/javascript/jscomp/BasicErrorManager$LeveledJSErrorComparator.<init>()V:java/lang/Object.<init>()V'
p92
I1
sS'com/google/common/collect/Sets.newTreeSet(Ljava/util/Comparator;)Ljava/util/TreeSet;:com/google/common/collect/Sets.newTreeSet(Ljava/util/Comparator;)Ljava/util/TreeSet;:com/google/common/collect/Sets.newTreeSet(Ljava/util/Comparator;)Ljava/util/TreeSet;:com/google/common/collect/Sets.newTreeSet(Ljava/util/Comparator;)Ljava/util/TreeSet;:com/google/common/collect/Sets.newTreeSet(Ljava/util/Comparator;)Ljava/util/TreeSet;:com/google/common/collect/Sets.newTreeSet(Ljava/util/Comparator;)Ljava/util/TreeSet;:com/google/common/collect/Sets.newTreeSet(Ljava/util/Comparator;)Ljava/util/TreeSet;:com/google/common/collect/Sets.newTreeSet(Ljava/util/Comparator;)Ljava/util/TreeSet;:com/google/common/collect/Sets.newTreeSet(Ljava/util/Comparator;)Ljava/util/TreeSet;:com/google/common/collect/Sets.newTreeSet(Ljava/util/Comparator;)Ljava/util/TreeSet;:com/google/common/collect/Sets.newTreeSet(Ljava/util/Comparator;)Ljava/util/TreeSet;:com/google/common/collect/Sets.newTreeSet(Ljava/util/Comparator;)Ljava/util/TreeSet;:com/google/common/collect/Sets.newTreeSet(Ljava/util/Comparator;)Ljava/util/TreeSet;:com/google/common/collect/Sets.newTreeSet(Ljava/util/Comparator;)Ljava/util/TreeSet;:com/google/common/collect/Sets.newTreeSet(Ljava/util/Comparator;)Ljava/util/TreeSet;:com/google/common/collect/Sets.newTreeSet(Ljava/util/Comparator;)Ljava/util/TreeSet;:com/google/common/collect/Sets.newTreeSet(Ljava/util/Comparator;)Ljava/util/TreeSet;:com/google/common/collect/Sets.newTreeSet(Ljava/util/Comparator;)Ljava/util/TreeSet;:com/google/common/collect/Sets.newTreeSet(Ljava/util/Comparator;)Ljava/util/TreeSet;:com/google/common/collect/Sets.newTreeSet(Ljava/util/Comparator;)Ljava/util/TreeSet;:com/google/common/collect/Sets.newTreeSet(Ljava/util/Comparator;)Ljava/util/TreeSet;:com/google/common/collect/Sets.newTreeSet(Ljava/util/Comparator;)Ljava/util/TreeSet;:com/google/common/collect/Sets.newTreeSet(Ljava/util/Comparator;)Ljava/util/TreeSet;:com/google/common/collect/Sets.newTreeSet(Ljava/util/Comparator;)Ljava/util/TreeSet;:com/google/common/collect/Sets.newTreeSet(Ljava/util/Comparator;)Ljava/util/TreeSet;:com/google/common/collect/Sets.newTreeSet(Ljava/util/Comparator;)Ljava/util/TreeSet;:com/google/common/collect/Sets.newTreeSet(Ljava/util/Comparator;)Ljava/util/TreeSet;:com/google/common/collect/Sets.newTreeSet(Ljava/util/Comparator;)Ljava/util/TreeSet;:com/google/common/collect/Sets.newTreeSet(Ljava/util/Comparator;)Ljava/util/TreeSet;'
p93
I1
sS'com/google/common/collect/Sets.newTreeSet(Ljava/util/Comparator;)Ljava/util/TreeSet;:com/google/common/collect/Sets.newTreeSet(Ljava/util/Comparator;)Ljava/util/TreeSet;:com/google/common/collect/Sets.newTreeSet(Ljava/util/Comparator;)Ljava/util/TreeSet;:com/google/common/collect/Sets.newTreeSet(Ljava/util/Comparator;)Ljava/util/TreeSet;:com/google/common/collect/Sets.newTreeSet(Ljava/util/Comparator;)Ljava/util/TreeSet;:com/google/common/collect/Sets.newTreeSet(Ljava/util/Comparator;)Ljava/util/TreeSet;:com/google/common/collect/Sets.newTreeSet(Ljava/util/Comparator;)Ljava/util/TreeSet;:com/google/common/collect/Sets.newTreeSet(Ljava/util/Comparator;)Ljava/util/TreeSet;'
p94
I1
sS'com/google/common/collect/Sets.newTreeSet(Ljava/util/Comparator;)Ljava/util/TreeSet;:com/google/common/collect/Sets.newTreeSet(Ljava/util/Comparator;)Ljava/util/TreeSet;:com/google/common/collect/Sets.newTreeSet(Ljava/util/Comparator;)Ljava/util/TreeSet;:com/google/common/collect/Sets.newTreeSet(Ljava/util/Comparator;)Ljava/util/TreeSet;:com/google/common/collect/Sets.newTreeSet(Ljava/util/Comparator;)Ljava/util/TreeSet;:com/google/common/collect/Sets.newTreeSet(Ljava/util/Comparator;)Ljava/util/TreeSet;:com/google/common/collect/Sets.newTreeSet(Ljava/util/Comparator;)Ljava/util/TreeSet;:com/google/common/collect/Sets.newTreeSet(Ljava/util/Comparator;)Ljava/util/TreeSet;:com/google/common/collect/Sets.newTreeSet(Ljava/util/Comparator;)Ljava/util/TreeSet;:com/google/javascript/jscomp/BasicErrorManager$LeveledJSErrorComparator.<init>()V'
p95
I1
sS'com/google/common/collect/Sets.newTreeSet(Ljava/util/Comparator;)Ljava/util/TreeSet;:com/google/common/collect/Sets.newTreeSet(Ljava/util/Comparator;)Ljava/util/TreeSet;:com/google/common/collect/Sets.newTreeSet(Ljava/util/Comparator;)Ljava/util/TreeSet;:com/google/common/collect/Sets.newTreeSet(Ljava/util/Comparator;)Ljava/util/TreeSet;:com/google/common/collect/Sets.newTreeSet(Ljava/util/Comparator;)Ljava/util/TreeSet;:com/google/common/collect/Sets.newTreeSet(Ljava/util/Comparator;)Ljava/util/TreeSet;:com/google/common/collect/Sets.newTreeSet(Ljava/util/Comparator;)Ljava/util/TreeSet;:com/google/common/collect/Sets.newTreeSet(Ljava/util/Comparator;)Ljava/util/TreeSet;:com/google/common/collect/Sets.newTreeSet(Ljava/util/Comparator;)Ljava/util/TreeSet;:com/google/common/collect/Sets.newTreeSet(Ljava/util/Comparator;)Ljava/util/TreeSet;:com/google/common/collect/Sets.newTreeSet(Ljava/util/Comparator;)Ljava/util/TreeSet;:com/google/common/collect/Sets.newTreeSet(Ljava/util/Comparator;)Ljava/util/TreeSet;:com/google/common/collect/Sets.newTreeSet(Ljava/util/Comparator;)Ljava/util/TreeSet;:java/lang/Object.<init>()V'
p96
I1
sS'com/google/common/collect/Sets.newTreeSet(Ljava/util/Comparator;)Ljava/util/TreeSet;:com/google/common/collect/Sets.newTreeSet(Ljava/util/Comparator;)Ljava/util/TreeSet;:com/google/common/collect/Sets.newTreeSet(Ljava/util/Comparator;)Ljava/util/TreeSet;:com/google/common/collect/Sets.newTreeSet(Ljava/util/Comparator;)Ljava/util/TreeSet;:com/google/common/collect/Sets.newTreeSet(Ljava/util/Comparator;)Ljava/util/TreeSet;:com/google/common/collect/Sets.newTreeSet(Ljava/util/Comparator;)Ljava/util/TreeSet;:com/google/common/collect/Sets.newTreeSet(Ljava/util/Comparator;)Ljava/util/TreeSet;:com/google/common/collect/Sets.newTreeSet(Ljava/util/Comparator;)Ljava/util/TreeSet;:com/google/common/collect/Sets.newTreeSet(Ljava/util/Comparator;)Ljava/util/TreeSet;:com/google/common/collect/Sets.newTreeSet(Ljava/util/Comparator;)Ljava/util/TreeSet;:com/google/common/collect/Sets.newTreeSet(Ljava/util/Comparator;)Ljava/util/TreeSet;:com/google/common/collect/Sets.newTreeSet(Ljava/util/Comparator;)Ljava/util/TreeSet;:com/google/common/collect/Sets.newTreeSet(Ljava/util/Comparator;)Ljava/util/TreeSet;:com/google/common/collect/Sets.newTreeSet(Ljava/util/Comparator;)Ljava/util/TreeSet;:com/google/common/collect/Sets.newTreeSet(Ljava/util/Comparator;)Ljava/util/TreeSet;:com/google/common/collect/Sets.newTreeSet(Ljava/util/Comparator;)Ljava/util/TreeSet;:com/google/common/collect/Sets.newTreeSet(Ljava/util/Comparator;)Ljava/util/TreeSet;:com/google/common/collect/Sets.newTreeSet(Ljava/util/Comparator;)Ljava/util/TreeSet;:com/google/javascript/jscomp/BasicErrorManager$LeveledJSErrorComparator.<init>()V'
p97
I1
sS'com/google/common/collect/Sets.newTreeSet(Ljava/util/Comparator;)Ljava/util/TreeSet;:com/google/common/collect/Sets.newTreeSet(Ljava/util/Comparator;)Ljava/util/TreeSet;:com/google/common/collect/Sets.newTreeSet(Ljava/util/Comparator;)Ljava/util/TreeSet;:com/google/common/collect/Sets.newTreeSet(Ljava/util/Comparator;)Ljava/util/TreeSet;:com/google/common/collect/Sets.newTreeSet(Ljava/util/Comparator;)Ljava/util/TreeSet;:com/google/common/collect/Sets.newTreeSet(Ljava/util/Comparator;)Ljava/util/TreeSet;:com/google/common/collect/Sets.newTreeSet(Ljava/util/Comparator;)Ljava/util/TreeSet;:com/google/javascript/jscomp/BasicErrorManager$LeveledJSErrorComparator.<init>()V'
p98
I1
sS'com/google/common/collect/Sets.newTreeSet(Ljava/util/Comparator;)Ljava/util/TreeSet;:com/google/common/collect/Sets.newTreeSet(Ljava/util/Comparator;)Ljava/util/TreeSet;:com/google/common/collect/Sets.newTreeSet(Ljava/util/Comparator;)Ljava/util/TreeSet;:com/google/common/collect/Sets.newTreeSet(Ljava/util/Comparator;)Ljava/util/TreeSet;:com/google/common/collect/Sets.newTreeSet(Ljava/util/Comparator;)Ljava/util/TreeSet;:com/google/common/collect/Sets.newTreeSet(Ljava/util/Comparator;)Ljava/util/TreeSet;:com/google/common/collect/Sets.newTreeSet(Ljava/util/Comparator;)Ljava/util/TreeSet;:com/google/common/collect/Sets.newTreeSet(Ljava/util/Comparator;)Ljava/util/TreeSet;:com/google/common/collect/Sets.newTreeSet(Ljava/util/Comparator;)Ljava/util/TreeSet;:com/google/common/collect/Sets.newTreeSet(Ljava/util/Comparator;)Ljava/util/TreeSet;:com/google/common/collect/Sets.newTreeSet(Ljava/util/Comparator;)Ljava/util/TreeSet;:com/google/common/collect/Sets.newTreeSet(Ljava/util/Comparator;)Ljava/util/TreeSet;:com/google/common/collect/Sets.newTreeSet(Ljava/util/Comparator;)Ljava/util/TreeSet;:com/google/common/collect/Sets.newTreeSet(Ljava/util/Comparator;)Ljava/util/TreeSet;:com/google/common/collect/Sets.newTreeSet(Ljava/util/Comparator;)Ljava/util/TreeSet;:com/google/common/collect/Sets.newTreeSet(Ljava/util/Comparator;)Ljava/util/TreeSet;:com/google/common/collect/Sets.newTreeSet(Ljava/util/Comparator;)Ljava/util/TreeSet;:com/google/common/collect/Sets.newTreeSet(Ljava/util/Comparator;)Ljava/util/TreeSet;:com/google/common/collect/Sets.newTreeSet(Ljava/util/Comparator;)Ljava/util/TreeSet;:com/google/common/collect/Sets.newTreeSet(Ljava/util/Comparator;)Ljava/util/TreeSet;:com/google/common/collect/Sets.newTreeSet(Ljava/util/Comparator;)Ljava/util/TreeSet;:com/google/common/collect/Sets.newTreeSet(Ljava/util/Comparator;)Ljava/util/TreeSet;:com/google/common/collect/Sets.newTreeSet(Ljava/util/Comparator;)Ljava/util/TreeSet;:java/lang/Object.<init>()V'
p99
I1
sS'com/google/common/collect/Sets.newTreeSet(Ljava/util/Comparator;)Ljava/util/TreeSet;:com/google/common/collect/Sets.newTreeSet(Ljava/util/Comparator;)Ljava/util/TreeSet;:com/google/common/collect/Sets.newTreeSet(Ljava/util/Comparator;)Ljava/util/TreeSet;:com/google/common/collect/Sets.newTreeSet(Ljava/util/Comparator;)Ljava/util/TreeSet;:java/lang/Object.<init>()V'
p100
I1
sS'com/google/common/collect/Sets.newTreeSet(Ljava/util/Comparator;)Ljava/util/TreeSet;:com/google/common/collect/Sets.newTreeSet(Ljava/util/Comparator;)Ljava/util/TreeSet;:com/google/common/collect/Sets.newTreeSet(Ljava/util/Comparator;)Ljava/util/TreeSet;:com/google/common/collect/Sets.newTreeSet(Ljava/util/Comparator;)Ljava/util/TreeSet;:com/google/common/collect/Sets.newTreeSet(Ljava/util/Comparator;)Ljava/util/TreeSet;:com/google/common/collect/Sets.newTreeSet(Ljava/util/Comparator;)Ljava/util/TreeSet;:com/google/common/collect/Sets.newTreeSet(Ljava/util/Comparator;)Ljava/util/TreeSet;:com/google/common/collect/Sets.newTreeSet(Ljava/util/Comparator;)Ljava/util/TreeSet;:com/google/common/collect/Sets.newTreeSet(Ljava/util/Comparator;)Ljava/util/TreeSet;:com/google/common/collect/Sets.newTreeSet(Ljava/util/Comparator;)Ljava/util/TreeSet;:com/google/common/collect/Sets.newTreeSet(Ljava/util/Comparator;)Ljava/util/TreeSet;:com/google/common/collect/Sets.newTreeSet(Ljava/util/Comparator;)Ljava/util/TreeSet;:com/google/common/collect/Sets.newTreeSet(Ljava/util/Comparator;)Ljava/util/TreeSet;:com/google/common/collect/Sets.newTreeSet(Ljava/util/Comparator;)Ljava/util/TreeSet;:com/google/common/collect/Sets.newTreeSet(Ljava/util/Comparator;)Ljava/util/TreeSet;:com/google/common/collect/Sets.newTreeSet(Ljava/util/Comparator;)Ljava/util/TreeSet;:com/google/common/collect/Sets.newTreeSet(Ljava/util/Comparator;)Ljava/util/TreeSet;:com/google/common/collect/Sets.newTreeSet(Ljava/util/Comparator;)Ljava/util/TreeSet;:com/google/common/collect/Sets.newTreeSet(Ljava/util/Comparator;)Ljava/util/TreeSet;:com/google/common/collect/Sets.newTreeSet(Ljava/util/Comparator;)Ljava/util/TreeSet;:com/google/common/collect/Sets.newTreeSet(Ljava/util/Comparator;)Ljava/util/TreeSet;:com/google/common/collect/Sets.newTreeSet(Ljava/util/Comparator;)Ljava/util/TreeSet;:com/google/common/collect/Sets.newTreeSet(Ljava/util/Comparator;)Ljava/util/TreeSet;:com/google/common/collect/Sets.newTreeSet(Ljava/util/Comparator;)Ljava/util/TreeSet;:com/google/javascript/jscomp/BasicErrorManager$LeveledJSErrorComparator.<init>()V'
p101
I1
sS'com/google/common/collect/Sets.newTreeSet(Ljava/util/Comparator;)Ljava/util/TreeSet;:com/google/common/collect/Sets.newTreeSet(Ljava/util/Comparator;)Ljava/util/TreeSet;:com/google/common/collect/Sets.newTreeSet(Ljava/util/Comparator;)Ljava/util/TreeSet;:com/google/common/collect/Sets.newTreeSet(Ljava/util/Comparator;)Ljava/util/TreeSet;:com/google/common/collect/Sets.newTreeSet(Ljava/util/Comparator;)Ljava/util/TreeSet;:com/google/common/collect/Sets.newTreeSet(Ljava/util/Comparator;)Ljava/util/TreeSet;:com/google/common/collect/Sets.newTreeSet(Ljava/util/Comparator;)Ljava/util/TreeSet;:com/google/common/collect/Sets.newTreeSet(Ljava/util/Comparator;)Ljava/util/TreeSet;:com/google/common/collect/Sets.newTreeSet(Ljava/util/Comparator;)Ljava/util/TreeSet;:com/google/common/collect/Sets.newTreeSet(Ljava/util/Comparator;)Ljava/util/TreeSet;:com/google/common/collect/Sets.newTreeSet(Ljava/util/Comparator;)Ljava/util/TreeSet;:com/google/common/collect/Sets.newTreeSet(Ljava/util/Comparator;)Ljava/util/TreeSet;:com/google/common/collect/Sets.newTreeSet(Ljava/util/Comparator;)Ljava/util/TreeSet;:com/google/javascript/jscomp/BasicErrorManager$LeveledJSErrorComparator.<init>()V'
p102
I1
sS'com/google/common/collect/Sets.newTreeSet(Ljava/util/Comparator;)Ljava/util/TreeSet;:com/google/common/collect/Sets.newTreeSet(Ljava/util/Comparator;)Ljava/util/TreeSet;:com/google/common/collect/Sets.newTreeSet(Ljava/util/Comparator;)Ljava/util/TreeSet;:com/google/common/collect/Sets.newTreeSet(Ljava/util/Comparator;)Ljava/util/TreeSet;:com/google/common/collect/Sets.newTreeSet(Ljava/util/Comparator;)Ljava/util/TreeSet;:com/google/common/collect/Sets.newTreeSet(Ljava/util/Comparator;)Ljava/util/TreeSet;:com/google/common/collect/Sets.newTreeSet(Ljava/util/Comparator;)Ljava/util/TreeSet;:com/google/common/collect/Sets.newTreeSet(Ljava/util/Comparator;)Ljava/util/TreeSet;:com/google/common/collect/Sets.newTreeSet(Ljava/util/Comparator;)Ljava/util/TreeSet;:com/google/common/collect/Sets.newTreeSet(Ljava/util/Comparator;)Ljava/util/TreeSet;:com/google/common/collect/Sets.newTreeSet(Ljava/util/Comparator;)Ljava/util/TreeSet;:com/google/common/collect/Sets.newTreeSet(Ljava/util/Comparator;)Ljava/util/TreeSet;:com/google/common/collect/Sets.newTreeSet(Ljava/util/Comparator;)Ljava/util/TreeSet;'
p103
I1
sS'com/google/common/collect/Sets.newTreeSet(Ljava/util/Comparator;)Ljava/util/TreeSet;:com/google/common/collect/Sets.newTreeSet(Ljava/util/Comparator;)Ljava/util/TreeSet;:com/google/common/collect/Sets.newTreeSet(Ljava/util/Comparator;)Ljava/util/TreeSet;:com/google/common/collect/Sets.newTreeSet(Ljava/util/Comparator;)Ljava/util/TreeSet;:com/google/common/collect/Sets.newTreeSet(Ljava/util/Comparator;)Ljava/util/TreeSet;:com/google/common/collect/Sets.newTreeSet(Ljava/util/Comparator;)Ljava/util/TreeSet;:com/google/common/collect/Sets.newTreeSet(Ljava/util/Comparator;)Ljava/util/TreeSet;:com/google/common/collect/Sets.newTreeSet(Ljava/util/Comparator;)Ljava/util/TreeSet;:com/google/common/collect/Sets.newTreeSet(Ljava/util/Comparator;)Ljava/util/TreeSet;:com/google/common/collect/Sets.newTreeSet(Ljava/util/Comparator;)Ljava/util/TreeSet;:com/google/common/collect/Sets.newTreeSet(Ljava/util/Comparator;)Ljava/util/TreeSet;:com/google/common/collect/Sets.newTreeSet(Ljava/util/Comparator;)Ljava/util/TreeSet;:com/google/common/collect/Sets.newTreeSet(Ljava/util/Comparator;)Ljava/util/TreeSet;:com/google/common/collect/Sets.newTreeSet(Ljava/util/Comparator;)Ljava/util/TreeSet;:com/google/common/collect/Sets.newTreeSet(Ljava/util/Comparator;)Ljava/util/TreeSet;:com/google/common/collect/Sets.newTreeSet(Ljava/util/Comparator;)Ljava/util/TreeSet;:com/google/common/collect/Sets.newTreeSet(Ljava/util/Comparator;)Ljava/util/TreeSet;:com/google/common/collect/Sets.newTreeSet(Ljava/util/Comparator;)Ljava/util/TreeSet;:com/google/common/collect/Sets.newTreeSet(Ljava/util/Comparator;)Ljava/util/TreeSet;:com/google/common/collect/Sets.newTreeSet(Ljava/util/Comparator;)Ljava/util/TreeSet;:com/google/common/collect/Sets.newTreeSet(Ljava/util/Comparator;)Ljava/util/TreeSet;:com/google/common/collect/Sets.newTreeSet(Ljava/util/Comparator;)Ljava/util/TreeSet;:com/google/common/collect/Sets.newTreeSet(Ljava/util/Comparator;)Ljava/util/TreeSet;'
p104
I1
sS'com/google/common/collect/Sets.newTreeSet(Ljava/util/Comparator;)Ljava/util/TreeSet;:com/google/common/collect/Sets.newTreeSet(Ljava/util/Comparator;)Ljava/util/TreeSet;:com/google/common/collect/Sets.newTreeSet(Ljava/util/Comparator;)Ljava/util/TreeSet;:com/google/common/collect/Sets.newTreeSet(Ljava/util/Comparator;)Ljava/util/TreeSet;:com/google/common/collect/Sets.newTreeSet(Ljava/util/Comparator;)Ljava/util/TreeSet;:com/google/common/collect/Sets.newTreeSet(Ljava/util/Comparator;)Ljava/util/TreeSet;:com/google/common/collect/Sets.newTreeSet(Ljava/util/Comparator;)Ljava/util/TreeSet;:com/google/common/collect/Sets.newTreeSet(Ljava/util/Comparator;)Ljava/util/TreeSet;:com/google/common/collect/Sets.newTreeSet(Ljava/util/Comparator;)Ljava/util/TreeSet;:com/google/common/collect/Sets.newTreeSet(Ljava/util/Comparator;)Ljava/util/TreeSet;:com/google/common/collect/Sets.newTreeSet(Ljava/util/Comparator;)Ljava/util/TreeSet;:com/google/common/collect/Sets.newTreeSet(Ljava/util/Comparator;)Ljava/util/TreeSet;:com/google/common/collect/Sets.newTreeSet(Ljava/util/Comparator;)Ljava/util/TreeSet;:com/google/common/collect/Sets.newTreeSet(Ljava/util/Comparator;)Ljava/util/TreeSet;:com/google/common/collect/Sets.newTreeSet(Ljava/util/Comparator;)Ljava/util/TreeSet;:com/google/common/collect/Sets.newTreeSet(Ljava/util/Comparator;)Ljava/util/TreeSet;:com/google/common/collect/Sets.newTreeSet(Ljava/util/Comparator;)Ljava/util/TreeSet;:com/google/common/collect/Sets.newTreeSet(Ljava/util/Comparator;)Ljava/util/TreeSet;:com/google/common/collect/Sets.newTreeSet(Ljava/util/Comparator;)Ljava/util/TreeSet;:com/google/common/collect/Sets.newTreeSet(Ljava/util/Comparator;)Ljava/util/TreeSet;:com/google/common/collect/Sets.newTreeSet(Ljava/util/Comparator;)Ljava/util/TreeSet;:com/google/common/collect/Sets.newTreeSet(Ljava/util/Comparator;)Ljava/util/TreeSet;:com/google/common/collect/Sets.newTreeSet(Ljava/util/Comparator;)Ljava/util/TreeSet;:com/google/common/collect/Sets.newTreeSet(Ljava/util/Comparator;)Ljava/util/TreeSet;:com/google/common/collect/Sets.newTreeSet(Ljava/util/Comparator;)Ljava/util/TreeSet;:com/google/javascript/jscomp/BasicErrorManager$LeveledJSErrorComparator.<init>()V'
p105
I1
sS'com/google/common/collect/Sets.newTreeSet(Ljava/util/Comparator;)Ljava/util/TreeSet;:com/google/common/collect/Sets.newTreeSet(Ljava/util/Comparator;)Ljava/util/TreeSet;:com/google/common/collect/Sets.newTreeSet(Ljava/util/Comparator;)Ljava/util/TreeSet;:com/google/common/collect/Sets.newTreeSet(Ljava/util/Comparator;)Ljava/util/TreeSet;:com/google/common/collect/Sets.newTreeSet(Ljava/util/Comparator;)Ljava/util/TreeSet;:com/google/common/collect/Sets.newTreeSet(Ljava/util/Comparator;)Ljava/util/TreeSet;:com/google/common/collect/Sets.newTreeSet(Ljava/util/Comparator;)Ljava/util/TreeSet;:com/google/common/collect/Sets.newTreeSet(Ljava/util/Comparator;)Ljava/util/TreeSet;:com/google/common/collect/Sets.newTreeSet(Ljava/util/Comparator;)Ljava/util/TreeSet;:com/google/common/collect/Sets.newTreeSet(Ljava/util/Comparator;)Ljava/util/TreeSet;:com/google/common/collect/Sets.newTreeSet(Ljava/util/Comparator;)Ljava/util/TreeSet;:com/google/common/collect/Sets.newTreeSet(Ljava/util/Comparator;)Ljava/util/TreeSet;:com/google/common/collect/Sets.newTreeSet(Ljava/util/Comparator;)Ljava/util/TreeSet;:com/google/common/collect/Sets.newTreeSet(Ljava/util/Comparator;)Ljava/util/TreeSet;:com/google/common/collect/Sets.newTreeSet(Ljava/util/Comparator;)Ljava/util/TreeSet;:com/google/common/collect/Sets.newTreeSet(Ljava/util/Comparator;)Ljava/util/TreeSet;:com/google/common/collect/Sets.newTreeSet(Ljava/util/Comparator;)Ljava/util/TreeSet;:com/google/common/collect/Sets.newTreeSet(Ljava/util/Comparator;)Ljava/util/TreeSet;:com/google/common/collect/Sets.newTreeSet(Ljava/util/Comparator;)Ljava/util/TreeSet;:com/google/common/collect/Sets.newTreeSet(Ljava/util/Comparator;)Ljava/util/TreeSet;:com/google/common/collect/Sets.newTreeSet(Ljava/util/Comparator;)Ljava/util/TreeSet;:com/google/common/collect/Sets.newTreeSet(Ljava/util/Comparator;)Ljava/util/TreeSet;:com/google/common/collect/Sets.newTreeSet(Ljava/util/Comparator;)Ljava/util/TreeSet;:com/google/common/collect/Sets.newTreeSet(Ljava/util/Comparator;)Ljava/util/TreeSet;:com/google/common/collect/Sets.newTreeSet(Ljava/util/Comparator;)Ljava/util/TreeSet;:com/google/javascript/jscomp/BasicErrorManager$LeveledJSErrorComparator.<init>()V:java/lang/Object.<init>()V'
p106
I1
sS'com/google/common/collect/Sets.newTreeSet(Ljava/util/Comparator;)Ljava/util/TreeSet;:com/google/common/collect/Sets.newTreeSet(Ljava/util/Comparator;)Ljava/util/TreeSet;:com/google/common/collect/Sets.newTreeSet(Ljava/util/Comparator;)Ljava/util/TreeSet;:com/google/common/collect/Sets.newTreeSet(Ljava/util/Comparator;)Ljava/util/TreeSet;:com/google/common/collect/Sets.newTreeSet(Ljava/util/Comparator;)Ljava/util/TreeSet;:com/google/common/collect/Sets.newTreeSet(Ljava/util/Comparator;)Ljava/util/TreeSet;:com/google/common/collect/Sets.newTreeSet(Ljava/util/Comparator;)Ljava/util/TreeSet;:com/google/common/collect/Sets.newTreeSet(Ljava/util/Comparator;)Ljava/util/TreeSet;:com/google/common/collect/Sets.newTreeSet(Ljava/util/Comparator;)Ljava/util/TreeSet;:com/google/common/collect/Sets.newTreeSet(Ljava/util/Comparator;)Ljava/util/TreeSet;:com/google/common/collect/Sets.newTreeSet(Ljava/util/Comparator;)Ljava/util/TreeSet;:com/google/common/collect/Sets.newTreeSet(Ljava/util/Comparator;)Ljava/util/TreeSet;:com/google/common/collect/Sets.newTreeSet(Ljava/util/Comparator;)Ljava/util/TreeSet;:com/google/common/collect/Sets.newTreeSet(Ljava/util/Comparator;)Ljava/util/TreeSet;:com/google/common/collect/Sets.newTreeSet(Ljava/util/Comparator;)Ljava/util/TreeSet;:com/google/common/collect/Sets.newTreeSet(Ljava/util/Comparator;)Ljava/util/TreeSet;:com/google/common/collect/Sets.newTreeSet(Ljava/util/Comparator;)Ljava/util/TreeSet;:com/google/common/collect/Sets.newTreeSet(Ljava/util/Comparator;)Ljava/util/TreeSet;:com/google/common/collect/Sets.newTreeSet(Ljava/util/Comparator;)Ljava/util/TreeSet;:com/google/common/collect/Sets.newTreeSet(Ljava/util/Comparator;)Ljava/util/TreeSet;:com/google/common/collect/Sets.newTreeSet(Ljava/util/Comparator;)Ljava/util/TreeSet;:java/lang/Object.<init>()V'
p107
I1
sS'com/google/common/collect/Sets.newTreeSet(Ljava/util/Comparator;)Ljava/util/TreeSet;:com/google/common/collect/Sets.newTreeSet(Ljava/util/Comparator;)Ljava/util/TreeSet;:com/google/common/collect/Sets.newTreeSet(Ljava/util/Comparator;)Ljava/util/TreeSet;:com/google/common/collect/Sets.newTreeSet(Ljava/util/Comparator;)Ljava/util/TreeSet;:com/google/common/collect/Sets.newTreeSet(Ljava/util/Comparator;)Ljava/util/TreeSet;:com/google/common/collect/Sets.newTreeSet(Ljava/util/Comparator;)Ljava/util/TreeSet;:com/google/common/collect/Sets.newTreeSet(Ljava/util/Comparator;)Ljava/util/TreeSet;:com/google/common/collect/Sets.newTreeSet(Ljava/util/Comparator;)Ljava/util/TreeSet;:com/google/common/collect/Sets.newTreeSet(Ljava/util/Comparator;)Ljava/util/TreeSet;:com/google/common/collect/Sets.newTreeSet(Ljava/util/Comparator;)Ljava/util/TreeSet;:com/google/common/collect/Sets.newTreeSet(Ljava/util/Comparator;)Ljava/util/TreeSet;:com/google/common/collect/Sets.newTreeSet(Ljava/util/Comparator;)Ljava/util/TreeSet;:com/google/javascript/jscomp/BasicErrorManager$LeveledJSErrorComparator.<init>()V'
p108
I1
sS'com/google/common/collect/Sets.newTreeSet(Ljava/util/Comparator;)Ljava/util/TreeSet;:com/google/common/collect/Sets.newTreeSet(Ljava/util/Comparator;)Ljava/util/TreeSet;:com/google/common/collect/Sets.newTreeSet(Ljava/util/Comparator;)Ljava/util/TreeSet;:com/google/common/collect/Sets.newTreeSet(Ljava/util/Comparator;)Ljava/util/TreeSet;:com/google/common/collect/Sets.newTreeSet(Ljava/util/Comparator;)Ljava/util/TreeSet;:com/google/common/collect/Sets.newTreeSet(Ljava/util/Comparator;)Ljava/util/TreeSet;:com/google/common/collect/Sets.newTreeSet(Ljava/util/Comparator;)Ljava/util/TreeSet;:com/google/common/collect/Sets.newTreeSet(Ljava/util/Comparator;)Ljava/util/TreeSet;:com/google/common/collect/Sets.newTreeSet(Ljava/util/Comparator;)Ljava/util/TreeSet;:com/google/common/collect/Sets.newTreeSet(Ljava/util/Comparator;)Ljava/util/TreeSet;:com/google/common/collect/Sets.newTreeSet(Ljava/util/Comparator;)Ljava/util/TreeSet;:com/google/common/collect/Sets.newTreeSet(Ljava/util/Comparator;)Ljava/util/TreeSet;:com/google/common/collect/Sets.newTreeSet(Ljava/util/Comparator;)Ljava/util/TreeSet;:com/google/common/collect/Sets.newTreeSet(Ljava/util/Comparator;)Ljava/util/TreeSet;:com/google/common/collect/Sets.newTreeSet(Ljava/util/Comparator;)Ljava/util/TreeSet;:com/google/common/collect/Sets.newTreeSet(Ljava/util/Comparator;)Ljava/util/TreeSet;:com/google/common/collect/Sets.newTreeSet(Ljava/util/Comparator;)Ljava/util/TreeSet;:com/google/common/collect/Sets.newTreeSet(Ljava/util/Comparator;)Ljava/util/TreeSet;:com/google/common/collect/Sets.newTreeSet(Ljava/util/Comparator;)Ljava/util/TreeSet;:com/google/common/collect/Sets.newTreeSet(Ljava/util/Comparator;)Ljava/util/TreeSet;:com/google/common/collect/Sets.newTreeSet(Ljava/util/Comparator;)Ljava/util/TreeSet;:com/google/common/collect/Sets.newTreeSet(Ljava/util/Comparator;)Ljava/util/TreeSet;:com/google/javascript/jscomp/BasicErrorManager$LeveledJSErrorComparator.<init>()V:java/lang/Object.<init>()V'
p109
I1
sS'com/google/common/collect/Sets.newTreeSet(Ljava/util/Comparator;)Ljava/util/TreeSet;:com/google/common/collect/Sets.newTreeSet(Ljava/util/Comparator;)Ljava/util/TreeSet;:com/google/common/collect/Sets.newTreeSet(Ljava/util/Comparator;)Ljava/util/TreeSet;:com/google/common/collect/Sets.newTreeSet(Ljava/util/Comparator;)Ljava/util/TreeSet;:com/google/common/collect/Sets.newTreeSet(Ljava/util/Comparator;)Ljava/util/TreeSet;:com/google/common/collect/Sets.newTreeSet(Ljava/util/Comparator;)Ljava/util/TreeSet;:com/google/common/collect/Sets.newTreeSet(Ljava/util/Comparator;)Ljava/util/TreeSet;:com/google/common/collect/Sets.newTreeSet(Ljava/util/Comparator;)Ljava/util/TreeSet;:java/lang/Object.<init>()V'
p110
I1
sS'com/google/common/collect/Sets.newTreeSet(Ljava/util/Comparator;)Ljava/util/TreeSet;:com/google/common/collect/Sets.newTreeSet(Ljava/util/Comparator;)Ljava/util/TreeSet;:com/google/common/collect/Sets.newTreeSet(Ljava/util/Comparator;)Ljava/util/TreeSet;:com/google/common/collect/Sets.newTreeSet(Ljava/util/Comparator;)Ljava/util/TreeSet;:com/google/common/collect/Sets.newTreeSet(Ljava/util/Comparator;)Ljava/util/TreeSet;:com/google/common/collect/Sets.newTreeSet(Ljava/util/Comparator;)Ljava/util/TreeSet;:com/google/common/collect/Sets.newTreeSet(Ljava/util/Comparator;)Ljava/util/TreeSet;:com/google/common/collect/Sets.newTreeSet(Ljava/util/Comparator;)Ljava/util/TreeSet;:com/google/common/collect/Sets.newTreeSet(Ljava/util/Comparator;)Ljava/util/TreeSet;:com/google/common/collect/Sets.newTreeSet(Ljava/util/Comparator;)Ljava/util/TreeSet;:com/google/common/collect/Sets.newTreeSet(Ljava/util/Comparator;)Ljava/util/TreeSet;:com/google/common/collect/Sets.newTreeSet(Ljava/util/Comparator;)Ljava/util/TreeSet;:com/google/common/collect/Sets.newTreeSet(Ljava/util/Comparator;)Ljava/util/TreeSet;:com/google/common/collect/Sets.newTreeSet(Ljava/util/Comparator;)Ljava/util/TreeSet;:com/google/common/collect/Sets.newTreeSet(Ljava/util/Comparator;)Ljava/util/TreeSet;:com/google/common/collect/Sets.newTreeSet(Ljava/util/Comparator;)Ljava/util/TreeSet;:com/google/common/collect/Sets.newTreeSet(Ljava/util/Comparator;)Ljava/util/TreeSet;:com/google/common/collect/Sets.newTreeSet(Ljava/util/Comparator;)Ljava/util/TreeSet;:com/google/common/collect/Sets.newTreeSet(Ljava/util/Comparator;)Ljava/util/TreeSet;:com/google/common/collect/Sets.newTreeSet(Ljava/util/Comparator;)Ljava/util/TreeSet;:com/google/common/collect/Sets.newTreeSet(Ljava/util/Comparator;)Ljava/util/TreeSet;:com/google/common/collect/Sets.newTreeSet(Ljava/util/Comparator;)Ljava/util/TreeSet;:com/google/common/collect/Sets.newTreeSet(Ljava/util/Comparator;)Ljava/util/TreeSet;:com/google/common/collect/Sets.newTreeSet(Ljava/util/Comparator;)Ljava/util/TreeSet;:com/google/common/collect/Sets.newTreeSet(Ljava/util/Comparator;)Ljava/util/TreeSet;:com/google/common/collect/Sets.newTreeSet(Ljava/util/Comparator;)Ljava/util/TreeSet;:com/google/common/collect/Sets.newTreeSet(Ljava/util/Comparator;)Ljava/util/TreeSet;'
p111
I1
sS'com/google/common/collect/Sets.newTreeSet(Ljava/util/Comparator;)Ljava/util/TreeSet;:com/google/common/collect/Sets.newTreeSet(Ljava/util/Comparator;)Ljava/util/TreeSet;:com/google/common/collect/Sets.newTreeSet(Ljava/util/Comparator;)Ljava/util/TreeSet;:com/google/common/collect/Sets.newTreeSet(Ljava/util/Comparator;)Ljava/util/TreeSet;:com/google/common/collect/Sets.newTreeSet(Ljava/util/Comparator;)Ljava/util/TreeSet;:com/google/common/collect/Sets.newTreeSet(Ljava/util/Comparator;)Ljava/util/TreeSet;:com/google/common/collect/Sets.newTreeSet(Ljava/util/Comparator;)Ljava/util/TreeSet;:com/google/common/collect/Sets.newTreeSet(Ljava/util/Comparator;)Ljava/util/TreeSet;:com/google/common/collect/Sets.newTreeSet(Ljava/util/Comparator;)Ljava/util/TreeSet;:com/google/common/collect/Sets.newTreeSet(Ljava/util/Comparator;)Ljava/util/TreeSet;:com/google/common/collect/Sets.newTreeSet(Ljava/util/Comparator;)Ljava/util/TreeSet;:com/google/common/collect/Sets.newTreeSet(Ljava/util/Comparator;)Ljava/util/TreeSet;:com/google/common/collect/Sets.newTreeSet(Ljava/util/Comparator;)Ljava/util/TreeSet;:com/google/common/collect/Sets.newTreeSet(Ljava/util/Comparator;)Ljava/util/TreeSet;:com/google/common/collect/Sets.newTreeSet(Ljava/util/Comparator;)Ljava/util/TreeSet;:com/google/common/collect/Sets.newTreeSet(Ljava/util/Comparator;)Ljava/util/TreeSet;:com/google/common/collect/Sets.newTreeSet(Ljava/util/Comparator;)Ljava/util/TreeSet;:com/google/common/collect/Sets.newTreeSet(Ljava/util/Comparator;)Ljava/util/TreeSet;:com/google/common/collect/Sets.newTreeSet(Ljava/util/Comparator;)Ljava/util/TreeSet;:com/google/common/collect/Sets.newTreeSet(Ljava/util/Comparator;)Ljava/util/TreeSet;:java/lang/Object.<init>()V'
p112
I1
sS'com/google/common/collect/Sets.newTreeSet(Ljava/util/Comparator;)Ljava/util/TreeSet;:com/google/common/collect/Sets.newTreeSet(Ljava/util/Comparator;)Ljava/util/TreeSet;:com/google/common/collect/Sets.newTreeSet(Ljava/util/Comparator;)Ljava/util/TreeSet;:com/google/common/collect/Sets.newTreeSet(Ljava/util/Comparator;)Ljava/util/TreeSet;:com/google/common/collect/Sets.newTreeSet(Ljava/util/Comparator;)Ljava/util/TreeSet;:com/google/common/collect/Sets.newTreeSet(Ljava/util/Comparator;)Ljava/util/TreeSet;:com/google/common/collect/Sets.newTreeSet(Ljava/util/Comparator;)Ljava/util/TreeSet;:com/google/common/collect/Sets.newTreeSet(Ljava/util/Comparator;)Ljava/util/TreeSet;:com/google/common/collect/Sets.newTreeSet(Ljava/util/Comparator;)Ljava/util/TreeSet;:com/google/common/collect/Sets.newTreeSet(Ljava/util/Comparator;)Ljava/util/TreeSet;:com/google/common/collect/Sets.newTreeSet(Ljava/util/Comparator;)Ljava/util/TreeSet;:com/google/common/collect/Sets.newTreeSet(Ljava/util/Comparator;)Ljava/util/TreeSet;:com/google/common/collect/Sets.newTreeSet(Ljava/util/Comparator;)Ljava/util/TreeSet;:com/google/common/collect/Sets.newTreeSet(Ljava/util/Comparator;)Ljava/util/TreeSet;:com/google/common/collect/Sets.newTreeSet(Ljava/util/Comparator;)Ljava/util/TreeSet;:com/google/common/collect/Sets.newTreeSet(Ljava/util/Comparator;)Ljava/util/TreeSet;:com/google/common/collect/Sets.newTreeSet(Ljava/util/Comparator;)Ljava/util/TreeSet;:com/google/common/collect/Sets.newTreeSet(Ljava/util/Comparator;)Ljava/util/TreeSet;:com/google/common/collect/Sets.newTreeSet(Ljava/util/Comparator;)Ljava/util/TreeSet;:com/google/common/collect/Sets.newTreeSet(Ljava/util/Comparator;)Ljava/util/TreeSet;:com/google/common/collect/Sets.newTreeSet(Ljava/util/Comparator;)Ljava/util/TreeSet;:com/google/common/collect/Sets.newTreeSet(Ljava/util/Comparator;)Ljava/util/TreeSet;:com/google/common/collect/Sets.newTreeSet(Ljava/util/Comparator;)Ljava/util/TreeSet;:com/google/common/collect/Sets.newTreeSet(Ljava/util/Comparator;)Ljava/util/TreeSet;:com/google/javascript/jscomp/BasicErrorManager$LeveledJSErrorComparator.<init>()V:java/lang/Object.<init>()V'
p113
I1
sS'com/google/common/collect/Sets.newTreeSet(Ljava/util/Comparator;)Ljava/util/TreeSet;:com/google/common/collect/Sets.newTreeSet(Ljava/util/Comparator;)Ljava/util/TreeSet;:com/google/common/collect/Sets.newTreeSet(Ljava/util/Comparator;)Ljava/util/TreeSet;:com/google/common/collect/Sets.newTreeSet(Ljava/util/Comparator;)Ljava/util/TreeSet;:com/google/common/collect/Sets.newTreeSet(Ljava/util/Comparator;)Ljava/util/TreeSet;:com/google/common/collect/Sets.newTreeSet(Ljava/util/Comparator;)Ljava/util/TreeSet;:com/google/common/collect/Sets.newTreeSet(Ljava/util/Comparator;)Ljava/util/TreeSet;:com/google/common/collect/Sets.newTreeSet(Ljava/util/Comparator;)Ljava/util/TreeSet;:com/google/common/collect/Sets.newTreeSet(Ljava/util/Comparator;)Ljava/util/TreeSet;:com/google/common/collect/Sets.newTreeSet(Ljava/util/Comparator;)Ljava/util/TreeSet;:com/google/common/collect/Sets.newTreeSet(Ljava/util/Comparator;)Ljava/util/TreeSet;:com/google/common/collect/Sets.newTreeSet(Ljava/util/Comparator;)Ljava/util/TreeSet;:com/google/common/collect/Sets.newTreeSet(Ljava/util/Comparator;)Ljava/util/TreeSet;:com/google/common/collect/Sets.newTreeSet(Ljava/util/Comparator;)Ljava/util/TreeSet;:com/google/common/collect/Sets.newTreeSet(Ljava/util/Comparator;)Ljava/util/TreeSet;'
p114
I1
sS'com/google/common/collect/Sets.newTreeSet(Ljava/util/Comparator;)Ljava/util/TreeSet;:com/google/common/collect/Sets.newTreeSet(Ljava/util/Comparator;)Ljava/util/TreeSet;:com/google/common/collect/Sets.newTreeSet(Ljava/util/Comparator;)Ljava/util/TreeSet;:com/google/common/collect/Sets.newTreeSet(Ljava/util/Comparator;)Ljava/util/TreeSet;:com/google/common/collect/Sets.newTreeSet(Ljava/util/Comparator;)Ljava/util/TreeSet;:com/google/common/collect/Sets.newTreeSet(Ljava/util/Comparator;)Ljava/util/TreeSet;:com/google/common/collect/Sets.newTreeSet(Ljava/util/Comparator;)Ljava/util/TreeSet;:com/google/common/collect/Sets.newTreeSet(Ljava/util/Comparator;)Ljava/util/TreeSet;:com/google/common/collect/Sets.newTreeSet(Ljava/util/Comparator;)Ljava/util/TreeSet;:com/google/common/collect/Sets.newTreeSet(Ljava/util/Comparator;)Ljava/util/TreeSet;:com/google/common/collect/Sets.newTreeSet(Ljava/util/Comparator;)Ljava/util/TreeSet;:com/google/common/collect/Sets.newTreeSet(Ljava/util/Comparator;)Ljava/util/TreeSet;:com/google/common/collect/Sets.newTreeSet(Ljava/util/Comparator;)Ljava/util/TreeSet;:com/google/common/collect/Sets.newTreeSet(Ljava/util/Comparator;)Ljava/util/TreeSet;:com/google/common/collect/Sets.newTreeSet(Ljava/util/Comparator;)Ljava/util/TreeSet;:com/google/common/collect/Sets.newTreeSet(Ljava/util/Comparator;)Ljava/util/TreeSet;:com/google/common/collect/Sets.newTreeSet(Ljava/util/Comparator;)Ljava/util/TreeSet;:com/google/common/collect/Sets.newTreeSet(Ljava/util/Comparator;)Ljava/util/TreeSet;:com/google/common/collect/Sets.newTreeSet(Ljava/util/Comparator;)Ljava/util/TreeSet;:com/google/common/collect/Sets.newTreeSet(Ljava/util/Comparator;)Ljava/util/TreeSet;:com/google/common/collect/Sets.newTreeSet(Ljava/util/Comparator;)Ljava/util/TreeSet;:com/google/common/collect/Sets.newTreeSet(Ljava/util/Comparator;)Ljava/util/TreeSet;:com/google/common/collect/Sets.newTreeSet(Ljava/util/Comparator;)Ljava/util/TreeSet;:com/google/common/collect/Sets.newTreeSet(Ljava/util/Comparator;)Ljava/util/TreeSet;:com/google/common/collect/Sets.newTreeSet(Ljava/util/Comparator;)Ljava/util/TreeSet;:com/google/common/collect/Sets.newTreeSet(Ljava/util/Comparator;)Ljava/util/TreeSet;:com/google/common/collect/Sets.newTreeSet(Ljava/util/Comparator;)Ljava/util/TreeSet;:com/google/javascript/jscomp/BasicErrorManager$LeveledJSErrorComparator.<init>()V'
p115
I1
sS'com/google/common/collect/Sets.newTreeSet(Ljava/util/Comparator;)Ljava/util/TreeSet;:com/google/common/collect/Sets.newTreeSet(Ljava/util/Comparator;)Ljava/util/TreeSet;:com/google/common/collect/Sets.newTreeSet(Ljava/util/Comparator;)Ljava/util/TreeSet;:com/google/common/collect/Sets.newTreeSet(Ljava/util/Comparator;)Ljava/util/TreeSet;:com/google/common/collect/Sets.newTreeSet(Ljava/util/Comparator;)Ljava/util/TreeSet;:com/google/common/collect/Sets.newTreeSet(Ljava/util/Comparator;)Ljava/util/TreeSet;:com/google/common/collect/Sets.newTreeSet(Ljava/util/Comparator;)Ljava/util/TreeSet;:com/google/common/collect/Sets.newTreeSet(Ljava/util/Comparator;)Ljava/util/TreeSet;:com/google/common/collect/Sets.newTreeSet(Ljava/util/Comparator;)Ljava/util/TreeSet;:com/google/common/collect/Sets.newTreeSet(Ljava/util/Comparator;)Ljava/util/TreeSet;:com/google/common/collect/Sets.newTreeSet(Ljava/util/Comparator;)Ljava/util/TreeSet;:com/google/common/collect/Sets.newTreeSet(Ljava/util/Comparator;)Ljava/util/TreeSet;:com/google/common/collect/Sets.newTreeSet(Ljava/util/Comparator;)Ljava/util/TreeSet;:com/google/common/collect/Sets.newTreeSet(Ljava/util/Comparator;)Ljava/util/TreeSet;:com/google/common/collect/Sets.newTreeSet(Ljava/util/Comparator;)Ljava/util/TreeSet;:com/google/common/collect/Sets.newTreeSet(Ljava/util/Comparator;)Ljava/util/TreeSet;:com/google/common/collect/Sets.newTreeSet(Ljava/util/Comparator;)Ljava/util/TreeSet;:com/google/common/collect/Sets.newTreeSet(Ljava/util/Comparator;)Ljava/util/TreeSet;:com/google/common/collect/Sets.newTreeSet(Ljava/util/Comparator;)Ljava/util/TreeSet;:com/google/common/collect/Sets.newTreeSet(Ljava/util/Comparator;)Ljava/util/TreeSet;:com/google/common/collect/Sets.newTreeSet(Ljava/util/Comparator;)Ljava/util/TreeSet;:com/google/common/collect/Sets.newTreeSet(Ljava/util/Comparator;)Ljava/util/TreeSet;:com/google/javascript/jscomp/BasicErrorManager$LeveledJSErrorComparator.<init>()V'
p116
I1
s.