(dp0
S'com/google/common/collect/ImmutableList.of(Ljava/lang/Object;Ljava/lang/Object;Ljava/lang/Object;Ljava/lang/Object;Ljava/lang/Object;Ljava/lang/Object;Ljava/lang/Object;Ljava/lang/Object;Ljava/lang/Object;)Lcom/google/common/collect/ImmutableList;'
p1
I1
sS'java/util/logging/Logger.getLogger(Ljava/lang/String;)Ljava/util/logging/Logger;'
p2
I1
sS'java/lang/Class.getName()Ljava/lang/String;'
p3
I1
s.