(dp0
S'com/google/javascript/jscomp/regex/CharRanges.difference(Lcom/google/javascript/jscomp/regex/CharRanges;)Lcom/google/javascript/jscomp/regex/CharRanges;'
p1
I2
sS'com/google/javascript/jscomp/regex/CharRanges.inclusive(II)Lcom/google/javascript/jscomp/regex/CharRanges;:com/google/javascript/jscomp/regex/CharRanges.<init>([I)V'
p2
I5
sS'com/google/javascript/jscomp/regex/CharRanges.difference(Lcom/google/javascript/jscomp/regex/CharRanges;)Lcom/google/javascript/jscomp/regex/CharRanges;:java/util/Arrays.copyOf([II)[I'
p3
I2
sS'com/google/javascript/jscomp/regex/CharRanges.withMembers([I)Lcom/google/javascript/jscomp/regex/CharRanges;:com/google/javascript/jscomp/regex/CharRanges.intArrayToRanges([I)[I'
p4
I3
sS'com/google/javascript/jscomp/regex/RegExpTree$LookaheadAssertion.<init>(Lcom/google/javascript/jscomp/regex/RegExpTree;Z)V:com/google/javascript/jscomp/regex/RegExpTree.<init>()V'
p5
I1
sS'com/google/javascript/jscomp/regex/CharRanges.difference(Lcom/google/javascript/jscomp/regex/CharRanges;)Lcom/google/javascript/jscomp/regex/CharRanges;:java/lang/Math.min(II)I'
p6
I4
sS'com/google/javascript/jscomp/regex/CharRanges.withMembers([I)Lcom/google/javascript/jscomp/regex/CharRanges;:com/google/javascript/jscomp/regex/CharRanges.<init>([I)V'
p7
I3
sS'com/google/javascript/jscomp/regex/CharRanges.withMembers([I)Lcom/google/javascript/jscomp/regex/CharRanges;:com/google/javascript/jscomp/regex/CharRanges.<init>([I)V:java/lang/Object.<init>()V'
p8
I3
sS'com/google/javascript/jscomp/regex/CharRanges.inclusive(II)Lcom/google/javascript/jscomp/regex/CharRanges;'
p9
I3
sS'com/google/javascript/jscomp/regex/CharRanges.difference(Lcom/google/javascript/jscomp/regex/CharRanges;)Lcom/google/javascript/jscomp/regex/CharRanges;:java/lang/System.arraycopy(Ljava/lang/Object;ILjava/lang/Object;II)V'
p10
I3
sS'com/google/javascript/jscomp/regex/CharRanges.union(Lcom/google/javascript/jscomp/regex/CharRanges;)Lcom/google/javascript/jscomp/regex/CharRanges;:com/google/javascript/jscomp/regex/CharRanges.<init>([I)V'
p11
I3
sS'com/google/javascript/jscomp/regex/RegExpTree$Empty.<init>()V:com/google/javascript/jscomp/regex/RegExpTree$RegExpTreeAtom.<init>()V:com/google/javascript/jscomp/regex/RegExpTree.<init>()V'
p12
I1
sS'com/google/common/collect/ImmutableMap.builder()Lcom/google/common/collect/ImmutableMap$Builder;'
p13
I1
sS'com/google/javascript/jscomp/regex/CharRanges.union(Lcom/google/javascript/jscomp/regex/CharRanges;)Lcom/google/javascript/jscomp/regex/CharRanges;:java/lang/System.arraycopy(Ljava/lang/Object;ILjava/lang/Object;II)V'
p14
I3
sS'com/google/javascript/jscomp/regex/RegExpTree$Empty.<init>()V:com/google/javascript/jscomp/regex/RegExpTree$RegExpTreeAtom.<init>()V'
p15
I1
sS'com/google/javascript/jscomp/regex/CharRanges.withMembers([I)Lcom/google/javascript/jscomp/regex/CharRanges;:[I.clone()Ljava/lang/Object;'
p16
I3
sS'com/google/javascript/jscomp/regex/CharRanges.difference(Lcom/google/javascript/jscomp/regex/CharRanges;)Lcom/google/javascript/jscomp/regex/CharRanges;:com/google/javascript/jscomp/regex/CharRanges.<init>([I)V:java/lang/Object.<init>()V'
p17
I2
sS'com/google/javascript/jscomp/regex/RegExpTree$LookaheadAssertion.<init>(Lcom/google/javascript/jscomp/regex/RegExpTree;Z)V:com/google/javascript/jscomp/regex/RegExpTree.<init>()V:java/lang/Object.<init>()V'
p18
I1
sS'com/google/javascript/jscomp/regex/RegExpTree$LookaheadAssertion.<init>(Lcom/google/javascript/jscomp/regex/RegExpTree;Z)V'
p19
I1
sS'com/google/javascript/jscomp/regex/RegExpTree$Empty.<init>()V'
p20
I1
sS'com/google/javascript/jscomp/regex/CharRanges.difference(Lcom/google/javascript/jscomp/regex/CharRanges;)Lcom/google/javascript/jscomp/regex/CharRanges;:com/google/javascript/jscomp/regex/CharRanges.<init>([I)V'
p21
I2
sS'com/google/javascript/jscomp/regex/CharRanges.union(Lcom/google/javascript/jscomp/regex/CharRanges;)Lcom/google/javascript/jscomp/regex/CharRanges;:com/google/javascript/jscomp/regex/CharRanges.<init>([I)V:java/lang/Object.<init>()V'
p22
I3
sS'com/google/javascript/jscomp/regex/RegExpTree$Empty.<init>()V:com/google/javascript/jscomp/regex/RegExpTree$RegExpTreeAtom.<init>()V:com/google/javascript/jscomp/regex/RegExpTree.<init>()V:java/lang/Object.<init>()V'
p23
I1
sS'com/google/javascript/jscomp/regex/CharRanges.inclusive(II)Lcom/google/javascript/jscomp/regex/CharRanges;:com/google/javascript/jscomp/regex/CharRanges.<init>([I)V:java/lang/Object.<init>()V'
p24
I5
sS'com/google/javascript/jscomp/regex/CharRanges.union(Lcom/google/javascript/jscomp/regex/CharRanges;)Lcom/google/javascript/jscomp/regex/CharRanges;'
p25
I3
sS'com/google/javascript/jscomp/regex/CharRanges.withMembers([I)Lcom/google/javascript/jscomp/regex/CharRanges;:com/google/javascript/jscomp/regex/CharRanges.intArrayToRanges([I)[I:java/util/Arrays.sort([I)V'
p26
I3
sS'com/google/javascript/jscomp/regex/CharRanges.withMembers([I)Lcom/google/javascript/jscomp/regex/CharRanges;'
p27
I3
s.