(dp0
S'com/google/javascript/jscomp/RenameVars$1.<init>()V'
p1
I1
sS'com/google/javascript/jscomp/RenameVars$2.<init>()V:java/lang/Object.<init>()V'
p2
I1
sS'com/google/javascript/jscomp/RenameVars$2.<init>()V'
p3
I1
sS'com/google/javascript/jscomp/RenameVars$1.<init>()V:java/lang/Object.<init>()V'
p4
I1
s.