(dp0
S'com/google/javascript/jscomp/CssRenamingMap$Style.values()[Lcom/google/javascript/jscomp/CssRenamingMap$Style;:[Lcom/google/javascript/jscomp/CssRenamingMap$Style;.clone()Ljava/lang/Object;'
p1
I1
sS'com/google/javascript/jscomp/CssRenamingMap$Style.values()[Lcom/google/javascript/jscomp/CssRenamingMap$Style;'
p2
I1
sS'com/google/javascript/jscomp/CssRenamingMap$Style.ordinal()I'
p3
I2
sS'com/google/javascript/jscomp/CssRenamingMap$Style.values()[Lcom/google/javascript/jscomp/CssRenamingMap$Style;:com/google/javascript/jscomp/CssRenamingMap$Style.<init>(Ljava/lang/String;I)V:java/lang/Enum.<init>(Ljava/lang/String;I)V'
p4
I2
sS'com/google/javascript/jscomp/CssRenamingMap$Style.values()[Lcom/google/javascript/jscomp/CssRenamingMap$Style;:com/google/javascript/jscomp/CssRenamingMap$Style.<init>(Ljava/lang/String;I)V'
p5
I2
s.