(dp0
S'com/google/javascript/jscomp/ReplaceIdGenerators$RenameStrategy.<init>(Ljava/lang/String;I)V:java/lang/Enum.<init>(Ljava/lang/String;I)V'
p1
I4
sS'com/google/javascript/jscomp/ReplaceIdGenerators$RenameStrategy.<init>(Ljava/lang/String;I)V'
p2
I4
s.