(dp0
S'com/google/javascript/jscomp/DiagnosticType.make(Ljava/lang/String;Lcom/google/javascript/jscomp/CheckLevel;Ljava/lang/String;)Lcom/google/javascript/jscomp/DiagnosticType;'
p1
I34
sS'com/google/javascript/jscomp/DiagnosticType.make(Ljava/lang/String;Lcom/google/javascript/jscomp/CheckLevel;Ljava/lang/String;)Lcom/google/javascript/jscomp/DiagnosticType;:com/google/javascript/jscomp/DiagnosticType.<init>(Ljava/lang/String;Lcom/google/javascript/jscomp/CheckLevel;Ljava/text/MessageFormat;)V:java/lang/Object.<init>()V'
p2
I34
sS'com/google/common/collect/Maps.newHashMap()Ljava/util/HashMap;'
p3
I1
sS'com/google/javascript/jscomp/CheckLevel.<init>(Ljava/lang/String;I)V'
p4
I3
sS'com/google/javascript/jscomp/CheckLevel.<init>(Ljava/lang/String;I)V:java/lang/Enum.<init>(Ljava/lang/String;I)V'
p5
I3
sS'com/google/javascript/jscomp/DiagnosticType.make(Ljava/lang/String;Lcom/google/javascript/jscomp/CheckLevel;Ljava/lang/String;)Lcom/google/javascript/jscomp/DiagnosticType;:java/text/MessageFormat.<init>(Ljava/lang/String;)V'
p6
I34
sS'com/google/javascript/jscomp/DiagnosticType.make(Ljava/lang/String;Lcom/google/javascript/jscomp/CheckLevel;Ljava/lang/String;)Lcom/google/javascript/jscomp/DiagnosticType;:com/google/javascript/jscomp/DiagnosticType.<init>(Ljava/lang/String;Lcom/google/javascript/jscomp/CheckLevel;Ljava/text/MessageFormat;)V'
p7
I34
s.