(dp0
S'com/google/javascript/rhino/jstype/ObjectType.createDelegateSuffix(Ljava/lang/String;)Ljava/lang/String;'
p1
I1
sS'com/google/javascript/jscomp/DiagnosticType.warning(Ljava/lang/String;Ljava/lang/String;)Lcom/google/javascript/jscomp/DiagnosticType;:com/google/javascript/jscomp/CheckLevel.<init>(Ljava/lang/String;I)V:java/lang/Enum.<init>(Ljava/lang/String;I)V'
p2
I3
sS'com/google/javascript/jscomp/DiagnosticType.warning(Ljava/lang/String;Ljava/lang/String;)Lcom/google/javascript/jscomp/DiagnosticType;:com/google/javascript/jscomp/DiagnosticType.make(Ljava/lang/String;Lcom/google/javascript/jscomp/CheckLevel;Ljava/lang/String;)Lcom/google/javascript/jscomp/DiagnosticType;:java/text/MessageFormat.<init>(Ljava/lang/String;)V'
p3
I7
sS'com/google/javascript/jscomp/DiagnosticType.disabled(Ljava/lang/String;Ljava/lang/String;)Lcom/google/javascript/jscomp/DiagnosticType;'
p4
I1
sS'com/google/javascript/rhino/jstype/ObjectType.createDelegateSuffix(Ljava/lang/String;)Ljava/lang/String;:java/lang/StringBuilder.append(Ljava/lang/String;)Ljava/lang/StringBuilder;'
p5
I3
sS'com/google/javascript/jscomp/DiagnosticType.disabled(Ljava/lang/String;Ljava/lang/String;)Lcom/google/javascript/jscomp/DiagnosticType;:com/google/javascript/jscomp/DiagnosticType.make(Ljava/lang/String;Lcom/google/javascript/jscomp/CheckLevel;Ljava/lang/String;)Lcom/google/javascript/jscomp/DiagnosticType;:java/text/MessageFormat.<init>(Ljava/lang/String;)V'
p6
I1
sS'com/google/javascript/rhino/jstype/ObjectType.createDelegateSuffix(Ljava/lang/String;)Ljava/lang/String;:com/google/javascript/rhino/jstype/CanCastToVisitor.<init>()V'
p7
I1
sS'com/google/javascript/rhino/jstype/ObjectType.createDelegateSuffix(Ljava/lang/String;)Ljava/lang/String;:java/lang/StringBuilder.toString()Ljava/lang/String;'
p8
I1
sS'com/google/javascript/rhino/jstype/ObjectType.createDelegateSuffix(Ljava/lang/String;)Ljava/lang/String;:com/google/javascript/rhino/jstype/JSType$1.<init>()V'
p9
I1
sS'com/google/javascript/jscomp/DiagnosticType.warning(Ljava/lang/String;Ljava/lang/String;)Lcom/google/javascript/jscomp/DiagnosticType;:com/google/javascript/jscomp/CheckLevel.<init>(Ljava/lang/String;I)V'
p10
I3
sS'com/google/javascript/jscomp/DiagnosticType.warning(Ljava/lang/String;Ljava/lang/String;)Lcom/google/javascript/jscomp/DiagnosticType;:com/google/javascript/jscomp/DiagnosticType.make(Ljava/lang/String;Lcom/google/javascript/jscomp/CheckLevel;Ljava/lang/String;)Lcom/google/javascript/jscomp/DiagnosticType;:com/google/javascript/jscomp/DiagnosticType.<init>(Ljava/lang/String;Lcom/google/javascript/jscomp/CheckLevel;Ljava/text/MessageFormat;)V:java/lang/Object.<init>()V'
p11
I7
sS'com/google/javascript/rhino/jstype/ObjectType.createDelegateSuffix(Ljava/lang/String;)Ljava/lang/String;:java/lang/StringBuilder.<init>()V'
p12
I1
sS'com/google/javascript/jscomp/DiagnosticType.warning(Ljava/lang/String;Ljava/lang/String;)Lcom/google/javascript/jscomp/DiagnosticType;:com/google/javascript/jscomp/DiagnosticType.make(Ljava/lang/String;Lcom/google/javascript/jscomp/CheckLevel;Ljava/lang/String;)Lcom/google/javascript/jscomp/DiagnosticType;'
p13
I7
sS'com/google/javascript/jscomp/DiagnosticType.disabled(Ljava/lang/String;Ljava/lang/String;)Lcom/google/javascript/jscomp/DiagnosticType;:com/google/javascript/jscomp/DiagnosticType.make(Ljava/lang/String;Lcom/google/javascript/jscomp/CheckLevel;Ljava/lang/String;)Lcom/google/javascript/jscomp/DiagnosticType;'
p14
I1
sS'com/google/javascript/jscomp/DiagnosticType.warning(Ljava/lang/String;Ljava/lang/String;)Lcom/google/javascript/jscomp/DiagnosticType;'
p15
I7
sS'com/google/javascript/jscomp/DiagnosticType.disabled(Ljava/lang/String;Ljava/lang/String;)Lcom/google/javascript/jscomp/DiagnosticType;:com/google/javascript/jscomp/DiagnosticType.make(Ljava/lang/String;Lcom/google/javascript/jscomp/CheckLevel;Ljava/lang/String;)Lcom/google/javascript/jscomp/DiagnosticType;:com/google/javascript/jscomp/DiagnosticType.<init>(Ljava/lang/String;Lcom/google/javascript/jscomp/CheckLevel;Ljava/text/MessageFormat;)V'
p16
I1
sS'com/google/javascript/jscomp/DiagnosticType.disabled(Ljava/lang/String;Ljava/lang/String;)Lcom/google/javascript/jscomp/DiagnosticType;:com/google/javascript/jscomp/DiagnosticType.make(Ljava/lang/String;Lcom/google/javascript/jscomp/CheckLevel;Ljava/lang/String;)Lcom/google/javascript/jscomp/DiagnosticType;:com/google/javascript/jscomp/DiagnosticType.<init>(Ljava/lang/String;Lcom/google/javascript/jscomp/CheckLevel;Ljava/text/MessageFormat;)V:java/lang/Object.<init>()V'
p17
I1
sS'com/google/javascript/rhino/jstype/ObjectType.createDelegateSuffix(Ljava/lang/String;)Ljava/lang/String;:com/google/javascript/rhino/jstype/JSType$1.<init>()V:java/lang/Object.<init>()V'
p18
I1
sS'com/google/javascript/jscomp/DiagnosticType.warning(Ljava/lang/String;Ljava/lang/String;)Lcom/google/javascript/jscomp/DiagnosticType;:com/google/javascript/jscomp/DiagnosticType.make(Ljava/lang/String;Lcom/google/javascript/jscomp/CheckLevel;Ljava/lang/String;)Lcom/google/javascript/jscomp/DiagnosticType;:com/google/javascript/jscomp/DiagnosticType.<init>(Ljava/lang/String;Lcom/google/javascript/jscomp/CheckLevel;Ljava/text/MessageFormat;)V'
p19
I7
sS'com/google/javascript/rhino/jstype/ObjectType.createDelegateSuffix(Ljava/lang/String;)Ljava/lang/String;:com/google/javascript/rhino/jstype/CanCastToVisitor.<init>()V:java/lang/Object.<init>()V'
p20
I1
s.