(dp0
S'com/google/javascript/jscomp/TypeMatchingStrategy.<init>(Ljava/lang/String;IZZZ)V'
p1
I3
sS'com/google/javascript/jscomp/TypeMatchingStrategy.<init>(Ljava/lang/String;IZZZ)V:java/lang/Enum.<init>(Ljava/lang/String;I)V'
p2
I3
s.