(dp0
S'com/google/javascript/jscomp/DiagnosticType.warning(Ljava/lang/String;Ljava/lang/String;)Lcom/google/javascript/jscomp/DiagnosticType;:com/google/javascript/jscomp/DiagnosticType.make(Ljava/lang/String;Lcom/google/javascript/jscomp/CheckLevel;Ljava/lang/String;)Lcom/google/javascript/jscomp/DiagnosticType;'
p1
I2
sS'com/google/javascript/jscomp/DiagnosticType.warning(Ljava/lang/String;Ljava/lang/String;)Lcom/google/javascript/jscomp/DiagnosticType;:com/google/javascript/jscomp/CheckLevel.<init>(Ljava/lang/String;I)V:java/lang/Enum.<init>(Ljava/lang/String;I)V'
p2
I3
sS'com/google/javascript/jscomp/DiagnosticType.warning(Ljava/lang/String;Ljava/lang/String;)Lcom/google/javascript/jscomp/DiagnosticType;:com/google/javascript/jscomp/DiagnosticType.make(Ljava/lang/String;Lcom/google/javascript/jscomp/CheckLevel;Ljava/lang/String;)Lcom/google/javascript/jscomp/DiagnosticType;:com/google/javascript/jscomp/DiagnosticType.<init>(Ljava/lang/String;Lcom/google/javascript/jscomp/CheckLevel;Ljava/text/MessageFormat;)V'
p3
I2
sS'com/google/javascript/jscomp/DiagnosticType.warning(Ljava/lang/String;Ljava/lang/String;)Lcom/google/javascript/jscomp/DiagnosticType;:com/google/javascript/jscomp/DiagnosticType.make(Ljava/lang/String;Lcom/google/javascript/jscomp/CheckLevel;Ljava/lang/String;)Lcom/google/javascript/jscomp/DiagnosticType;:java/text/MessageFormat.<init>(Ljava/lang/String;)V'
p4
I2
sS'com/google/javascript/jscomp/DiagnosticType.warning(Ljava/lang/String;Ljava/lang/String;)Lcom/google/javascript/jscomp/DiagnosticType;:com/google/javascript/jscomp/CheckLevel.<init>(Ljava/lang/String;I)V'
p5
I3
sS'com/google/javascript/jscomp/DiagnosticType.warning(Ljava/lang/String;Ljava/lang/String;)Lcom/google/javascript/jscomp/DiagnosticType;:com/google/javascript/jscomp/DiagnosticType.make(Ljava/lang/String;Lcom/google/javascript/jscomp/CheckLevel;Ljava/lang/String;)Lcom/google/javascript/jscomp/DiagnosticType;:com/google/javascript/jscomp/DiagnosticType.<init>(Ljava/lang/String;Lcom/google/javascript/jscomp/CheckLevel;Ljava/text/MessageFormat;)V:java/lang/Object.<init>()V'
p6
I2
sS'com/google/javascript/jscomp/DiagnosticType.warning(Ljava/lang/String;Ljava/lang/String;)Lcom/google/javascript/jscomp/DiagnosticType;'
p7
I2
sS'com/google/common/collect/ImmutableSet.of(Ljava/lang/Object;Ljava/lang/Object;Ljava/lang/Object;Ljava/lang/Object;Ljava/lang/Object;Ljava/lang/Object;[Ljava/lang/Object;)Lcom/google/common/collect/ImmutableSet;'
p8
I1
s.