(dp0
S'com/google/javascript/jscomp/WarningsGuard$Priority.<init>(Ljava/lang/String;II)V:java/lang/Enum.<init>(Ljava/lang/String;I)V'
p1
I7
sS'com/google/javascript/jscomp/WarningsGuard$Priority.<init>(Ljava/lang/String;II)V'
p2
I7
s.