(dp0
S'com/google/javascript/jscomp/XtbMessageBundle$SecureEntityResolver.<init>(Lcom/google/javascript/jscomp/XtbMessageBundle$1;)V:com/google/javascript/jscomp/XtbMessageBundle$SecureEntityResolver.<init>()V'
p1
I1
sS'com/google/javascript/jscomp/XtbMessageBundle$SecureEntityResolver.<init>(Lcom/google/javascript/jscomp/XtbMessageBundle$1;)V:com/google/javascript/jscomp/XtbMessageBundle$SecureEntityResolver.<init>()V:java/lang/Object.<init>()V'
p2
I1
sS'com/google/javascript/jscomp/XtbMessageBundle$SecureEntityResolver.<init>(Lcom/google/javascript/jscomp/XtbMessageBundle$1;)V'
p3
I1
s.