(dp0
S'java/lang/String.<init>([C)V'
p1
I1
sS'java/lang/Class.desiredAssertionStatus()Z'
p2
I1
sS'com/google/debugging/sourcemap/Base64.toBase64(I)C:java/lang/String.charAt(I)C'
p3
I6
sS'com/google/debugging/sourcemap/Base64.toBase64(I)C'
p4
I6
sS'java/util/Arrays.fill([II)V'
p5
I1
sS'java/lang/String.charAt(I)C'
p6
I65
sS'java/lang/String.length()I'
p7
I65
s.