(dp0
S'com/google/common/base/Preconditions.checkState(Z)V:com/google/common/base/Preconditions.checkState(Z)V:com/google/common/base/Preconditions.checkState(Z)V:com/google/common/base/Preconditions.checkState(Z)V:com/google/common/base/Preconditions.checkState(Z)V:com/google/javascript/rhino/IR.declaration(Lcom/google/javascript/rhino/Node;I)Lcom/google/javascript/rhino/Node;:com/google/common/base/Preconditions.checkState(Z)V:com/google/common/base/Preconditions.checkState(Z)V:com/google/common/base/Preconditions.checkState(Z)V:com/google/common/base/Preconditions.checkState(Z)V:com/google/common/base/Preconditions.checkState(Z)V:com/google/common/base/Preconditions.checkState(Z)V:com/google/javascript/rhino/Node.newString(ILjava/lang/String;)Lcom/google/javascript/rhino/Node;:com/google/javascript/rhino/Node$StringNode.<init>(ILjava/lang/String;)V'
p1
I1
sS'com/google/common/base/Preconditions.checkState(Z)V:com/google/javascript/rhino/IR.paramList()Lcom/google/javascript/rhino/Node;:com/google/javascript/rhino/Node.<init>(I)V'
p2
I1
sS'com/google/common/base/Preconditions.checkState(Z)V:com/google/common/base/Preconditions.checkState(Z)V:com/google/common/base/Preconditions.checkState(Z)V:com/google/common/base/Preconditions.checkState(Z)V:com/google/common/base/Preconditions.checkState(Z)V:com/google/javascript/rhino/IR.declaration(Lcom/google/javascript/rhino/Node;I)Lcom/google/javascript/rhino/Node;:com/google/common/base/Preconditions.checkState(Z)V'
p3
I1
sS'com/google/common/base/Preconditions.checkState(Z)V:com/google/common/base/Preconditions.checkState(Z)V:com/google/common/base/Preconditions.checkState(Z)V:com/google/common/base/Preconditions.checkState(Z)V:com/google/common/base/Preconditions.checkState(Z)V:com/google/javascript/rhino/IR.declaration(Lcom/google/javascript/rhino/Node;I)Lcom/google/javascript/rhino/Node;:com/google/common/base/Preconditions.checkState(Z)V:com/google/javascript/rhino/Node.newString(ILjava/lang/String;)Lcom/google/javascript/rhino/Node;:com/google/javascript/rhino/Node$StringNode.<init>(ILjava/lang/String;)V:com/google/javascript/rhino/Node.<init>(I)V:java/lang/Object.<init>()V'
p4
I1
sS'com/google/common/base/Preconditions.checkState(Z)V:com/google/common/base/Preconditions.checkState(Z)V:com/google/common/base/Preconditions.checkState(Z)V:com/google/common/base/Preconditions.checkState(Z)V:com/google/common/base/Preconditions.checkState(Z)V:com/google/javascript/rhino/IR.declaration(Lcom/google/javascript/rhino/Node;I)Lcom/google/javascript/rhino/Node;:com/google/common/base/Preconditions.checkState(Z)V:com/google/common/base/Preconditions.checkState(Z)V:com/google/common/base/Preconditions.checkState(Z)V:com/google/common/base/Preconditions.checkState(Z)V:com/google/common/base/Preconditions.checkState(Z)V:com/google/javascript/rhino/Node.isBlock()Z'
p5
I1
sS'com/google/javascript/rhino/Node.toStringTreeImpl()Ljava/lang/String;:com/google/javascript/rhino/Node.appendStringTree(Ljava/lang/Appendable;)V:com/google/javascript/rhino/Node.toStringTreeHelper(Lcom/google/javascript/rhino/Node;ILjava/lang/Appendable;)V:com/google/javascript/rhino/Node.toString()Ljava/lang/String;:com/google/javascript/rhino/Node.toString(ZZZ)Ljava/lang/String;:com/google/javascript/rhino/Node.toString(Ljava/lang/StringBuilder;ZZZ)V:com/google/javascript/rhino/Node.getLineno()I'
p6
I1
sS'com/google/common/base/Preconditions.checkState(Z)V:com/google/javascript/rhino/IR.paramList()Lcom/google/javascript/rhino/Node;'
p7
I1
sS'com/google/common/base/Preconditions.checkState(Z)V:com/google/common/base/Preconditions.checkState(Z)V:com/google/common/base/Preconditions.checkState(Z)V:com/google/common/base/Preconditions.checkState(Z)V:com/google/common/base/Preconditions.checkState(Z)V:com/google/javascript/rhino/IR.declaration(Lcom/google/javascript/rhino/Node;I)Lcom/google/javascript/rhino/Node;:com/google/common/base/Preconditions.checkState(Z)V:com/google/common/base/Preconditions.checkState(Z)V:com/google/common/base/Preconditions.checkState(Z)V:com/google/common/base/Preconditions.checkState(Z)V:com/google/common/base/Preconditions.checkState(Z)V:com/google/common/base/Preconditions.checkState(Z)V:com/google/javascript/rhino/Node.isName()Z'
p8
I1
sS'com/google/common/base/Preconditions.checkState(Z)V:com/google/common/base/Preconditions.checkState(Z)V:com/google/common/base/Preconditions.checkState(Z)V:com/google/common/base/Preconditions.checkState(Z)V:com/google/common/base/Preconditions.checkState(Z)V:com/google/javascript/rhino/IR.declaration(Lcom/google/javascript/rhino/Node;I)Lcom/google/javascript/rhino/Node;:com/google/common/base/Preconditions.checkState(Z)V:com/google/common/base/Preconditions.checkState(Z)V:com/google/common/base/Preconditions.checkState(Z)V:com/google/common/base/Preconditions.checkState(Z)V:com/google/common/base/Preconditions.checkState(Z)V:com/google/common/base/Preconditions.checkState(Z)V:com/google/common/base/Preconditions.checkState(Z)V:com/google/javascript/rhino/Node.isName()Z'
p9
I1
sS'com/google/javascript/rhino/Node.newString(ILjava/lang/String;)Lcom/google/javascript/rhino/Node;:com/google/javascript/rhino/Node$StringNode.<init>(ILjava/lang/String;)V:com/google/javascript/rhino/Node.<init>(I)V:java/lang/Object.<init>()V'
p10
I1
sS'com/google/common/base/Preconditions.checkState(Z)V:com/google/javascript/rhino/Node.toStringTreeImpl()Ljava/lang/String;:com/google/javascript/rhino/Node.appendStringTree(Ljava/lang/Appendable;)V:com/google/javascript/rhino/Node.toStringTreeHelper(Lcom/google/javascript/rhino/Node;ILjava/lang/Appendable;)V:com/google/javascript/rhino/Node.toString()Ljava/lang/String;:com/google/javascript/rhino/Node.toString(ZZZ)Ljava/lang/String;:java/lang/StringBuilder.<init>()V'
p11
I1
sS'com/google/common/base/Preconditions.checkState(Z)V:com/google/common/base/Preconditions.checkState(Z)V:com/google/common/base/Preconditions.checkState(Z)V:com/google/common/base/Preconditions.checkState(Z)V:com/google/common/base/Preconditions.checkState(Z)V:com/google/javascript/rhino/IR.declaration(Lcom/google/javascript/rhino/Node;I)Lcom/google/javascript/rhino/Node;:com/google/common/base/Preconditions.checkState(Z)V:com/google/common/base/Preconditions.checkState(Z)V:com/google/javascript/rhino/IR.mayBeExpression(Lcom/google/javascript/rhino/Node;)Z'
p12
I1
sS'com/google/common/base/Preconditions.checkState(Z)V:com/google/common/base/Preconditions.checkState(Z)V:com/google/common/base/Preconditions.checkState(Z)V:com/google/javascript/rhino/Node.<init>(I)V:java/lang/Object.<init>()V'
p13
I3
sS'com/google/common/base/Preconditions.checkState(Z)V:com/google/common/base/Preconditions.checkState(Z)V:com/google/common/base/Preconditions.checkState(Z)V:com/google/javascript/rhino/IR.script()Lcom/google/javascript/rhino/Node;:com/google/javascript/rhino/Node.<init>(I)V'
p14
I1
sS'com/google/common/base/Preconditions.checkState(Z)V:com/google/javascript/rhino/Node.<init>(I)V:java/lang/Object.<init>()V'
p15
I1
sS'com/google/common/base/Preconditions.checkState(Z)V:com/google/common/base/Preconditions.checkState(Z)V:com/google/common/base/Preconditions.checkState(Z)V:com/google/common/base/Preconditions.checkState(Z)V:com/google/javascript/rhino/IR.script()Lcom/google/javascript/rhino/Node;:com/google/javascript/rhino/Node.<init>(I)V:java/lang/Object.<init>()V'
p16
I1
sS'com/google/common/base/Preconditions.checkState(Z)V:com/google/common/base/Preconditions.checkState(Z)V:com/google/common/base/Preconditions.checkState(Z)V:com/google/common/base/Preconditions.checkState(Z)V:com/google/common/base/Preconditions.checkState(Z)V:com/google/javascript/rhino/IR.declaration(Lcom/google/javascript/rhino/Node;I)Lcom/google/javascript/rhino/Node;:com/google/common/base/Preconditions.checkState(Z)V:com/google/common/base/Preconditions.checkState(Z)V:com/google/javascript/rhino/IR.mayBeExpression(Lcom/google/javascript/rhino/Node;)Z:com/google/javascript/rhino/Node.getType()I'
p17
I1
sS'com/google/common/base/Preconditions.checkState(Z)V:com/google/common/base/Preconditions.checkState(Z)V:com/google/common/base/Preconditions.checkState(Z)V:com/google/common/base/Preconditions.checkState(Z)V:com/google/common/base/Preconditions.checkState(Z)V:com/google/javascript/rhino/IR.declaration(Lcom/google/javascript/rhino/Node;I)Lcom/google/javascript/rhino/Node;:com/google/common/base/Preconditions.checkState(Z)V:com/google/javascript/rhino/Node.toStringTreeImpl()Ljava/lang/String;:com/google/javascript/rhino/Node.appendStringTree(Ljava/lang/Appendable;)V:com/google/javascript/rhino/Node.toStringTreeHelper(Lcom/google/javascript/rhino/Node;ILjava/lang/Appendable;)V:com/google/javascript/rhino/Node.toString()Ljava/lang/String;:com/google/javascript/rhino/Node.toString(ZZZ)Ljava/lang/String;:com/google/javascript/rhino/Node.toString(Ljava/lang/StringBuilder;ZZZ)V:java/lang/StringBuilder.append(Ljava/lang/String;)Ljava/lang/StringBuilder;'
p18
I1
sS'com/google/javascript/rhino/Node.toStringTreeImpl()Ljava/lang/String;:com/google/javascript/rhino/Node.appendStringTree(Ljava/lang/Appendable;)V:com/google/javascript/rhino/Node.toStringTreeHelper(Lcom/google/javascript/rhino/Node;ILjava/lang/Appendable;)V:com/google/javascript/rhino/Node.toString()Ljava/lang/String;:com/google/javascript/rhino/Node.toString(ZZZ)Ljava/lang/String;:java/lang/StringBuilder.<init>()V'
p19
I1
sS'com/google/common/base/Preconditions.checkState(Z)V:com/google/common/base/Preconditions.checkState(Z)V:com/google/javascript/rhino/IR.block()Lcom/google/javascript/rhino/Node;'
p20
I1
sS'com/google/common/base/Preconditions.checkState(Z)V:com/google/common/base/Preconditions.checkState(Z)V:com/google/common/base/Preconditions.checkState(Z)V:com/google/common/base/Preconditions.checkState(Z)V:com/google/common/base/Preconditions.checkState(Z)V:com/google/javascript/rhino/IR.declaration(Lcom/google/javascript/rhino/Node;I)Lcom/google/javascript/rhino/Node;:com/google/common/base/Preconditions.checkState(Z)V:com/google/javascript/rhino/Node.toStringTreeImpl()Ljava/lang/String;:com/google/javascript/rhino/Node.appendStringTree(Ljava/lang/Appendable;)V:com/google/javascript/rhino/Node.toStringTreeHelper(Lcom/google/javascript/rhino/Node;ILjava/lang/Appendable;)V:com/google/javascript/rhino/Node.toString()Ljava/lang/String;:com/google/javascript/rhino/Node.toString(ZZZ)Ljava/lang/String;:com/google/javascript/rhino/Node.toString(Ljava/lang/StringBuilder;ZZZ)V:com/google/javascript/rhino/Node.getSortedPropTypes()[I'
p21
I1
sS'com/google/common/base/Preconditions.checkState(Z)V:com/google/common/base/Preconditions.checkState(Z)V:com/google/javascript/rhino/Node.toStringTreeImpl()Ljava/lang/String;:com/google/javascript/rhino/Node.appendStringTree(Ljava/lang/Appendable;)V:com/google/javascript/rhino/Node.toStringTreeHelper(Lcom/google/javascript/rhino/Node;ILjava/lang/Appendable;)V:java/lang/Appendable.append(C)Ljava/lang/Appendable;'
p22
I1
sS'com/google/common/base/Preconditions.checkState(Z)V:com/google/common/base/Preconditions.checkState(Z)V:com/google/common/base/Preconditions.checkState(Z)V:com/google/common/base/Preconditions.checkState(Z)V:com/google/common/base/Preconditions.checkState(Z)V:com/google/javascript/rhino/IR.declaration(Lcom/google/javascript/rhino/Node;I)Lcom/google/javascript/rhino/Node;:com/google/common/base/Preconditions.checkState(Z)V:com/google/common/base/Preconditions.checkState(Z)V:com/google/common/base/Preconditions.checkState(Z)V:com/google/common/base/Preconditions.checkState(Z)V:com/google/common/base/Preconditions.checkState(Z)V:com/google/common/base/Preconditions.checkState(Z)V:com/google/common/base/Preconditions.checkState(Z)V:com/google/common/base/Preconditions.checkState(Z)V:com/google/javascript/rhino/Node.newNumber(D)Lcom/google/javascript/rhino/Node;'
p23
I1
sS'com/google/common/base/Preconditions.checkState(Z)V:com/google/javascript/rhino/Node.newString(ILjava/lang/String;)Lcom/google/javascript/rhino/Node;:com/google/javascript/rhino/Node$StringNode.<init>(ILjava/lang/String;)V'
p24
I2
sS'com/google/common/base/Preconditions.checkState(Z)V:com/google/common/base/Preconditions.checkState(Z)V:com/google/common/base/Preconditions.checkState(Z)V:com/google/javascript/rhino/Node.toStringTreeImpl()Ljava/lang/String;:com/google/javascript/rhino/Node.appendStringTree(Ljava/lang/Appendable;)V:com/google/javascript/rhino/Node.toStringTreeHelper(Lcom/google/javascript/rhino/Node;ILjava/lang/Appendable;)V:com/google/javascript/rhino/Node.getFirstChild()Lcom/google/javascript/rhino/Node;'
p25
I1
sS'com/google/javascript/rhino/Node.toStringTreeImpl()Ljava/lang/String;:com/google/javascript/rhino/Node.appendStringTree(Ljava/lang/Appendable;)V:com/google/javascript/rhino/Node.toStringTreeHelper(Lcom/google/javascript/rhino/Node;ILjava/lang/Appendable;)V:com/google/javascript/rhino/Node.toString()Ljava/lang/String;:com/google/javascript/rhino/Node.toString(ZZZ)Ljava/lang/String;:java/lang/StringBuilder.toString()Ljava/lang/String;'
p26
I1
sS'com/google/common/base/Preconditions.checkState(Z)V:com/google/common/base/Preconditions.checkState(Z)V:com/google/common/base/Preconditions.checkState(Z)V:com/google/common/base/Preconditions.checkState(Z)V:com/google/common/base/Preconditions.checkState(Z)V:com/google/javascript/rhino/IR.declaration(Lcom/google/javascript/rhino/Node;I)Lcom/google/javascript/rhino/Node;:com/google/common/base/Preconditions.checkState(Z)V:com/google/common/base/Preconditions.checkState(Z)V'
p27
I1
sS'com/google/javascript/rhino/Node.newString(ILjava/lang/String;)Lcom/google/javascript/rhino/Node;:com/google/javascript/rhino/Node$StringNode.<init>(ILjava/lang/String;)V'
p28
I1
sS'com/google/javascript/rhino/Node.toStringTreeImpl()Ljava/lang/String;:com/google/javascript/rhino/Node.appendStringTree(Ljava/lang/Appendable;)V:com/google/javascript/rhino/Node.toStringTreeHelper(Lcom/google/javascript/rhino/Node;ILjava/lang/Appendable;)V'
p29
I1
sS'com/google/common/base/Preconditions.checkState(Z)V:com/google/common/base/Preconditions.checkState(Z)V:com/google/common/base/Preconditions.checkState(Z)V:com/google/javascript/rhino/IR.mayBeStatementNoReturn(Lcom/google/javascript/rhino/Node;)Z:com/google/javascript/rhino/Node.getType()I'
p30
I1
sS'com/google/common/base/Preconditions.checkState(Z)V:com/google/common/base/Preconditions.checkState(Z)V:com/google/javascript/rhino/Node.toStringTreeImpl()Ljava/lang/String;:com/google/javascript/rhino/Node.appendStringTree(Ljava/lang/Appendable;)V:com/google/javascript/rhino/Node.toStringTreeHelper(Lcom/google/javascript/rhino/Node;ILjava/lang/Appendable;)V:com/google/javascript/rhino/Node.toString()Ljava/lang/String;:com/google/javascript/rhino/Node.toString(ZZZ)Ljava/lang/String;:com/google/javascript/rhino/Node.toString(Ljava/lang/StringBuilder;ZZZ)V:java/lang/StringBuilder.append(Ljava/lang/String;)Ljava/lang/StringBuilder;'
p31
I1
sS'com/google/common/base/Preconditions.checkState(Z)V:com/google/common/base/Preconditions.checkState(Z)V:com/google/common/base/Preconditions.checkState(Z)V:com/google/javascript/rhino/Node.toStringTreeImpl()Ljava/lang/String;:com/google/javascript/rhino/Node.appendStringTree(Ljava/lang/Appendable;)V:com/google/javascript/rhino/Node.toStringTreeHelper(Lcom/google/javascript/rhino/Node;ILjava/lang/Appendable;)V:com/google/javascript/rhino/Node.toString()Ljava/lang/String;:com/google/javascript/rhino/Node.toString(ZZZ)Ljava/lang/String;:com/google/javascript/rhino/Node.toString(Ljava/lang/StringBuilder;ZZZ)V'
p32
I1
sS'com/google/javascript/rhino/Node.newString(ILjava/lang/String;)Lcom/google/javascript/rhino/Node;:com/google/javascript/rhino/Node$StringNode.<init>(ILjava/lang/String;)V:com/google/javascript/rhino/Node.<init>(I)V'
p33
I1
sS'com/google/common/base/Preconditions.checkState(Z)V:com/google/common/base/Preconditions.checkState(Z)V:com/google/common/base/Preconditions.checkState(Z)V:com/google/common/base/Preconditions.checkState(Z)V:com/google/common/base/Preconditions.checkState(Z)V:com/google/javascript/rhino/IR.declaration(Lcom/google/javascript/rhino/Node;I)Lcom/google/javascript/rhino/Node;:com/google/common/base/Preconditions.checkState(Z)V:com/google/common/base/Preconditions.checkState(Z)V:com/google/common/base/Preconditions.checkState(Z)V:com/google/common/base/Preconditions.checkState(Z)V:com/google/common/base/Preconditions.checkState(Z)V:com/google/common/base/Preconditions.checkState(Z)V:com/google/javascript/rhino/Node.newString(ILjava/lang/String;)Lcom/google/javascript/rhino/Node;:com/google/javascript/rhino/Node$StringNode.<init>(ILjava/lang/String;)V:com/google/javascript/rhino/Node.<init>(I)V'
p34
I1
sS'com/google/common/base/Preconditions.checkState(Z)V:com/google/common/base/Preconditions.checkState(Z)V:com/google/common/base/Preconditions.checkState(Z)V:com/google/common/base/Preconditions.checkState(Z)V:com/google/common/base/Preconditions.checkState(Z)V:com/google/javascript/rhino/IR.declaration(Lcom/google/javascript/rhino/Node;I)Lcom/google/javascript/rhino/Node;:com/google/common/base/Preconditions.checkState(Z)V:com/google/common/base/Preconditions.checkState(Z)V:com/google/common/base/Preconditions.checkState(Z)V:com/google/common/base/Preconditions.checkState(Z)V:com/google/common/base/Preconditions.checkState(Z)V:com/google/common/base/Preconditions.checkState(Z)V:com/google/common/base/Preconditions.checkState(Z)V:com/google/common/base/Preconditions.checkState(Z)V:com/google/javascript/rhino/IR.unaryOp(ILcom/google/javascript/rhino/Node;)Lcom/google/javascript/rhino/Node;:com/google/javascript/rhino/IR.mayBeExpression(Lcom/google/javascript/rhino/Node;)Z:com/google/javascript/rhino/Node.getType()I'
p35
I1
sS'com/google/common/base/Preconditions.checkState(Z)V:com/google/common/base/Preconditions.checkState(Z)V:com/google/common/base/Preconditions.checkState(Z)V:com/google/common/base/Preconditions.checkState(Z)V:com/google/common/base/Preconditions.checkState(Z)V:com/google/javascript/rhino/IR.declaration(Lcom/google/javascript/rhino/Node;I)Lcom/google/javascript/rhino/Node;:com/google/common/base/Preconditions.checkState(Z)V:com/google/javascript/rhino/Node.toStringTreeImpl()Ljava/lang/String;:com/google/javascript/rhino/Node.appendStringTree(Ljava/lang/Appendable;)V:com/google/javascript/rhino/Node.toStringTreeHelper(Lcom/google/javascript/rhino/Node;ILjava/lang/Appendable;)V'
p36
I1
sS'com/google/common/base/Preconditions.checkState(Z)V:com/google/common/base/Preconditions.checkState(Z)V:com/google/common/base/Preconditions.checkState(Z)V:com/google/common/base/Preconditions.checkState(Z)V:com/google/common/base/Preconditions.checkState(Z)V:com/google/javascript/rhino/IR.declaration(Lcom/google/javascript/rhino/Node;I)Lcom/google/javascript/rhino/Node;:com/google/common/base/Preconditions.checkState(Z)V:com/google/common/base/Preconditions.checkState(Z)V:com/google/common/base/Preconditions.checkState(Z)V:com/google/javascript/rhino/Node.newString(ILjava/lang/String;)Lcom/google/javascript/rhino/Node;:com/google/javascript/rhino/Node$StringNode.<init>(ILjava/lang/String;)V:com/google/javascript/rhino/Node.<init>(I)V'
p37
I1
sS'com/google/javascript/rhino/Node.toStringTreeImpl()Ljava/lang/String;:com/google/javascript/rhino/Node.appendStringTree(Ljava/lang/Appendable;)V:com/google/javascript/rhino/Node.toStringTreeHelper(Lcom/google/javascript/rhino/Node;ILjava/lang/Appendable;)V:com/google/javascript/rhino/Node.toString()Ljava/lang/String;:com/google/javascript/rhino/Node.toString(ZZZ)Ljava/lang/String;:com/google/javascript/rhino/Node.toString(Ljava/lang/StringBuilder;ZZZ)V:java/lang/StringBuilder.append(Ljava/lang/String;)Ljava/lang/StringBuilder;'
p38
I1
sS'com/google/common/base/Preconditions.checkState(Z)V:com/google/common/base/Preconditions.checkState(Z)V:com/google/common/base/Preconditions.checkState(Z)V:com/google/common/base/Preconditions.checkState(Z)V:com/google/common/base/Preconditions.checkState(Z)V:com/google/javascript/rhino/IR.declaration(Lcom/google/javascript/rhino/Node;I)Lcom/google/javascript/rhino/Node;:com/google/common/base/Preconditions.checkState(Z)V:com/google/common/base/Preconditions.checkState(Z)V:com/google/common/base/Preconditions.checkState(Z)V:com/google/common/base/Preconditions.checkState(Z)V:com/google/common/base/Preconditions.checkState(Z)V:com/google/common/base/Preconditions.checkState(Z)V:com/google/common/base/Preconditions.checkState(Z)V:com/google/javascript/rhino/Node.isName()Z:com/google/javascript/rhino/Node.getType()I'
p39
I1
sS'com/google/common/base/Preconditions.checkState(Z)V:com/google/common/base/Preconditions.checkState(Z)V:com/google/common/base/Preconditions.checkState(Z)V:com/google/javascript/rhino/Node.<init>(I)V'
p40
I3
sS'com/google/common/base/Preconditions.checkState(Z)V:com/google/common/base/Preconditions.checkState(Z)V:com/google/common/base/Preconditions.checkState(Z)V:com/google/javascript/rhino/IR.script()Lcom/google/javascript/rhino/Node;'
p41
I1
sS'com/google/common/base/Preconditions.checkState(Z)V:com/google/common/base/Preconditions.checkState(Z)V:com/google/common/base/Preconditions.checkState(Z)V:com/google/common/base/Preconditions.checkState(Z)V:com/google/javascript/rhino/IR.mayBeStatementNoReturn(Lcom/google/javascript/rhino/Node;)Z:com/google/javascript/rhino/Node.getType()I'
p42
I1
sS'com/google/common/base/Preconditions.checkState(Z)V:com/google/common/base/Preconditions.checkState(Z)V:com/google/javascript/rhino/Node.toStringTreeImpl()Ljava/lang/String;:java/lang/StringBuilder.<init>()V'
p43
I1
sS'com/google/common/base/Preconditions.checkState(Z)V:com/google/common/base/Preconditions.checkState(Z)V:com/google/common/base/Preconditions.checkState(Z)V:com/google/javascript/rhino/Node.toStringTreeImpl()Ljava/lang/String;:com/google/javascript/rhino/Node.appendStringTree(Ljava/lang/Appendable;)V:com/google/javascript/rhino/Node.toStringTreeHelper(Lcom/google/javascript/rhino/Node;ILjava/lang/Appendable;)V:com/google/javascript/rhino/Node.toString()Ljava/lang/String;'
p44
I1
sS'com/google/common/base/Preconditions.checkState(Z)V:com/google/common/base/Preconditions.checkState(Z)V:com/google/javascript/rhino/Node.toStringTreeImpl()Ljava/lang/String;:com/google/javascript/rhino/Node.appendStringTree(Ljava/lang/Appendable;)V:com/google/javascript/rhino/Node.toStringTreeHelper(Lcom/google/javascript/rhino/Node;ILjava/lang/Appendable;)V:com/google/javascript/rhino/Node.toString()Ljava/lang/String;:com/google/javascript/rhino/Node.toString(ZZZ)Ljava/lang/String;:java/lang/StringBuilder.<init>()V'
p45
I1
sS'com/google/javascript/rhino/Node.toStringTreeImpl()Ljava/lang/String;:com/google/javascript/rhino/Node.appendStringTree(Ljava/lang/Appendable;)V:com/google/javascript/rhino/Node.toStringTreeHelper(Lcom/google/javascript/rhino/Node;ILjava/lang/Appendable;)V:com/google/javascript/rhino/Node.toString()Ljava/lang/String;:com/google/javascript/rhino/Node.toString(ZZZ)Ljava/lang/String;:com/google/javascript/rhino/Node.toString(Ljava/lang/StringBuilder;ZZZ)V:com/google/javascript/rhino/Token.name(I)Ljava/lang/String;'
p46
I1
sS'com/google/javascript/rhino/Node.toStringTreeImpl()Ljava/lang/String;:com/google/javascript/rhino/Node.appendStringTree(Ljava/lang/Appendable;)V:com/google/javascript/rhino/Node.toStringTreeHelper(Lcom/google/javascript/rhino/Node;ILjava/lang/Appendable;)V:java/lang/Appendable.append(C)Ljava/lang/Appendable;'
p47
I1
sS'com/google/javascript/rhino/Node.toStringTreeImpl()Ljava/lang/String;:com/google/javascript/rhino/Node.appendStringTree(Ljava/lang/Appendable;)V:com/google/javascript/rhino/Node.toStringTreeHelper(Lcom/google/javascript/rhino/Node;ILjava/lang/Appendable;)V:com/google/javascript/rhino/Node.toString()Ljava/lang/String;:com/google/javascript/rhino/Node.toString(ZZZ)Ljava/lang/String;:com/google/javascript/rhino/Node.toString(Ljava/lang/StringBuilder;ZZZ)V:com/google/javascript/rhino/Node.getSortedPropTypes()[I'
p48
I1
sS'com/google/common/base/Preconditions.checkState(Z)V'
p49
I1
sS'com/google/common/base/Preconditions.checkState(Z)V:com/google/common/base/Preconditions.checkState(Z)V:com/google/common/base/Preconditions.checkState(Z)V:com/google/common/base/Preconditions.checkState(Z)V:com/google/common/base/Preconditions.checkState(Z)V:com/google/javascript/rhino/IR.declaration(Lcom/google/javascript/rhino/Node;I)Lcom/google/javascript/rhino/Node;:com/google/common/base/Preconditions.checkState(Z)V:com/google/common/base/Preconditions.checkState(Z)V:com/google/common/base/Preconditions.checkState(Z)V:com/google/common/base/Preconditions.checkState(Z)V:com/google/common/base/Preconditions.checkState(Z)V'
p50
I1
sS'com/google/javascript/rhino/Node.toStringTreeImpl()Ljava/lang/String;:com/google/javascript/rhino/Node.appendStringTree(Ljava/lang/Appendable;)V:com/google/javascript/rhino/Node.toStringTreeHelper(Lcom/google/javascript/rhino/Node;ILjava/lang/Appendable;)V:com/google/javascript/rhino/Node.getFirstChild()Lcom/google/javascript/rhino/Node;'
p51
I1
sS'com/google/common/base/Preconditions.checkState(Z)V:com/google/common/base/Preconditions.checkState(Z)V:com/google/common/base/Preconditions.checkState(Z)V:com/google/common/base/Preconditions.checkState(Z)V:com/google/common/base/Preconditions.checkState(Z)V:com/google/javascript/rhino/IR.declaration(Lcom/google/javascript/rhino/Node;I)Lcom/google/javascript/rhino/Node;:com/google/common/base/Preconditions.checkState(Z)V:com/google/javascript/rhino/Node.toStringTreeImpl()Ljava/lang/String;:com/google/javascript/rhino/Node.appendStringTree(Ljava/lang/Appendable;)V:com/google/javascript/rhino/Node.toStringTreeHelper(Lcom/google/javascript/rhino/Node;ILjava/lang/Appendable;)V:com/google/javascript/rhino/Node.toString()Ljava/lang/String;'
p52
I1
sS'com/google/common/base/Preconditions.checkState(Z)V:com/google/javascript/rhino/Node.toStringTreeImpl()Ljava/lang/String;:com/google/javascript/rhino/Node.appendStringTree(Ljava/lang/Appendable;)V:com/google/javascript/rhino/Node.toStringTreeHelper(Lcom/google/javascript/rhino/Node;ILjava/lang/Appendable;)V:java/lang/Appendable.append(Ljava/lang/CharSequence;)Ljava/lang/Appendable;'
p53
I1
sS'com/google/common/base/Preconditions.checkState(Z)V:com/google/common/base/Preconditions.checkState(Z)V:com/google/common/base/Preconditions.checkState(Z)V:com/google/common/base/Preconditions.checkState(Z)V:com/google/javascript/rhino/IR.script()Lcom/google/javascript/rhino/Node;:com/google/javascript/rhino/Node.<init>(I)V'
p54
I1
sS'com/google/common/base/Preconditions.checkState(Z)V:com/google/common/base/Preconditions.checkState(Z)V:com/google/common/base/Preconditions.checkState(Z)V:com/google/common/base/Preconditions.checkState(Z)V:com/google/common/base/Preconditions.checkState(Z)V:com/google/javascript/rhino/IR.declaration(Lcom/google/javascript/rhino/Node;I)Lcom/google/javascript/rhino/Node;:com/google/common/base/Preconditions.checkState(Z)V:com/google/common/base/Preconditions.checkState(Z)V:com/google/common/base/Preconditions.checkState(Z)V:com/google/common/base/Preconditions.checkState(Z)V:com/google/javascript/rhino/Node.newString(ILjava/lang/String;)Lcom/google/javascript/rhino/Node;'
p55
I1
sS'com/google/common/base/Preconditions.checkState(Z)V:com/google/common/base/Preconditions.checkState(Z)V:com/google/common/base/Preconditions.checkState(Z)V:com/google/common/base/Preconditions.checkState(Z)V:com/google/common/base/Preconditions.checkState(Z)V:com/google/javascript/rhino/IR.declaration(Lcom/google/javascript/rhino/Node;I)Lcom/google/javascript/rhino/Node;:com/google/common/base/Preconditions.checkState(Z)V:com/google/common/base/Preconditions.checkState(Z)V:com/google/common/base/Preconditions.checkState(Z)V:com/google/common/base/Preconditions.checkState(Z)V:com/google/common/base/Preconditions.checkState(Z)V:com/google/common/base/Preconditions.checkState(Z)V:com/google/common/base/Preconditions.checkState(Z)V:com/google/javascript/rhino/Node.<init>(I)V'
p56
I2
sS'com/google/common/base/Preconditions.checkState(Z)V:com/google/common/base/Preconditions.checkState(Z)V:com/google/common/base/Preconditions.checkState(Z)V:com/google/common/base/Preconditions.checkState(Z)V:com/google/common/base/Preconditions.checkState(Z)V:com/google/javascript/rhino/IR.declaration(Lcom/google/javascript/rhino/Node;I)Lcom/google/javascript/rhino/Node;:com/google/common/base/Preconditions.checkState(Z)V:com/google/common/base/Preconditions.checkState(Z)V:com/google/common/base/Preconditions.checkState(Z)V:com/google/common/base/Preconditions.checkState(Z)V:com/google/common/base/Preconditions.checkState(Z)V:com/google/common/base/Preconditions.checkState(Z)V:com/google/common/base/Preconditions.checkState(Z)V:com/google/common/base/Preconditions.checkState(Z)V:com/google/javascript/rhino/Node.newNumber(D)Lcom/google/javascript/rhino/Node;:com/google/javascript/rhino/Node$NumberNode.<init>(D)V:com/google/javascript/rhino/Node.<init>(I)V'
p57
I1
sS'com/google/common/base/Preconditions.checkState(Z)V:com/google/common/base/Preconditions.checkState(Z)V:com/google/common/base/Preconditions.checkState(Z)V:com/google/common/base/Preconditions.checkState(Z)V:com/google/common/base/Preconditions.checkState(Z)V:com/google/javascript/rhino/IR.declaration(Lcom/google/javascript/rhino/Node;I)Lcom/google/javascript/rhino/Node;:com/google/common/base/Preconditions.checkState(Z)V:com/google/common/base/Preconditions.checkState(Z)V:com/google/common/base/Preconditions.checkState(Z)V:com/google/common/base/Preconditions.checkState(Z)V:com/google/common/base/Preconditions.checkState(Z)V:com/google/common/base/Preconditions.checkState(Z)V:com/google/javascript/rhino/Node.newString(ILjava/lang/String;)Lcom/google/javascript/rhino/Node;:com/google/javascript/rhino/Node$StringNode.<init>(ILjava/lang/String;)V:com/google/javascript/rhino/Node.<init>(I)V:java/lang/Object.<init>()V'
p58
I1
sS'com/google/common/base/Preconditions.checkState(Z)V:com/google/common/base/Preconditions.checkState(Z)V:com/google/common/base/Preconditions.checkState(Z)V:com/google/common/base/Preconditions.checkState(Z)V:com/google/common/base/Preconditions.checkState(Z)V:com/google/javascript/rhino/IR.declaration(Lcom/google/javascript/rhino/Node;I)Lcom/google/javascript/rhino/Node;:com/google/common/base/Preconditions.checkState(Z)V:com/google/common/base/Preconditions.checkState(Z)V:com/google/common/base/Preconditions.checkState(Z)V:com/google/common/base/Preconditions.checkState(Z)V:com/google/common/base/Preconditions.checkState(Z)V:com/google/common/base/Preconditions.checkState(Z)V:com/google/common/base/Preconditions.checkState(Z)V:com/google/common/base/Preconditions.checkState(Z)V'
p59
I1
sS'com/google/javascript/rhino/Node.newString(ILjava/lang/String;)Lcom/google/javascript/rhino/Node;'
p60
I1
sS'com/google/common/base/Preconditions.checkState(Z)V:com/google/javascript/rhino/Node.newString(ILjava/lang/String;)Lcom/google/javascript/rhino/Node;:com/google/javascript/rhino/Node$StringNode.<init>(ILjava/lang/String;)V:com/google/javascript/rhino/Node.<init>(I)V:java/lang/Object.<init>()V'
p61
I2
sS'com/google/common/base/Preconditions.checkState(Z)V:com/google/javascript/rhino/Node.toStringTreeImpl()Ljava/lang/String;:java/lang/StringBuilder.<init>()V'
p62
I1
sS'com/google/javascript/rhino/Node.<init>(I)V:java/lang/Object.<init>()V'
p63
I3
sS'com/google/common/base/Preconditions.checkState(Z)V:com/google/common/base/Preconditions.checkState(Z)V:com/google/common/base/Preconditions.checkState(Z)V:com/google/javascript/rhino/Node.toStringTreeImpl()Ljava/lang/String;:java/lang/StringBuilder.toString()Ljava/lang/String;'
p64
I1
sS'com/google/common/base/Preconditions.checkState(Z)V:com/google/common/base/Preconditions.checkState(Z)V:com/google/common/base/Preconditions.checkState(Z)V:com/google/common/base/Preconditions.checkState(Z)V:com/google/common/base/Preconditions.checkState(Z)V:com/google/javascript/rhino/IR.declaration(Lcom/google/javascript/rhino/Node;I)Lcom/google/javascript/rhino/Node;:com/google/common/base/Preconditions.checkState(Z)V:com/google/javascript/rhino/Node.toStringTreeImpl()Ljava/lang/String;:com/google/javascript/rhino/Node.appendStringTree(Ljava/lang/Appendable;)V:com/google/javascript/rhino/Node.toStringTreeHelper(Lcom/google/javascript/rhino/Node;ILjava/lang/Appendable;)V:com/google/javascript/rhino/Node.toString()Ljava/lang/String;:com/google/javascript/rhino/Node.toString(ZZZ)Ljava/lang/String;:com/google/javascript/rhino/Node.toString(Ljava/lang/StringBuilder;ZZZ)V'
p65
I1
sS'com/google/javascript/rhino/Node.<init>(I)V'
p66
I3
sS'com/google/common/base/Preconditions.checkState(Z)V:com/google/javascript/rhino/IR.paramList()Lcom/google/javascript/rhino/Node;:com/google/javascript/rhino/Node.<init>(I)V:java/lang/Object.<init>()V'
p67
I1
sS'com/google/common/base/Preconditions.checkState(Z)V:com/google/javascript/rhino/Node.toStringTreeImpl()Ljava/lang/String;:com/google/javascript/rhino/Node.appendStringTree(Ljava/lang/Appendable;)V:com/google/javascript/rhino/Node.toStringTreeHelper(Lcom/google/javascript/rhino/Node;ILjava/lang/Appendable;)V:com/google/javascript/rhino/Node.getFirstChild()Lcom/google/javascript/rhino/Node;'
p68
I1
sS'com/google/common/base/Preconditions.checkState(Z)V:com/google/common/base/Preconditions.checkState(Z)V:com/google/common/base/Preconditions.checkState(Z)V:com/google/common/base/Preconditions.checkState(Z)V:com/google/javascript/rhino/IR.mayBeStatementNoReturn(Lcom/google/javascript/rhino/Node;)Z'
p69
I1
sS'com/google/common/base/Preconditions.checkState(Z)V:com/google/common/base/Preconditions.checkState(Z)V:com/google/common/base/Preconditions.checkState(Z)V:com/google/common/base/Preconditions.checkState(Z)V:com/google/common/base/Preconditions.checkState(Z)V:com/google/javascript/rhino/IR.declaration(Lcom/google/javascript/rhino/Node;I)Lcom/google/javascript/rhino/Node;:com/google/common/base/Preconditions.checkState(Z)V:com/google/common/base/Preconditions.checkState(Z)V:com/google/javascript/rhino/Node.newString(ILjava/lang/String;)Lcom/google/javascript/rhino/Node;'
p70
I1
sS'com/google/common/base/Preconditions.checkState(Z)V:com/google/common/base/Preconditions.checkState(Z)V:com/google/common/base/Preconditions.checkState(Z)V:com/google/javascript/rhino/Node.toStringTreeImpl()Ljava/lang/String;:com/google/javascript/rhino/Node.appendStringTree(Ljava/lang/Appendable;)V:com/google/javascript/rhino/Node.toStringTreeHelper(Lcom/google/javascript/rhino/Node;ILjava/lang/Appendable;)V:com/google/javascript/rhino/Node.toString()Ljava/lang/String;:com/google/javascript/rhino/Node.toString(ZZZ)Ljava/lang/String;:java/lang/StringBuilder.<init>()V'
p71
I1
sS'com/google/common/base/Preconditions.checkState(Z)V:com/google/javascript/rhino/Node.isName()Z'
p72
I1
sS'com/google/common/base/Preconditions.checkState(Z)V:com/google/common/base/Preconditions.checkState(Z)V:com/google/common/base/Preconditions.checkState(Z)V:com/google/javascript/rhino/Node.toStringTreeImpl()Ljava/lang/String;:java/lang/StringBuilder.<init>()V'
p73
I1
sS'com/google/javascript/rhino/Node.toStringTreeImpl()Ljava/lang/String;:com/google/javascript/rhino/Node.appendStringTree(Ljava/lang/Appendable;)V:com/google/javascript/rhino/Node.toStringTreeHelper(Lcom/google/javascript/rhino/Node;ILjava/lang/Appendable;)V:com/google/javascript/rhino/Node.toString()Ljava/lang/String;'
p74
I1
sS'com/google/javascript/rhino/Node.toStringTreeImpl()Ljava/lang/String;:com/google/javascript/rhino/Node.appendStringTree(Ljava/lang/Appendable;)V'
p75
I1
sS'com/google/javascript/rhino/Node.toStringTreeImpl()Ljava/lang/String;'
p76
I1
sS'com/google/common/base/Preconditions.checkState(Z)V:com/google/common/base/Preconditions.checkState(Z)V:com/google/common/base/Preconditions.checkState(Z)V:com/google/common/base/Preconditions.checkState(Z)V:com/google/common/base/Preconditions.checkState(Z)V:com/google/javascript/rhino/IR.declaration(Lcom/google/javascript/rhino/Node;I)Lcom/google/javascript/rhino/Node;:com/google/common/base/Preconditions.checkState(Z)V:com/google/common/base/Preconditions.checkState(Z)V:com/google/common/base/Preconditions.checkState(Z)V:com/google/javascript/rhino/Node.newString(ILjava/lang/String;)Lcom/google/javascript/rhino/Node;'
p77
I1
sS'com/google/common/base/Preconditions.checkState(Z)V:com/google/common/base/Preconditions.checkState(Z)V:com/google/common/base/Preconditions.checkState(Z)V:com/google/javascript/rhino/IR.mayBeStatementNoReturn(Lcom/google/javascript/rhino/Node;)Z'
p78
I1
sS'com/google/common/base/Preconditions.checkState(Z)V:com/google/javascript/rhino/Node.toStringTreeImpl()Ljava/lang/String;:com/google/javascript/rhino/Node.appendStringTree(Ljava/lang/Appendable;)V:com/google/javascript/rhino/Node.toStringTreeHelper(Lcom/google/javascript/rhino/Node;ILjava/lang/Appendable;)V:com/google/javascript/rhino/Node.toString()Ljava/lang/String;:com/google/javascript/rhino/Node.toString(ZZZ)Ljava/lang/String;:com/google/javascript/rhino/Node.toString(Ljava/lang/StringBuilder;ZZZ)V:com/google/javascript/rhino/Node.getLineno()I:com/google/javascript/rhino/Node.extractLineno(I)I'
p79
I1
sS'com/google/common/base/Preconditions.checkState(Z)V:com/google/javascript/rhino/Node.toStringTreeImpl()Ljava/lang/String;:com/google/javascript/rhino/Node.appendStringTree(Ljava/lang/Appendable;)V:com/google/javascript/rhino/Node.toStringTreeHelper(Lcom/google/javascript/rhino/Node;ILjava/lang/Appendable;)V:com/google/javascript/rhino/Node.toString()Ljava/lang/String;:com/google/javascript/rhino/Node.toString(ZZZ)Ljava/lang/String;:com/google/javascript/rhino/Node.toString(Ljava/lang/StringBuilder;ZZZ)V'
p80
I1
sS'com/google/common/base/Preconditions.checkState(Z)V:com/google/common/base/Preconditions.checkState(Z)V:com/google/javascript/rhino/Node.toStringTreeImpl()Ljava/lang/String;:java/lang/StringBuilder.toString()Ljava/lang/String;'
p81
I1
sS'com/google/common/base/Preconditions.checkState(Z)V:com/google/common/base/Preconditions.checkState(Z)V:com/google/common/base/Preconditions.checkState(Z)V:com/google/common/base/Preconditions.checkState(Z)V:com/google/common/base/Preconditions.checkState(Z)V:com/google/javascript/rhino/IR.declaration(Lcom/google/javascript/rhino/Node;I)Lcom/google/javascript/rhino/Node;:com/google/common/base/Preconditions.checkState(Z)V:com/google/javascript/rhino/Node.newString(ILjava/lang/String;)Lcom/google/javascript/rhino/Node;:com/google/javascript/rhino/Node$StringNode.<init>(ILjava/lang/String;)V'
p82
I1
sS'com/google/common/base/Preconditions.checkState(Z)V:com/google/common/base/Preconditions.checkState(Z)V:com/google/javascript/rhino/Node.toStringTreeImpl()Ljava/lang/String;:com/google/javascript/rhino/Node.appendStringTree(Ljava/lang/Appendable;)V:com/google/javascript/rhino/Node.toStringTreeHelper(Lcom/google/javascript/rhino/Node;ILjava/lang/Appendable;)V:com/google/javascript/rhino/Node.toString()Ljava/lang/String;:com/google/javascript/rhino/Node.toString(ZZZ)Ljava/lang/String;:java/lang/StringBuilder.toString()Ljava/lang/String;'
p83
I1
sS'com/google/common/base/Preconditions.checkState(Z)V:com/google/common/base/Preconditions.checkState(Z)V:com/google/javascript/rhino/Node.<init>(I)V'
p84
I3
sS'com/google/common/base/Preconditions.checkState(Z)V:com/google/common/base/Preconditions.checkState(Z)V'
p85
I1
sS'com/google/common/base/Preconditions.checkState(Z)V:com/google/common/base/Preconditions.checkState(Z)V:com/google/common/base/Preconditions.checkState(Z)V:com/google/javascript/rhino/Node.toStringTreeImpl()Ljava/lang/String;:com/google/javascript/rhino/Node.appendStringTree(Ljava/lang/Appendable;)V:com/google/javascript/rhino/Node.toStringTreeHelper(Lcom/google/javascript/rhino/Node;ILjava/lang/Appendable;)V'
p86
I1
sS'com/google/common/base/Preconditions.checkState(Z)V:com/google/javascript/rhino/Node.toStringTreeImpl()Ljava/lang/String;:com/google/javascript/rhino/Node.appendStringTree(Ljava/lang/Appendable;)V:com/google/javascript/rhino/Node.toStringTreeHelper(Lcom/google/javascript/rhino/Node;ILjava/lang/Appendable;)V:com/google/javascript/rhino/Node.toString()Ljava/lang/String;:com/google/javascript/rhino/Node.toString(ZZZ)Ljava/lang/String;:com/google/javascript/rhino/Node.toString(Ljava/lang/StringBuilder;ZZZ)V:java/lang/StringBuilder.append(Ljava/lang/String;)Ljava/lang/StringBuilder;'
p87
I1
sS'com/google/common/base/Preconditions.checkState(Z)V:com/google/common/base/Preconditions.checkState(Z)V:com/google/common/base/Preconditions.checkState(Z)V:com/google/common/base/Preconditions.checkState(Z)V:com/google/common/base/Preconditions.checkState(Z)V:com/google/javascript/rhino/IR.declaration(Lcom/google/javascript/rhino/Node;I)Lcom/google/javascript/rhino/Node;:com/google/common/base/Preconditions.checkState(Z)V:com/google/javascript/rhino/Node.<init>(I)V'
p88
I1
sS'com/google/common/base/Preconditions.checkState(Z)V:com/google/common/base/Preconditions.checkState(Z)V:com/google/common/base/Preconditions.checkState(Z)V:com/google/common/base/Preconditions.checkState(Z)V:com/google/common/base/Preconditions.checkState(Z)V:com/google/javascript/rhino/IR.declaration(Lcom/google/javascript/rhino/Node;I)Lcom/google/javascript/rhino/Node;:com/google/common/base/Preconditions.checkState(Z)V:com/google/common/base/Preconditions.checkState(Z)V:com/google/common/base/Preconditions.checkState(Z)V:com/google/common/base/Preconditions.checkState(Z)V:com/google/common/base/Preconditions.checkState(Z)V:com/google/common/base/Preconditions.checkState(Z)V:com/google/common/base/Preconditions.checkState(Z)V:com/google/javascript/rhino/Node.<init>(I)V:java/lang/Object.<init>()V'
p89
I2
sS'com/google/common/base/Preconditions.checkState(Z)V:com/google/common/base/Preconditions.checkState(Z)V:com/google/javascript/rhino/Node.toStringTreeImpl()Ljava/lang/String;:com/google/javascript/rhino/Node.appendStringTree(Ljava/lang/Appendable;)V:com/google/javascript/rhino/Node.toStringTreeHelper(Lcom/google/javascript/rhino/Node;ILjava/lang/Appendable;)V'
p90
I1
sS'com/google/common/base/Preconditions.checkState(Z)V:com/google/common/base/Preconditions.checkState(Z)V:com/google/common/base/Preconditions.checkState(Z)V:com/google/common/base/Preconditions.checkState(Z)V:com/google/common/base/Preconditions.checkState(Z)V:com/google/javascript/rhino/IR.declaration(Lcom/google/javascript/rhino/Node;I)Lcom/google/javascript/rhino/Node;:com/google/common/base/Preconditions.checkState(Z)V:com/google/javascript/rhino/IR.mayBeExpression(Lcom/google/javascript/rhino/Node;)Z'
p91
I1
sS'com/google/common/base/Preconditions.checkState(Z)V:com/google/common/base/Preconditions.checkState(Z)V:com/google/common/base/Preconditions.checkState(Z)V:com/google/common/base/Preconditions.checkState(Z)V:com/google/common/base/Preconditions.checkState(Z)V:com/google/javascript/rhino/IR.declaration(Lcom/google/javascript/rhino/Node;I)Lcom/google/javascript/rhino/Node;:com/google/javascript/rhino/Node.isName()Z:com/google/javascript/rhino/Node.getType()I'
p92
I1
sS'com/google/common/base/Preconditions.checkState(Z)V:com/google/javascript/rhino/Node.newString(ILjava/lang/String;)Lcom/google/javascript/rhino/Node;'
p93
I2
sS'com/google/common/base/Preconditions.checkState(Z)V:com/google/common/base/Preconditions.checkState(Z)V:com/google/common/base/Preconditions.checkState(Z)V:com/google/common/base/Preconditions.checkState(Z)V:com/google/common/base/Preconditions.checkState(Z)V:com/google/javascript/rhino/IR.declaration(Lcom/google/javascript/rhino/Node;I)Lcom/google/javascript/rhino/Node;:com/google/common/base/Preconditions.checkState(Z)V:com/google/common/base/Preconditions.checkState(Z)V:com/google/common/base/Preconditions.checkState(Z)V:com/google/common/base/Preconditions.checkState(Z)V:com/google/javascript/rhino/IR.mayBeExpression(Lcom/google/javascript/rhino/Node;)Z:com/google/javascript/rhino/Node.getType()I'
p94
I1
sS'com/google/common/base/Preconditions.checkState(Z)V:com/google/javascript/rhino/Node.toStringTreeImpl()Ljava/lang/String;:com/google/javascript/rhino/Node.appendStringTree(Ljava/lang/Appendable;)V'
p95
I1
sS'com/google/common/base/Preconditions.checkState(Z)V:com/google/common/base/Preconditions.checkState(Z)V:com/google/common/base/Preconditions.checkState(Z)V:com/google/common/base/Preconditions.checkState(Z)V:com/google/common/base/Preconditions.checkState(Z)V:com/google/javascript/rhino/IR.declaration(Lcom/google/javascript/rhino/Node;I)Lcom/google/javascript/rhino/Node;:com/google/common/base/Preconditions.checkState(Z)V:com/google/common/base/Preconditions.checkState(Z)V:com/google/javascript/rhino/Node.newString(ILjava/lang/String;)Lcom/google/javascript/rhino/Node;:com/google/javascript/rhino/Node$StringNode.<init>(ILjava/lang/String;)V'
p96
I1
sS'com/google/common/base/Preconditions.checkState(Z)V:com/google/common/base/Preconditions.checkState(Z)V:com/google/common/base/Preconditions.checkState(Z)V:com/google/common/base/Preconditions.checkState(Z)V:com/google/common/base/Preconditions.checkState(Z)V:com/google/javascript/rhino/IR.declaration(Lcom/google/javascript/rhino/Node;I)Lcom/google/javascript/rhino/Node;:com/google/common/base/Preconditions.checkState(Z)V:com/google/javascript/rhino/Node.toStringTreeImpl()Ljava/lang/String;:com/google/javascript/rhino/Node.appendStringTree(Ljava/lang/Appendable;)V:com/google/javascript/rhino/Node.toStringTreeHelper(Lcom/google/javascript/rhino/Node;ILjava/lang/Appendable;)V:com/google/javascript/rhino/Node.toString()Ljava/lang/String;:com/google/javascript/rhino/Node.toString(ZZZ)Ljava/lang/String;:com/google/javascript/rhino/Node.toString(Ljava/lang/StringBuilder;ZZZ)V:com/google/javascript/rhino/Node.getLineno()I:com/google/javascript/rhino/Node.extractLineno(I)I'
p97
I1
sS'com/google/common/base/Preconditions.checkState(Z)V:com/google/common/base/Preconditions.checkState(Z)V:com/google/common/base/Preconditions.checkState(Z)V:com/google/javascript/rhino/Node.toStringTreeImpl()Ljava/lang/String;:com/google/javascript/rhino/Node.appendStringTree(Ljava/lang/Appendable;)V'
p98
I1
sS'com/google/common/base/Preconditions.checkState(Z)V:com/google/common/base/Preconditions.checkState(Z)V:com/google/common/base/Preconditions.checkState(Z)V:com/google/javascript/rhino/Node.toStringTreeImpl()Ljava/lang/String;:com/google/javascript/rhino/Node.appendStringTree(Ljava/lang/Appendable;)V:com/google/javascript/rhino/Node.toStringTreeHelper(Lcom/google/javascript/rhino/Node;ILjava/lang/Appendable;)V:java/lang/Appendable.append(Ljava/lang/CharSequence;)Ljava/lang/Appendable;'
p99
I1
sS'com/google/common/base/Preconditions.checkState(Z)V:com/google/common/base/Preconditions.checkState(Z)V:com/google/common/base/Preconditions.checkState(Z)V:com/google/common/base/Preconditions.checkState(Z)V:com/google/common/base/Preconditions.checkState(Z)V:com/google/javascript/rhino/IR.declaration(Lcom/google/javascript/rhino/Node;I)Lcom/google/javascript/rhino/Node;:com/google/common/base/Preconditions.checkState(Z)V:com/google/common/base/Preconditions.checkState(Z)V:com/google/common/base/Preconditions.checkState(Z)V:com/google/common/base/Preconditions.checkState(Z)V:com/google/common/base/Preconditions.checkState(Z)V:com/google/common/base/Preconditions.checkState(Z)V:com/google/common/base/Preconditions.checkState(Z)V:com/google/common/base/Preconditions.checkState(Z)V:com/google/javascript/rhino/IR.unaryOp(ILcom/google/javascript/rhino/Node;)Lcom/google/javascript/rhino/Node;:com/google/common/base/Preconditions.checkState(Z)V'
p100
I1
sS'com/google/common/base/Preconditions.checkState(Z)V:com/google/common/base/Preconditions.checkState(Z)V:com/google/common/base/Preconditions.checkState(Z)V:com/google/common/base/Preconditions.checkState(Z)V:com/google/common/base/Preconditions.checkState(Z)V:com/google/javascript/rhino/IR.declaration(Lcom/google/javascript/rhino/Node;I)Lcom/google/javascript/rhino/Node;:com/google/common/base/Preconditions.checkState(Z)V:com/google/javascript/rhino/Node.toStringTreeImpl()Ljava/lang/String;:com/google/javascript/rhino/Node.appendStringTree(Ljava/lang/Appendable;)V'
p101
I1
sS'com/google/common/base/Preconditions.checkState(Z)V:com/google/common/base/Preconditions.checkState(Z)V:com/google/common/base/Preconditions.checkState(Z)V:com/google/common/base/Preconditions.checkState(Z)V:com/google/common/base/Preconditions.checkState(Z)V:com/google/javascript/rhino/Node.newString(ILjava/lang/String;)Lcom/google/javascript/rhino/Node;:com/google/javascript/rhino/Node$StringNode.<init>(ILjava/lang/String;)V'
p102
I1
sS'com/google/common/base/Preconditions.checkState(Z)V:com/google/common/base/Preconditions.checkState(Z)V:com/google/common/base/Preconditions.checkState(Z)V:com/google/javascript/rhino/Node.toStringTreeImpl()Ljava/lang/String;:com/google/javascript/rhino/Node.appendStringTree(Ljava/lang/Appendable;)V:com/google/javascript/rhino/Node.toStringTreeHelper(Lcom/google/javascript/rhino/Node;ILjava/lang/Appendable;)V:com/google/javascript/rhino/Node.toString()Ljava/lang/String;:com/google/javascript/rhino/Node.toString(ZZZ)Ljava/lang/String;:java/lang/StringBuilder.toString()Ljava/lang/String;'
p103
I1
sS'com/google/common/base/Preconditions.checkState(Z)V:com/google/common/base/Preconditions.checkState(Z)V:com/google/common/base/Preconditions.checkState(Z)V:com/google/common/base/Preconditions.checkState(Z)V:com/google/common/base/Preconditions.checkState(Z)V:com/google/javascript/rhino/IR.declaration(Lcom/google/javascript/rhino/Node;I)Lcom/google/javascript/rhino/Node;:com/google/common/base/Preconditions.checkState(Z)V:com/google/common/base/Preconditions.checkState(Z)V:com/google/common/base/Preconditions.checkState(Z)V:com/google/common/base/Preconditions.checkState(Z)V:com/google/common/base/Preconditions.checkState(Z)V:com/google/common/base/Preconditions.checkState(Z)V'
p104
I1
sS'com/google/common/base/Preconditions.checkState(Z)V:com/google/common/base/Preconditions.checkState(Z)V:com/google/common/base/Preconditions.checkState(Z)V:com/google/common/base/Preconditions.checkState(Z)V:com/google/common/base/Preconditions.checkState(Z)V:com/google/javascript/rhino/IR.declaration(Lcom/google/javascript/rhino/Node;I)Lcom/google/javascript/rhino/Node;:com/google/common/base/Preconditions.checkState(Z)V:com/google/common/base/Preconditions.checkState(Z)V:com/google/common/base/Preconditions.checkState(Z)V:com/google/common/base/Preconditions.checkState(Z)V:com/google/common/base/Preconditions.checkState(Z)V:com/google/common/base/Preconditions.checkState(Z)V:com/google/common/base/Preconditions.checkState(Z)V:com/google/javascript/rhino/Node.newString(ILjava/lang/String;)Lcom/google/javascript/rhino/Node;:com/google/javascript/rhino/Node$StringNode.<init>(ILjava/lang/String;)V'
p105
I1
sS'com/google/common/base/Preconditions.checkState(Z)V:com/google/javascript/rhino/Node.toStringTreeImpl()Ljava/lang/String;:com/google/javascript/rhino/Node.appendStringTree(Ljava/lang/Appendable;)V:com/google/javascript/rhino/Node.toStringTreeHelper(Lcom/google/javascript/rhino/Node;ILjava/lang/Appendable;)V'
p106
I1
sS'com/google/common/base/Preconditions.checkState(Z)V:com/google/common/base/Preconditions.checkState(Z)V:com/google/common/base/Preconditions.checkState(Z)V'
p107
I1
sS'com/google/common/base/Preconditions.checkState(Z)V:com/google/common/base/Preconditions.checkState(Z)V:com/google/javascript/rhino/Node.toStringTreeImpl()Ljava/lang/String;'
p108
I1
sS'com/google/common/base/Preconditions.checkState(Z)V:com/google/common/base/Preconditions.checkState(Z)V:com/google/common/base/Preconditions.checkState(Z)V:com/google/javascript/rhino/Node.toStringTreeImpl()Ljava/lang/String;:com/google/javascript/rhino/Node.appendStringTree(Ljava/lang/Appendable;)V:com/google/javascript/rhino/Node.toStringTreeHelper(Lcom/google/javascript/rhino/Node;ILjava/lang/Appendable;)V:com/google/javascript/rhino/Node.toString()Ljava/lang/String;:com/google/javascript/rhino/Node.toString(ZZZ)Ljava/lang/String;'
p109
I1
sS'com/google/common/base/Preconditions.checkState(Z)V:com/google/common/base/Preconditions.checkState(Z)V:com/google/javascript/rhino/Node.toStringTreeImpl()Ljava/lang/String;:com/google/javascript/rhino/Node.appendStringTree(Ljava/lang/Appendable;)V:com/google/javascript/rhino/Node.toStringTreeHelper(Lcom/google/javascript/rhino/Node;ILjava/lang/Appendable;)V:com/google/javascript/rhino/Node.toString()Ljava/lang/String;:com/google/javascript/rhino/Node.toString(ZZZ)Ljava/lang/String;:com/google/javascript/rhino/Node.toString(Ljava/lang/StringBuilder;ZZZ)V:com/google/javascript/rhino/Token.name(I)Ljava/lang/String;'
p110
I1
sS'com/google/common/base/Preconditions.checkState(Z)V:com/google/javascript/rhino/Node.<init>(I)V'
p111
I1
sS'com/google/javascript/rhino/Node.isName()Z:com/google/javascript/rhino/Node.getType()I'
p112
I1
sS'com/google/javascript/rhino/Node.isName()Z'
p113
I1
sS'com/google/common/base/Preconditions.checkState(Z)V:com/google/common/base/Preconditions.checkState(Z)V:com/google/common/base/Preconditions.checkState(Z)V:com/google/javascript/rhino/Node.toStringTreeImpl()Ljava/lang/String;:com/google/javascript/rhino/Node.appendStringTree(Ljava/lang/Appendable;)V:com/google/javascript/rhino/Node.toStringTreeHelper(Lcom/google/javascript/rhino/Node;ILjava/lang/Appendable;)V:com/google/javascript/rhino/Node.toString()Ljava/lang/String;:com/google/javascript/rhino/Node.toString(ZZZ)Ljava/lang/String;:com/google/javascript/rhino/Node.toString(Ljava/lang/StringBuilder;ZZZ)V:com/google/javascript/rhino/Node.getSortedPropTypes()[I:java/util/Arrays.sort([I)V'
p114
I1
sS'com/google/common/base/Preconditions.checkState(Z)V:com/google/common/base/Preconditions.checkState(Z)V:com/google/common/base/Preconditions.checkState(Z)V:com/google/common/base/Preconditions.checkState(Z)V:com/google/common/base/Preconditions.checkState(Z)V:com/google/javascript/rhino/Node.newString(ILjava/lang/String;)Lcom/google/javascript/rhino/Node;'
p115
I1
sS'com/google/common/base/Preconditions.checkState(Z)V:com/google/common/base/Preconditions.checkState(Z)V:com/google/javascript/rhino/IR.mayBeStatement(Lcom/google/javascript/rhino/Node;)Z:com/google/javascript/rhino/IR.mayBeStatementNoReturn(Lcom/google/javascript/rhino/Node;)Z'
p116
I1
sS'com/google/common/base/Preconditions.checkState(Z)V:com/google/common/base/Preconditions.checkState(Z)V:com/google/javascript/rhino/Node.toStringTreeImpl()Ljava/lang/String;:com/google/javascript/rhino/Node.appendStringTree(Ljava/lang/Appendable;)V:com/google/javascript/rhino/Node.toStringTreeHelper(Lcom/google/javascript/rhino/Node;ILjava/lang/Appendable;)V:com/google/javascript/rhino/Node.toString()Ljava/lang/String;:com/google/javascript/rhino/Node.toString(ZZZ)Ljava/lang/String;:com/google/javascript/rhino/Node.toString(Ljava/lang/StringBuilder;ZZZ)V:com/google/javascript/rhino/Node.getSortedPropTypes()[I'
p117
I1
sS'com/google/common/base/Preconditions.checkState(Z)V:com/google/common/base/Preconditions.checkState(Z)V:com/google/common/base/Preconditions.checkState(Z)V:com/google/common/base/Preconditions.checkState(Z)V:com/google/common/base/Preconditions.checkState(Z)V:com/google/javascript/rhino/IR.declaration(Lcom/google/javascript/rhino/Node;I)Lcom/google/javascript/rhino/Node;:com/google/common/base/Preconditions.checkState(Z)V:com/google/common/base/Preconditions.checkState(Z)V:com/google/common/base/Preconditions.checkState(Z)V:com/google/javascript/rhino/Node.newString(ILjava/lang/String;)Lcom/google/javascript/rhino/Node;:com/google/javascript/rhino/Node$StringNode.<init>(ILjava/lang/String;)V:com/google/javascript/rhino/Node.<init>(I)V:java/lang/Object.<init>()V'
p118
I1
sS'com/google/common/base/Preconditions.checkState(Z)V:com/google/common/base/Preconditions.checkState(Z)V:com/google/common/base/Preconditions.checkState(Z)V:com/google/common/base/Preconditions.checkState(Z)V:com/google/common/base/Preconditions.checkState(Z)V:com/google/javascript/rhino/IR.declaration(Lcom/google/javascript/rhino/Node;I)Lcom/google/javascript/rhino/Node;:com/google/common/base/Preconditions.checkState(Z)V:com/google/common/base/Preconditions.checkState(Z)V:com/google/common/base/Preconditions.checkState(Z)V:com/google/common/base/Preconditions.checkState(Z)V'
p119
I1
sS'com/google/common/base/Preconditions.checkState(Z)V:com/google/common/base/Preconditions.checkState(Z)V:com/google/common/base/Preconditions.checkState(Z)V:com/google/common/base/Preconditions.checkState(Z)V:com/google/common/base/Preconditions.checkState(Z)V:com/google/javascript/rhino/IR.declaration(Lcom/google/javascript/rhino/Node;I)Lcom/google/javascript/rhino/Node;:com/google/common/base/Preconditions.checkState(Z)V:com/google/common/base/Preconditions.checkState(Z)V:com/google/javascript/rhino/Node.newString(ILjava/lang/String;)Lcom/google/javascript/rhino/Node;:com/google/javascript/rhino/Node$StringNode.<init>(ILjava/lang/String;)V:com/google/javascript/rhino/Node.<init>(I)V:java/lang/Object.<init>()V'
p120
I1
sS'com/google/common/base/Preconditions.checkState(Z)V:com/google/common/base/Preconditions.checkState(Z)V:com/google/javascript/rhino/Node.toStringTreeImpl()Ljava/lang/String;:com/google/javascript/rhino/Node.appendStringTree(Ljava/lang/Appendable;)V:com/google/javascript/rhino/Node.toStringTreeHelper(Lcom/google/javascript/rhino/Node;ILjava/lang/Appendable;)V:com/google/javascript/rhino/Node.getFirstChild()Lcom/google/javascript/rhino/Node;'
p121
I1
sS'com/google/javascript/rhino/Node.toStringTreeImpl()Ljava/lang/String;:java/lang/StringBuilder.<init>()V'
p122
I1
sS'com/google/javascript/rhino/Node.toStringTreeImpl()Ljava/lang/String;:com/google/javascript/rhino/Node.appendStringTree(Ljava/lang/Appendable;)V:com/google/javascript/rhino/Node.toStringTreeHelper(Lcom/google/javascript/rhino/Node;ILjava/lang/Appendable;)V:com/google/javascript/rhino/Node.toString()Ljava/lang/String;:com/google/javascript/rhino/Node.toString(ZZZ)Ljava/lang/String;:com/google/javascript/rhino/Node.toString(Ljava/lang/StringBuilder;ZZZ)V:com/google/javascript/rhino/Node.getLineno()I:com/google/javascript/rhino/Node.extractLineno(I)I'
p123
I1
sS'com/google/common/base/Preconditions.checkState(Z)V:com/google/common/base/Preconditions.checkState(Z)V:com/google/javascript/rhino/IR.mayBeStatement(Lcom/google/javascript/rhino/Node;)Z'
p124
I1
sS'com/google/common/base/Preconditions.checkState(Z)V:com/google/common/base/Preconditions.checkState(Z)V:com/google/common/base/Preconditions.checkState(Z)V:com/google/common/base/Preconditions.checkState(Z)V:com/google/common/base/Preconditions.checkState(Z)V:com/google/javascript/rhino/IR.declaration(Lcom/google/javascript/rhino/Node;I)Lcom/google/javascript/rhino/Node;:com/google/common/base/Preconditions.checkState(Z)V:com/google/common/base/Preconditions.checkState(Z)V:com/google/common/base/Preconditions.checkState(Z)V:com/google/common/base/Preconditions.checkState(Z)V:com/google/common/base/Preconditions.checkState(Z)V:com/google/common/base/Preconditions.checkState(Z)V:com/google/common/base/Preconditions.checkState(Z)V:com/google/javascript/rhino/Node.newString(ILjava/lang/String;)Lcom/google/javascript/rhino/Node;'
p125
I1
sS'com/google/common/base/Preconditions.checkState(Z)V:com/google/common/base/Preconditions.checkState(Z)V:com/google/common/base/Preconditions.checkState(Z)V:com/google/common/base/Preconditions.checkState(Z)V:com/google/common/base/Preconditions.checkState(Z)V:com/google/javascript/rhino/IR.declaration(Lcom/google/javascript/rhino/Node;I)Lcom/google/javascript/rhino/Node;:com/google/common/base/Preconditions.checkState(Z)V:com/google/common/base/Preconditions.checkState(Z)V:com/google/common/base/Preconditions.checkState(Z)V:com/google/javascript/rhino/IR.mayBeExpression(Lcom/google/javascript/rhino/Node;)Z:com/google/javascript/rhino/Node.getType()I'
p126
I1
sS'com/google/common/base/Preconditions.checkState(Z)V:com/google/common/base/Preconditions.checkState(Z)V:com/google/javascript/rhino/Node.toStringTreeImpl()Ljava/lang/String;:com/google/javascript/rhino/Node.appendStringTree(Ljava/lang/Appendable;)V:com/google/javascript/rhino/Node.toStringTreeHelper(Lcom/google/javascript/rhino/Node;ILjava/lang/Appendable;)V:com/google/javascript/rhino/Node.toString()Ljava/lang/String;'
p127
I1
sS'com/google/common/base/Preconditions.checkState(Z)V:com/google/javascript/rhino/Node.toStringTreeImpl()Ljava/lang/String;:com/google/javascript/rhino/Node.appendStringTree(Ljava/lang/Appendable;)V:com/google/javascript/rhino/Node.toStringTreeHelper(Lcom/google/javascript/rhino/Node;ILjava/lang/Appendable;)V:com/google/javascript/rhino/Node.toString()Ljava/lang/String;:com/google/javascript/rhino/Node.toString(ZZZ)Ljava/lang/String;:com/google/javascript/rhino/Node.toString(Ljava/lang/StringBuilder;ZZZ)V:com/google/javascript/rhino/Node.getLineno()I'
p128
I1
sS'com/google/javascript/rhino/Node.toStringTreeImpl()Ljava/lang/String;:com/google/javascript/rhino/Node.appendStringTree(Ljava/lang/Appendable;)V:com/google/javascript/rhino/Node.toStringTreeHelper(Lcom/google/javascript/rhino/Node;ILjava/lang/Appendable;)V:com/google/javascript/rhino/Node.toString()Ljava/lang/String;:com/google/javascript/rhino/Node.toString(ZZZ)Ljava/lang/String;:com/google/javascript/rhino/Node.toString(Ljava/lang/StringBuilder;ZZZ)V:com/google/javascript/rhino/Node.getSortedPropTypes()[I:java/util/Arrays.sort([I)V'
p129
I1
sS'com/google/common/base/Preconditions.checkState(Z)V:com/google/common/base/Preconditions.checkState(Z)V:com/google/common/base/Preconditions.checkState(Z)V:com/google/common/base/Preconditions.checkState(Z)V:com/google/common/base/Preconditions.checkState(Z)V:com/google/javascript/rhino/IR.declaration(Lcom/google/javascript/rhino/Node;I)Lcom/google/javascript/rhino/Node;:com/google/common/base/Preconditions.checkState(Z)V:com/google/common/base/Preconditions.checkState(Z)V:com/google/common/base/Preconditions.checkState(Z)V:com/google/common/base/Preconditions.checkState(Z)V:com/google/javascript/rhino/Node.<init>(I)V'
p130
I1
sS'com/google/javascript/rhino/Node.toStringTreeImpl()Ljava/lang/String;:com/google/javascript/rhino/Node.appendStringTree(Ljava/lang/Appendable;)V:com/google/javascript/rhino/Node.toStringTreeHelper(Lcom/google/javascript/rhino/Node;ILjava/lang/Appendable;)V:java/lang/Appendable.append(Ljava/lang/CharSequence;)Ljava/lang/Appendable;'
p131
I1
sS'com/google/common/base/Preconditions.checkState(Z)V:com/google/javascript/rhino/Node.toStringTreeImpl()Ljava/lang/String;:com/google/javascript/rhino/Node.appendStringTree(Ljava/lang/Appendable;)V:com/google/javascript/rhino/Node.toStringTreeHelper(Lcom/google/javascript/rhino/Node;ILjava/lang/Appendable;)V:com/google/javascript/rhino/Node.toString()Ljava/lang/String;:com/google/javascript/rhino/Node.toString(ZZZ)Ljava/lang/String;:java/lang/StringBuilder.toString()Ljava/lang/String;'
p132
I1
sS'com/google/common/base/Preconditions.checkState(Z)V:com/google/common/base/Preconditions.checkState(Z)V:com/google/common/base/Preconditions.checkState(Z)V:com/google/common/base/Preconditions.checkState(Z)V:com/google/common/base/Preconditions.checkState(Z)V:com/google/javascript/rhino/IR.declaration(Lcom/google/javascript/rhino/Node;I)Lcom/google/javascript/rhino/Node;:com/google/common/base/Preconditions.checkState(Z)V:com/google/javascript/rhino/Node.toStringTreeImpl()Ljava/lang/String;:com/google/javascript/rhino/Node.appendStringTree(Ljava/lang/Appendable;)V:com/google/javascript/rhino/Node.toStringTreeHelper(Lcom/google/javascript/rhino/Node;ILjava/lang/Appendable;)V:com/google/javascript/rhino/Node.toString()Ljava/lang/String;:com/google/javascript/rhino/Node.toString(ZZZ)Ljava/lang/String;'
p133
I1
sS'com/google/common/base/Preconditions.checkState(Z)V:com/google/common/base/Preconditions.checkState(Z)V:com/google/common/base/Preconditions.checkState(Z)V:com/google/common/base/Preconditions.checkState(Z)V:com/google/common/base/Preconditions.checkState(Z)V:com/google/javascript/rhino/IR.declaration(Lcom/google/javascript/rhino/Node;I)Lcom/google/javascript/rhino/Node;:com/google/common/base/Preconditions.checkState(Z)V:com/google/javascript/rhino/Node.<init>(I)V:java/lang/Object.<init>()V'
p134
I1
sS'com/google/common/base/Preconditions.checkState(Z)V:com/google/javascript/rhino/Node.toStringTreeImpl()Ljava/lang/String;:com/google/javascript/rhino/Node.appendStringTree(Ljava/lang/Appendable;)V:com/google/javascript/rhino/Node.toStringTreeHelper(Lcom/google/javascript/rhino/Node;ILjava/lang/Appendable;)V:com/google/javascript/rhino/Node.toString()Ljava/lang/String;:com/google/javascript/rhino/Node.toString(ZZZ)Ljava/lang/String;'
p135
I1
sS'com/google/common/base/Preconditions.checkState(Z)V:com/google/common/base/Preconditions.checkState(Z)V:com/google/common/base/Preconditions.checkState(Z)V:com/google/common/base/Preconditions.checkState(Z)V:com/google/common/base/Preconditions.checkState(Z)V:com/google/javascript/rhino/IR.declaration(Lcom/google/javascript/rhino/Node;I)Lcom/google/javascript/rhino/Node;:com/google/common/base/Preconditions.checkState(Z)V:com/google/common/base/Preconditions.checkState(Z)V:com/google/common/base/Preconditions.checkState(Z)V:com/google/common/base/Preconditions.checkState(Z)V:com/google/common/base/Preconditions.checkState(Z)V:com/google/javascript/rhino/Node.<init>(I)V'
p136
I2
sS'com/google/common/base/Preconditions.checkState(Z)V:com/google/common/base/Preconditions.checkState(Z)V:com/google/common/base/Preconditions.checkState(Z)V:com/google/common/base/Preconditions.checkState(Z)V:com/google/common/base/Preconditions.checkState(Z)V:com/google/javascript/rhino/IR.declaration(Lcom/google/javascript/rhino/Node;I)Lcom/google/javascript/rhino/Node;:com/google/common/base/Preconditions.checkState(Z)V:com/google/common/base/Preconditions.checkState(Z)V:com/google/common/base/Preconditions.checkState(Z)V:com/google/common/base/Preconditions.checkState(Z)V:com/google/common/base/Preconditions.checkState(Z)V:com/google/common/base/Preconditions.checkState(Z)V:com/google/common/base/Preconditions.checkState(Z)V:com/google/common/base/Preconditions.checkState(Z)V:com/google/javascript/rhino/Node.newNumber(D)Lcom/google/javascript/rhino/Node;:com/google/javascript/rhino/Node$NumberNode.<init>(D)V:com/google/javascript/rhino/Node.<init>(I)V:java/lang/Object.<init>()V'
p137
I1
sS'com/google/common/base/Preconditions.checkState(Z)V:com/google/common/base/Preconditions.checkState(Z)V:com/google/common/base/Preconditions.checkState(Z)V:com/google/javascript/rhino/Node.toStringTreeImpl()Ljava/lang/String;:com/google/javascript/rhino/Node.appendStringTree(Ljava/lang/Appendable;)V:com/google/javascript/rhino/Node.toStringTreeHelper(Lcom/google/javascript/rhino/Node;ILjava/lang/Appendable;)V:com/google/javascript/rhino/Node.toString()Ljava/lang/String;:com/google/javascript/rhino/Node.toString(ZZZ)Ljava/lang/String;:com/google/javascript/rhino/Node.toString(Ljava/lang/StringBuilder;ZZZ)V:com/google/javascript/rhino/Node.getLineno()I'
p138
I1
sS'com/google/common/base/Preconditions.checkState(Z)V:com/google/common/base/Preconditions.checkState(Z)V:com/google/common/base/Preconditions.checkState(Z)V:com/google/common/base/Preconditions.checkState(Z)V:com/google/common/base/Preconditions.checkState(Z)V:com/google/javascript/rhino/IR.declaration(Lcom/google/javascript/rhino/Node;I)Lcom/google/javascript/rhino/Node;:com/google/common/base/Preconditions.checkState(Z)V:com/google/javascript/rhino/Node.toStringTreeImpl()Ljava/lang/String;:com/google/javascript/rhino/Node.appendStringTree(Ljava/lang/Appendable;)V:com/google/javascript/rhino/Node.toStringTreeHelper(Lcom/google/javascript/rhino/Node;ILjava/lang/Appendable;)V:com/google/javascript/rhino/Node.getFirstChild()Lcom/google/javascript/rhino/Node;'
p139
I1
sS'com/google/common/base/Preconditions.checkState(Z)V:com/google/common/base/Preconditions.checkState(Z)V:com/google/common/base/Preconditions.checkState(Z)V:com/google/common/base/Preconditions.checkState(Z)V:com/google/common/base/Preconditions.checkState(Z)V:com/google/javascript/rhino/IR.declaration(Lcom/google/javascript/rhino/Node;I)Lcom/google/javascript/rhino/Node;:com/google/common/base/Preconditions.checkState(Z)V:com/google/javascript/rhino/Node.newString(ILjava/lang/String;)Lcom/google/javascript/rhino/Node;'
p140
I1
sS'com/google/common/base/Preconditions.checkState(Z)V:com/google/common/base/Preconditions.checkState(Z)V:com/google/common/base/Preconditions.checkState(Z)V:com/google/common/base/Preconditions.checkState(Z)V:com/google/common/base/Preconditions.checkState(Z)V:com/google/javascript/rhino/IR.declaration(Lcom/google/javascript/rhino/Node;I)Lcom/google/javascript/rhino/Node;:com/google/common/base/Preconditions.checkState(Z)V:com/google/javascript/rhino/Node.toStringTreeImpl()Ljava/lang/String;:com/google/javascript/rhino/Node.appendStringTree(Ljava/lang/Appendable;)V:com/google/javascript/rhino/Node.toStringTreeHelper(Lcom/google/javascript/rhino/Node;ILjava/lang/Appendable;)V:com/google/javascript/rhino/Node.toString()Ljava/lang/String;:com/google/javascript/rhino/Node.toString(ZZZ)Ljava/lang/String;:com/google/javascript/rhino/Node.toString(Ljava/lang/StringBuilder;ZZZ)V:com/google/javascript/rhino/Node.getSortedPropTypes()[I:java/util/Arrays.sort([I)V'
p141
I1
sS'com/google/common/base/Preconditions.checkState(Z)V:com/google/common/base/Preconditions.checkState(Z)V:com/google/common/base/Preconditions.checkState(Z)V:com/google/common/base/Preconditions.checkState(Z)V:com/google/common/base/Preconditions.checkState(Z)V:com/google/javascript/rhino/IR.declaration(Lcom/google/javascript/rhino/Node;I)Lcom/google/javascript/rhino/Node;:com/google/common/base/Preconditions.checkState(Z)V:com/google/javascript/rhino/Node.toStringTreeImpl()Ljava/lang/String;:com/google/javascript/rhino/Node.appendStringTree(Ljava/lang/Appendable;)V:com/google/javascript/rhino/Node.toStringTreeHelper(Lcom/google/javascript/rhino/Node;ILjava/lang/Appendable;)V:com/google/javascript/rhino/Node.toString()Ljava/lang/String;:com/google/javascript/rhino/Node.toString(ZZZ)Ljava/lang/String;:com/google/javascript/rhino/Node.toString(Ljava/lang/StringBuilder;ZZZ)V:com/google/javascript/rhino/Token.name(I)Ljava/lang/String;'
p142
I1
sS'com/google/common/base/Preconditions.checkState(Z)V:com/google/common/base/Preconditions.checkState(Z)V:com/google/common/base/Preconditions.checkState(Z)V:com/google/common/base/Preconditions.checkState(Z)V:com/google/common/base/Preconditions.checkState(Z)V:com/google/javascript/rhino/IR.declaration(Lcom/google/javascript/rhino/Node;I)Lcom/google/javascript/rhino/Node;:com/google/common/base/Preconditions.checkState(Z)V:com/google/javascript/rhino/IR.mayBeExpression(Lcom/google/javascript/rhino/Node;)Z:com/google/javascript/rhino/Node.getType()I'
p143
I1
sS'com/google/common/base/Preconditions.checkState(Z)V:com/google/common/base/Preconditions.checkState(Z)V:com/google/common/base/Preconditions.checkState(Z)V:com/google/common/base/Preconditions.checkState(Z)V:com/google/common/base/Preconditions.checkState(Z)V:com/google/javascript/rhino/IR.declaration(Lcom/google/javascript/rhino/Node;I)Lcom/google/javascript/rhino/Node;:com/google/common/base/Preconditions.checkState(Z)V:com/google/common/base/Preconditions.checkState(Z)V:com/google/common/base/Preconditions.checkState(Z)V:com/google/common/base/Preconditions.checkState(Z)V:com/google/common/base/Preconditions.checkState(Z)V:com/google/common/base/Preconditions.checkState(Z)V:com/google/javascript/rhino/Node.<init>(I)V:java/lang/Object.<init>()V'
p144
I2
sS'com/google/common/base/Preconditions.checkState(Z)V:com/google/common/base/Preconditions.checkState(Z)V:com/google/common/base/Preconditions.checkState(Z)V:com/google/common/base/Preconditions.checkState(Z)V:com/google/common/base/Preconditions.checkState(Z)V:com/google/javascript/rhino/IR.declaration(Lcom/google/javascript/rhino/Node;I)Lcom/google/javascript/rhino/Node;:com/google/common/base/Preconditions.checkState(Z)V:com/google/javascript/rhino/Node.toStringTreeImpl()Ljava/lang/String;:java/lang/StringBuilder.<init>()V'
p145
I1
sS'com/google/common/base/Preconditions.checkState(Z)V:com/google/common/base/Preconditions.checkState(Z)V:com/google/common/base/Preconditions.checkState(Z)V:com/google/common/base/Preconditions.checkState(Z)V:com/google/common/base/Preconditions.checkState(Z)V:com/google/javascript/rhino/IR.declaration(Lcom/google/javascript/rhino/Node;I)Lcom/google/javascript/rhino/Node;:com/google/common/base/Preconditions.checkState(Z)V:com/google/common/base/Preconditions.checkState(Z)V:com/google/common/base/Preconditions.checkState(Z)V:com/google/common/base/Preconditions.checkState(Z)V:com/google/javascript/rhino/Node.newString(ILjava/lang/String;)Lcom/google/javascript/rhino/Node;:com/google/javascript/rhino/Node$StringNode.<init>(ILjava/lang/String;)V:com/google/javascript/rhino/Node.<init>(I)V:java/lang/Object.<init>()V'
p146
I1
sS'com/google/common/base/Preconditions.checkState(Z)V:com/google/common/base/Preconditions.checkState(Z)V:com/google/common/base/Preconditions.checkState(Z)V:com/google/common/base/Preconditions.checkState(Z)V:com/google/common/base/Preconditions.checkState(Z)V:com/google/javascript/rhino/IR.declaration(Lcom/google/javascript/rhino/Node;I)Lcom/google/javascript/rhino/Node;:com/google/common/base/Preconditions.checkState(Z)V:com/google/common/base/Preconditions.checkState(Z)V:com/google/common/base/Preconditions.checkState(Z)V:com/google/common/base/Preconditions.checkState(Z)V:com/google/common/base/Preconditions.checkState(Z)V:com/google/javascript/rhino/Node.<init>(I)V:java/lang/Object.<init>()V'
p147
I2
sS'com/google/common/base/Preconditions.checkState(Z)V:com/google/common/base/Preconditions.checkState(Z)V:com/google/common/base/Preconditions.checkState(Z)V:com/google/common/base/Preconditions.checkState(Z)V'
p148
I1
sS'com/google/common/base/Preconditions.checkState(Z)V:com/google/common/base/Preconditions.checkState(Z)V:com/google/common/base/Preconditions.checkState(Z)V:com/google/common/base/Preconditions.checkState(Z)V:com/google/common/base/Preconditions.checkState(Z)V:com/google/javascript/rhino/IR.declaration(Lcom/google/javascript/rhino/Node;I)Lcom/google/javascript/rhino/Node;:com/google/common/base/Preconditions.checkState(Z)V:com/google/common/base/Preconditions.checkState(Z)V:com/google/common/base/Preconditions.checkState(Z)V:com/google/common/base/Preconditions.checkState(Z)V:com/google/common/base/Preconditions.checkState(Z)V:com/google/common/base/Preconditions.checkState(Z)V:com/google/common/base/Preconditions.checkState(Z)V:com/google/common/base/Preconditions.checkState(Z)V:com/google/javascript/rhino/IR.unaryOp(ILcom/google/javascript/rhino/Node;)Lcom/google/javascript/rhino/Node;:com/google/javascript/rhino/IR.mayBeExpression(Lcom/google/javascript/rhino/Node;)Z'
p149
I1
sS'com/google/common/base/Preconditions.checkState(Z)V:com/google/common/base/Preconditions.checkState(Z)V:com/google/common/base/Preconditions.checkState(Z)V:com/google/common/base/Preconditions.checkState(Z)V:com/google/common/base/Preconditions.checkState(Z)V:com/google/javascript/rhino/IR.declaration(Lcom/google/javascript/rhino/Node;I)Lcom/google/javascript/rhino/Node;:com/google/common/base/Preconditions.checkState(Z)V:com/google/javascript/rhino/Node.toStringTreeImpl()Ljava/lang/String;:com/google/javascript/rhino/Node.appendStringTree(Ljava/lang/Appendable;)V:com/google/javascript/rhino/Node.toStringTreeHelper(Lcom/google/javascript/rhino/Node;ILjava/lang/Appendable;)V:com/google/javascript/rhino/Node.toString()Ljava/lang/String;:com/google/javascript/rhino/Node.toString(ZZZ)Ljava/lang/String;:com/google/javascript/rhino/Node.toString(Ljava/lang/StringBuilder;ZZZ)V:com/google/javascript/rhino/Node.getLineno()I'
p150
I1
sS'com/google/common/base/Preconditions.checkState(Z)V:com/google/javascript/rhino/Node.toStringTreeImpl()Ljava/lang/String;:java/lang/StringBuilder.toString()Ljava/lang/String;'
p151
I1
sS'com/google/common/base/Preconditions.checkState(Z)V:com/google/common/base/Preconditions.checkState(Z)V:com/google/common/base/Preconditions.checkState(Z)V:com/google/javascript/rhino/Node.toStringTreeImpl()Ljava/lang/String;:com/google/javascript/rhino/Node.appendStringTree(Ljava/lang/Appendable;)V:com/google/javascript/rhino/Node.toStringTreeHelper(Lcom/google/javascript/rhino/Node;ILjava/lang/Appendable;)V:com/google/javascript/rhino/Node.toString()Ljava/lang/String;:com/google/javascript/rhino/Node.toString(ZZZ)Ljava/lang/String;:com/google/javascript/rhino/Node.toString(Ljava/lang/StringBuilder;ZZZ)V:com/google/javascript/rhino/Node.getLineno()I:com/google/javascript/rhino/Node.extractLineno(I)I'
p152
I1
sS'com/google/common/base/Preconditions.checkState(Z)V:com/google/common/base/Preconditions.checkState(Z)V:com/google/common/base/Preconditions.checkState(Z)V:com/google/common/base/Preconditions.checkState(Z)V:com/google/common/base/Preconditions.checkState(Z)V:com/google/javascript/rhino/IR.declaration(Lcom/google/javascript/rhino/Node;I)Lcom/google/javascript/rhino/Node;:com/google/common/base/Preconditions.checkState(Z)V:com/google/javascript/rhino/Node.newString(ILjava/lang/String;)Lcom/google/javascript/rhino/Node;:com/google/javascript/rhino/Node$StringNode.<init>(ILjava/lang/String;)V:com/google/javascript/rhino/Node.<init>(I)V'
p153
I1
sS'com/google/common/base/Preconditions.checkState(Z)V:com/google/common/base/Preconditions.checkState(Z)V:com/google/javascript/rhino/Node.toStringTreeImpl()Ljava/lang/String;:com/google/javascript/rhino/Node.appendStringTree(Ljava/lang/Appendable;)V:com/google/javascript/rhino/Node.toStringTreeHelper(Lcom/google/javascript/rhino/Node;ILjava/lang/Appendable;)V:com/google/javascript/rhino/Node.toString()Ljava/lang/String;:com/google/javascript/rhino/Node.toString(ZZZ)Ljava/lang/String;:com/google/javascript/rhino/Node.toString(Ljava/lang/StringBuilder;ZZZ)V:com/google/javascript/rhino/Node.getLineno()I:com/google/javascript/rhino/Node.extractLineno(I)I'
p154
I1
sS'com/google/common/base/Preconditions.checkState(Z)V:com/google/common/base/Preconditions.checkState(Z)V:com/google/common/base/Preconditions.checkState(Z)V:com/google/javascript/rhino/IR.script()Lcom/google/javascript/rhino/Node;:com/google/javascript/rhino/Node.<init>(I)V:java/lang/Object.<init>()V'
p155
I1
sS'com/google/common/base/Preconditions.checkState(Z)V:com/google/common/base/Preconditions.checkState(Z)V:com/google/common/base/Preconditions.checkState(Z)V:com/google/common/base/Preconditions.checkState(Z)V:com/google/common/base/Preconditions.checkState(Z)V:com/google/javascript/rhino/IR.declaration(Lcom/google/javascript/rhino/Node;I)Lcom/google/javascript/rhino/Node;:com/google/common/base/Preconditions.checkState(Z)V:com/google/common/base/Preconditions.checkState(Z)V:com/google/common/base/Preconditions.checkState(Z)V:com/google/common/base/Preconditions.checkState(Z)V:com/google/common/base/Preconditions.checkState(Z)V:com/google/common/base/Preconditions.checkState(Z)V:com/google/javascript/rhino/Node.newString(ILjava/lang/String;)Lcom/google/javascript/rhino/Node;'
p156
I1
sS'com/google/common/base/Preconditions.checkState(Z)V:com/google/common/base/Preconditions.checkState(Z)V:com/google/common/base/Preconditions.checkState(Z)V:com/google/common/base/Preconditions.checkState(Z)V:com/google/common/base/Preconditions.checkState(Z)V:com/google/javascript/rhino/IR.declaration(Lcom/google/javascript/rhino/Node;I)Lcom/google/javascript/rhino/Node;:com/google/common/base/Preconditions.checkState(Z)V:com/google/common/base/Preconditions.checkState(Z)V:com/google/common/base/Preconditions.checkState(Z)V:com/google/common/base/Preconditions.checkState(Z)V:com/google/common/base/Preconditions.checkState(Z)V:com/google/common/base/Preconditions.checkState(Z)V:com/google/common/base/Preconditions.checkState(Z)V'
p157
I1
sS'com/google/common/base/Preconditions.checkState(Z)V:com/google/javascript/rhino/Node.toStringTreeImpl()Ljava/lang/String;:com/google/javascript/rhino/Node.appendStringTree(Ljava/lang/Appendable;)V:com/google/javascript/rhino/Node.toStringTreeHelper(Lcom/google/javascript/rhino/Node;ILjava/lang/Appendable;)V:com/google/javascript/rhino/Node.toString()Ljava/lang/String;'
p158
I1
sS'com/google/common/base/Preconditions.checkState(Z)V:com/google/javascript/rhino/Node.isName()Z:com/google/javascript/rhino/Node.getType()I'
p159
I1
sS'com/google/common/base/Preconditions.checkState(Z)V:com/google/common/base/Preconditions.checkState(Z)V:com/google/javascript/rhino/Node.toStringTreeImpl()Ljava/lang/String;:com/google/javascript/rhino/Node.appendStringTree(Ljava/lang/Appendable;)V:com/google/javascript/rhino/Node.toStringTreeHelper(Lcom/google/javascript/rhino/Node;ILjava/lang/Appendable;)V:com/google/javascript/rhino/Node.toString()Ljava/lang/String;:com/google/javascript/rhino/Node.toString(ZZZ)Ljava/lang/String;:com/google/javascript/rhino/Node.toString(Ljava/lang/StringBuilder;ZZZ)V'
p160
I1
sS'com/google/common/base/Preconditions.checkState(Z)V:com/google/common/base/Preconditions.checkState(Z)V:com/google/common/base/Preconditions.checkState(Z)V:com/google/common/base/Preconditions.checkState(Z)V:com/google/common/base/Preconditions.checkState(Z)V:com/google/javascript/rhino/IR.declaration(Lcom/google/javascript/rhino/Node;I)Lcom/google/javascript/rhino/Node;:com/google/common/base/Preconditions.checkState(Z)V:com/google/common/base/Preconditions.checkState(Z)V:com/google/common/base/Preconditions.checkState(Z)V:com/google/javascript/rhino/IR.mayBeExpression(Lcom/google/javascript/rhino/Node;)Z'
p161
I1
sS'com/google/common/base/Preconditions.checkState(Z)V:com/google/javascript/rhino/Node.toStringTreeImpl()Ljava/lang/String;:com/google/javascript/rhino/Node.appendStringTree(Ljava/lang/Appendable;)V:com/google/javascript/rhino/Node.toStringTreeHelper(Lcom/google/javascript/rhino/Node;ILjava/lang/Appendable;)V:com/google/javascript/rhino/Node.toString()Ljava/lang/String;:com/google/javascript/rhino/Node.toString(ZZZ)Ljava/lang/String;:com/google/javascript/rhino/Node.toString(Ljava/lang/StringBuilder;ZZZ)V:com/google/javascript/rhino/Node.getSortedPropTypes()[I:java/util/Arrays.sort([I)V'
p162
I1
sS'com/google/common/base/Preconditions.checkState(Z)V:com/google/common/base/Preconditions.checkState(Z)V:com/google/common/base/Preconditions.checkState(Z)V:com/google/common/base/Preconditions.checkState(Z)V:com/google/common/base/Preconditions.checkState(Z)V:com/google/javascript/rhino/IR.declaration(Lcom/google/javascript/rhino/Node;I)Lcom/google/javascript/rhino/Node;:com/google/common/base/Preconditions.checkState(Z)V:com/google/common/base/Preconditions.checkState(Z)V:com/google/common/base/Preconditions.checkState(Z)V:com/google/javascript/rhino/Node.newString(ILjava/lang/String;)Lcom/google/javascript/rhino/Node;:com/google/javascript/rhino/Node$StringNode.<init>(ILjava/lang/String;)V'
p163
I1
sS'com/google/common/base/Preconditions.checkState(Z)V:com/google/common/base/Preconditions.checkState(Z)V:com/google/common/base/Preconditions.checkState(Z)V:com/google/common/base/Preconditions.checkState(Z)V:com/google/common/base/Preconditions.checkState(Z)V:com/google/javascript/rhino/IR.declaration(Lcom/google/javascript/rhino/Node;I)Lcom/google/javascript/rhino/Node;:com/google/common/base/Preconditions.checkState(Z)V:com/google/common/base/Preconditions.checkState(Z)V:com/google/common/base/Preconditions.checkState(Z)V:com/google/common/base/Preconditions.checkState(Z)V:com/google/javascript/rhino/Node.newString(ILjava/lang/String;)Lcom/google/javascript/rhino/Node;:com/google/javascript/rhino/Node$StringNode.<init>(ILjava/lang/String;)V:com/google/javascript/rhino/Node.<init>(I)V'
p164
I1
sS'com/google/common/base/Preconditions.checkState(Z)V:com/google/common/base/Preconditions.checkState(Z)V:com/google/common/base/Preconditions.checkState(Z)V:com/google/common/base/Preconditions.checkState(Z)V:com/google/common/base/Preconditions.checkState(Z)V:com/google/javascript/rhino/IR.declaration(Lcom/google/javascript/rhino/Node;I)Lcom/google/javascript/rhino/Node;:com/google/common/base/Preconditions.checkState(Z)V:com/google/common/base/Preconditions.checkState(Z)V:com/google/common/base/Preconditions.checkState(Z)V:com/google/common/base/Preconditions.checkState(Z)V:com/google/common/base/Preconditions.checkState(Z)V:com/google/common/base/Preconditions.checkState(Z)V:com/google/common/base/Preconditions.checkState(Z)V:com/google/common/base/Preconditions.checkState(Z)V:com/google/javascript/rhino/Node.newNumber(D)Lcom/google/javascript/rhino/Node;:com/google/javascript/rhino/Node$NumberNode.<init>(D)V'
p165
I1
sS'com/google/common/base/Preconditions.checkState(Z)V:com/google/common/base/Preconditions.checkState(Z)V:com/google/common/base/Preconditions.checkState(Z)V:com/google/javascript/rhino/Node.toStringTreeImpl()Ljava/lang/String;:com/google/javascript/rhino/Node.appendStringTree(Ljava/lang/Appendable;)V:com/google/javascript/rhino/Node.toStringTreeHelper(Lcom/google/javascript/rhino/Node;ILjava/lang/Appendable;)V:com/google/javascript/rhino/Node.toString()Ljava/lang/String;:com/google/javascript/rhino/Node.toString(ZZZ)Ljava/lang/String;:com/google/javascript/rhino/Node.toString(Ljava/lang/StringBuilder;ZZZ)V:com/google/javascript/rhino/Token.name(I)Ljava/lang/String;'
p166
I1
sS'com/google/common/base/Preconditions.checkState(Z)V:com/google/common/base/Preconditions.checkState(Z)V:com/google/common/base/Preconditions.checkState(Z)V:com/google/common/base/Preconditions.checkState(Z)V:com/google/common/base/Preconditions.checkState(Z)V:com/google/javascript/rhino/IR.declaration(Lcom/google/javascript/rhino/Node;I)Lcom/google/javascript/rhino/Node;:com/google/common/base/Preconditions.checkState(Z)V:com/google/common/base/Preconditions.checkState(Z)V:com/google/javascript/rhino/Node.newString(ILjava/lang/String;)Lcom/google/javascript/rhino/Node;:com/google/javascript/rhino/Node$StringNode.<init>(ILjava/lang/String;)V:com/google/javascript/rhino/Node.<init>(I)V'
p167
I1
sS'com/google/common/base/Preconditions.checkState(Z)V:com/google/common/base/Preconditions.checkState(Z)V:com/google/common/base/Preconditions.checkState(Z)V:com/google/common/base/Preconditions.checkState(Z)V:com/google/common/base/Preconditions.checkState(Z)V:com/google/javascript/rhino/Node.newString(ILjava/lang/String;)Lcom/google/javascript/rhino/Node;:com/google/javascript/rhino/Node$StringNode.<init>(ILjava/lang/String;)V:com/google/javascript/rhino/Node.<init>(I)V'
p168
I1
sS'com/google/javascript/rhino/Node.toStringTreeImpl()Ljava/lang/String;:com/google/javascript/rhino/Node.appendStringTree(Ljava/lang/Appendable;)V:com/google/javascript/rhino/Node.toStringTreeHelper(Lcom/google/javascript/rhino/Node;ILjava/lang/Appendable;)V:com/google/javascript/rhino/Node.toString()Ljava/lang/String;:com/google/javascript/rhino/Node.toString(ZZZ)Ljava/lang/String;:com/google/javascript/rhino/Node.toString(Ljava/lang/StringBuilder;ZZZ)V'
p169
I1
sS'com/google/common/base/Preconditions.checkState(Z)V:com/google/common/base/Preconditions.checkState(Z)V:com/google/javascript/rhino/Node.toStringTreeImpl()Ljava/lang/String;:com/google/javascript/rhino/Node.appendStringTree(Ljava/lang/Appendable;)V:com/google/javascript/rhino/Node.toStringTreeHelper(Lcom/google/javascript/rhino/Node;ILjava/lang/Appendable;)V:com/google/javascript/rhino/Node.toString()Ljava/lang/String;:com/google/javascript/rhino/Node.toString(ZZZ)Ljava/lang/String;'
p170
I1
sS'com/google/common/base/Preconditions.checkState(Z)V:com/google/common/base/Preconditions.checkState(Z)V:com/google/javascript/rhino/IR.block()Lcom/google/javascript/rhino/Node;:com/google/javascript/rhino/Node.<init>(I)V'
p171
I1
sS'com/google/common/base/Preconditions.checkState(Z)V:com/google/common/base/Preconditions.checkState(Z)V:com/google/common/base/Preconditions.checkState(Z)V:com/google/common/base/Preconditions.checkState(Z)V:com/google/common/base/Preconditions.checkState(Z)V:com/google/javascript/rhino/IR.declaration(Lcom/google/javascript/rhino/Node;I)Lcom/google/javascript/rhino/Node;:com/google/common/base/Preconditions.checkState(Z)V:com/google/common/base/Preconditions.checkState(Z)V:com/google/common/base/Preconditions.checkState(Z)V:com/google/common/base/Preconditions.checkState(Z)V:com/google/common/base/Preconditions.checkState(Z)V:com/google/common/base/Preconditions.checkState(Z)V:com/google/javascript/rhino/Node.isName()Z:com/google/javascript/rhino/Node.getType()I'
p172
I1
sS'com/google/common/base/Preconditions.checkState(Z)V:com/google/common/base/Preconditions.checkState(Z)V:com/google/common/base/Preconditions.checkState(Z)V:com/google/common/base/Preconditions.checkState(Z)V:com/google/common/base/Preconditions.checkState(Z)V:com/google/javascript/rhino/IR.declaration(Lcom/google/javascript/rhino/Node;I)Lcom/google/javascript/rhino/Node;:com/google/common/base/Preconditions.checkState(Z)V:com/google/common/base/Preconditions.checkState(Z)V:com/google/common/base/Preconditions.checkState(Z)V:com/google/common/base/Preconditions.checkState(Z)V:com/google/common/base/Preconditions.checkState(Z)V:com/google/common/base/Preconditions.checkState(Z)V:com/google/common/base/Preconditions.checkState(Z)V:com/google/javascript/rhino/Node.newString(ILjava/lang/String;)Lcom/google/javascript/rhino/Node;:com/google/javascript/rhino/Node$StringNode.<init>(ILjava/lang/String;)V:com/google/javascript/rhino/Node.<init>(I)V'
p173
I1
sS'com/google/common/base/Preconditions.checkState(Z)V:com/google/common/base/Preconditions.checkState(Z)V:com/google/common/base/Preconditions.checkState(Z)V:com/google/common/base/Preconditions.checkState(Z)V:com/google/common/base/Preconditions.checkState(Z)V:com/google/javascript/rhino/IR.declaration(Lcom/google/javascript/rhino/Node;I)Lcom/google/javascript/rhino/Node;:com/google/common/base/Preconditions.checkState(Z)V:com/google/javascript/rhino/Node.toStringTreeImpl()Ljava/lang/String;:com/google/javascript/rhino/Node.appendStringTree(Ljava/lang/Appendable;)V:com/google/javascript/rhino/Node.toStringTreeHelper(Lcom/google/javascript/rhino/Node;ILjava/lang/Appendable;)V:java/lang/Appendable.append(C)Ljava/lang/Appendable;'
p174
I1
sS'com/google/common/base/Preconditions.checkState(Z)V:com/google/common/base/Preconditions.checkState(Z)V:com/google/common/base/Preconditions.checkState(Z)V:com/google/javascript/rhino/Node.toStringTreeImpl()Ljava/lang/String;'
p175
I1
sS'com/google/common/base/Preconditions.checkState(Z)V:com/google/common/base/Preconditions.checkState(Z)V:com/google/common/base/Preconditions.checkState(Z)V:com/google/common/base/Preconditions.checkState(Z)V:com/google/common/base/Preconditions.checkState(Z)V:com/google/javascript/rhino/IR.declaration(Lcom/google/javascript/rhino/Node;I)Lcom/google/javascript/rhino/Node;:com/google/common/base/Preconditions.checkState(Z)V:com/google/common/base/Preconditions.checkState(Z)V:com/google/common/base/Preconditions.checkState(Z)V:com/google/common/base/Preconditions.checkState(Z)V:com/google/javascript/rhino/IR.mayBeExpression(Lcom/google/javascript/rhino/Node;)Z'
p176
I1
sS'com/google/common/base/Preconditions.checkState(Z)V:com/google/common/base/Preconditions.checkState(Z)V:com/google/common/base/Preconditions.checkState(Z)V:com/google/common/base/Preconditions.checkState(Z)V:com/google/common/base/Preconditions.checkState(Z)V:com/google/javascript/rhino/IR.declaration(Lcom/google/javascript/rhino/Node;I)Lcom/google/javascript/rhino/Node;'
p177
I1
sS'com/google/common/base/Preconditions.checkState(Z)V:com/google/javascript/rhino/Node.toStringTreeImpl()Ljava/lang/String;:com/google/javascript/rhino/Node.appendStringTree(Ljava/lang/Appendable;)V:com/google/javascript/rhino/Node.toStringTreeHelper(Lcom/google/javascript/rhino/Node;ILjava/lang/Appendable;)V:com/google/javascript/rhino/Node.toString()Ljava/lang/String;:com/google/javascript/rhino/Node.toString(ZZZ)Ljava/lang/String;:com/google/javascript/rhino/Node.toString(Ljava/lang/StringBuilder;ZZZ)V:com/google/javascript/rhino/Node.getSortedPropTypes()[I'
p178
I1
sS'com/google/common/base/Preconditions.checkState(Z)V:com/google/common/base/Preconditions.checkState(Z)V:com/google/common/base/Preconditions.checkState(Z)V:com/google/common/base/Preconditions.checkState(Z)V:com/google/javascript/rhino/Node.<init>(I)V'
p179
I1
sS'com/google/common/base/Preconditions.checkState(Z)V:com/google/common/base/Preconditions.checkState(Z)V:com/google/common/base/Preconditions.checkState(Z)V:com/google/common/base/Preconditions.checkState(Z)V:com/google/common/base/Preconditions.checkState(Z)V:com/google/javascript/rhino/IR.declaration(Lcom/google/javascript/rhino/Node;I)Lcom/google/javascript/rhino/Node;:com/google/common/base/Preconditions.checkState(Z)V:com/google/javascript/rhino/Node.toStringTreeImpl()Ljava/lang/String;'
p180
I1
sS'com/google/common/base/Preconditions.checkState(Z)V:com/google/common/base/Preconditions.checkState(Z)V:com/google/javascript/rhino/IR.mayBeStatement(Lcom/google/javascript/rhino/Node;)Z:com/google/javascript/rhino/IR.mayBeStatementNoReturn(Lcom/google/javascript/rhino/Node;)Z:com/google/javascript/rhino/Node.getType()I'
p181
I1
sS'com/google/common/base/Preconditions.checkState(Z)V:com/google/common/base/Preconditions.checkState(Z)V:com/google/common/base/Preconditions.checkState(Z)V:com/google/common/base/Preconditions.checkState(Z)V:com/google/common/base/Preconditions.checkState(Z)V:com/google/javascript/rhino/Node.newString(ILjava/lang/String;)Lcom/google/javascript/rhino/Node;:com/google/javascript/rhino/Node$StringNode.<init>(ILjava/lang/String;)V:com/google/javascript/rhino/Node.<init>(I)V:java/lang/Object.<init>()V'
p182
I1
sS'com/google/common/base/Preconditions.checkState(Z)V:com/google/common/base/Preconditions.checkState(Z)V:com/google/javascript/rhino/Node.toStringTreeImpl()Ljava/lang/String;:com/google/javascript/rhino/Node.appendStringTree(Ljava/lang/Appendable;)V'
p183
I1
sS'com/google/common/base/Preconditions.checkState(Z)V:com/google/common/base/Preconditions.checkState(Z)V:com/google/common/base/Preconditions.checkState(Z)V:com/google/common/base/Preconditions.checkState(Z)V:com/google/common/base/Preconditions.checkState(Z)V:com/google/javascript/rhino/IR.declaration(Lcom/google/javascript/rhino/Node;I)Lcom/google/javascript/rhino/Node;:com/google/common/base/Preconditions.checkState(Z)V:com/google/common/base/Preconditions.checkState(Z)V:com/google/common/base/Preconditions.checkState(Z)V:com/google/common/base/Preconditions.checkState(Z)V:com/google/common/base/Preconditions.checkState(Z)V:com/google/common/base/Preconditions.checkState(Z)V:com/google/javascript/rhino/Node.<init>(I)V'
p184
I2
sS'com/google/common/base/Preconditions.checkState(Z)V:com/google/common/base/Preconditions.checkState(Z)V:com/google/common/base/Preconditions.checkState(Z)V:com/google/common/base/Preconditions.checkState(Z)V:com/google/common/base/Preconditions.checkState(Z)V:com/google/javascript/rhino/IR.declaration(Lcom/google/javascript/rhino/Node;I)Lcom/google/javascript/rhino/Node;:com/google/common/base/Preconditions.checkState(Z)V:com/google/common/base/Preconditions.checkState(Z)V:com/google/common/base/Preconditions.checkState(Z)V:com/google/common/base/Preconditions.checkState(Z)V:com/google/javascript/rhino/Node.<init>(I)V:java/lang/Object.<init>()V'
p185
I1
sS'com/google/common/base/Preconditions.checkState(Z)V:com/google/common/base/Preconditions.checkState(Z)V:com/google/common/base/Preconditions.checkState(Z)V:com/google/common/base/Preconditions.checkState(Z)V:com/google/common/base/Preconditions.checkState(Z)V:com/google/javascript/rhino/IR.declaration(Lcom/google/javascript/rhino/Node;I)Lcom/google/javascript/rhino/Node;:com/google/common/base/Preconditions.checkState(Z)V:com/google/common/base/Preconditions.checkState(Z)V:com/google/common/base/Preconditions.checkState(Z)V:com/google/common/base/Preconditions.checkState(Z)V:com/google/common/base/Preconditions.checkState(Z)V:com/google/common/base/Preconditions.checkState(Z)V:com/google/common/base/Preconditions.checkState(Z)V:com/google/javascript/rhino/Node.newString(ILjava/lang/String;)Lcom/google/javascript/rhino/Node;:com/google/javascript/rhino/Node$StringNode.<init>(ILjava/lang/String;)V:com/google/javascript/rhino/Node.<init>(I)V:java/lang/Object.<init>()V'
p186
I1
sS'com/google/common/base/Preconditions.checkState(Z)V:com/google/common/base/Preconditions.checkState(Z)V:com/google/common/base/Preconditions.checkState(Z)V:com/google/common/base/Preconditions.checkState(Z)V:com/google/common/base/Preconditions.checkState(Z)V:com/google/javascript/rhino/IR.declaration(Lcom/google/javascript/rhino/Node;I)Lcom/google/javascript/rhino/Node;:com/google/common/base/Preconditions.checkState(Z)V:com/google/javascript/rhino/Node.toStringTreeImpl()Ljava/lang/String;:com/google/javascript/rhino/Node.appendStringTree(Ljava/lang/Appendable;)V:com/google/javascript/rhino/Node.toStringTreeHelper(Lcom/google/javascript/rhino/Node;ILjava/lang/Appendable;)V:com/google/javascript/rhino/Node.toString()Ljava/lang/String;:com/google/javascript/rhino/Node.toString(ZZZ)Ljava/lang/String;:java/lang/StringBuilder.toString()Ljava/lang/String;'
p187
I1
sS'com/google/common/base/Preconditions.checkState(Z)V:com/google/common/base/Preconditions.checkState(Z)V:com/google/common/base/Preconditions.checkState(Z)V:com/google/common/base/Preconditions.checkState(Z)V:com/google/common/base/Preconditions.checkState(Z)V:com/google/javascript/rhino/IR.declaration(Lcom/google/javascript/rhino/Node;I)Lcom/google/javascript/rhino/Node;:com/google/common/base/Preconditions.checkState(Z)V:com/google/common/base/Preconditions.checkState(Z)V:com/google/common/base/Preconditions.checkState(Z)V:com/google/common/base/Preconditions.checkState(Z)V:com/google/javascript/rhino/Node.newString(ILjava/lang/String;)Lcom/google/javascript/rhino/Node;:com/google/javascript/rhino/Node$StringNode.<init>(ILjava/lang/String;)V'
p188
I1
sS'com/google/common/base/Preconditions.checkState(Z)V:com/google/javascript/rhino/Node.newString(ILjava/lang/String;)Lcom/google/javascript/rhino/Node;:com/google/javascript/rhino/Node$StringNode.<init>(ILjava/lang/String;)V:com/google/javascript/rhino/Node.<init>(I)V'
p189
I2
sS'com/google/common/base/Preconditions.checkState(Z)V:com/google/common/base/Preconditions.checkState(Z)V:com/google/common/base/Preconditions.checkState(Z)V:com/google/common/base/Preconditions.checkState(Z)V:com/google/common/base/Preconditions.checkState(Z)V'
p190
I1
sS'com/google/common/base/Preconditions.checkState(Z)V:com/google/common/base/Preconditions.checkState(Z)V:com/google/common/base/Preconditions.checkState(Z)V:com/google/common/base/Preconditions.checkState(Z)V:com/google/common/base/Preconditions.checkState(Z)V:com/google/javascript/rhino/IR.declaration(Lcom/google/javascript/rhino/Node;I)Lcom/google/javascript/rhino/Node;:com/google/common/base/Preconditions.checkState(Z)V:com/google/javascript/rhino/Node.toStringTreeImpl()Ljava/lang/String;:com/google/javascript/rhino/Node.appendStringTree(Ljava/lang/Appendable;)V:com/google/javascript/rhino/Node.toStringTreeHelper(Lcom/google/javascript/rhino/Node;ILjava/lang/Appendable;)V:com/google/javascript/rhino/Node.toString()Ljava/lang/String;:com/google/javascript/rhino/Node.toString(ZZZ)Ljava/lang/String;:java/lang/StringBuilder.<init>()V'
p191
I1
sS'com/google/common/base/Preconditions.checkState(Z)V:com/google/common/base/Preconditions.checkState(Z)V:com/google/common/base/Preconditions.checkState(Z)V:com/google/javascript/rhino/Node.toStringTreeImpl()Ljava/lang/String;:com/google/javascript/rhino/Node.appendStringTree(Ljava/lang/Appendable;)V:com/google/javascript/rhino/Node.toStringTreeHelper(Lcom/google/javascript/rhino/Node;ILjava/lang/Appendable;)V:java/lang/Appendable.append(C)Ljava/lang/Appendable;'
p192
I1
sS'com/google/common/base/Preconditions.checkState(Z)V:com/google/common/base/Preconditions.checkState(Z)V:com/google/javascript/rhino/Node.<init>(I)V:java/lang/Object.<init>()V'
p193
I3
sS'com/google/common/base/Preconditions.checkState(Z)V:com/google/javascript/rhino/Node.toStringTreeImpl()Ljava/lang/String;:com/google/javascript/rhino/Node.appendStringTree(Ljava/lang/Appendable;)V:com/google/javascript/rhino/Node.toStringTreeHelper(Lcom/google/javascript/rhino/Node;ILjava/lang/Appendable;)V:java/lang/Appendable.append(C)Ljava/lang/Appendable;'
p194
I1
sS'com/google/common/base/Preconditions.checkState(Z)V:com/google/common/base/Preconditions.checkState(Z)V:com/google/common/base/Preconditions.checkState(Z)V:com/google/common/base/Preconditions.checkState(Z)V:com/google/common/base/Preconditions.checkState(Z)V:com/google/javascript/rhino/IR.declaration(Lcom/google/javascript/rhino/Node;I)Lcom/google/javascript/rhino/Node;:com/google/common/base/Preconditions.checkState(Z)V:com/google/javascript/rhino/Node.toStringTreeImpl()Ljava/lang/String;:com/google/javascript/rhino/Node.appendStringTree(Ljava/lang/Appendable;)V:com/google/javascript/rhino/Node.toStringTreeHelper(Lcom/google/javascript/rhino/Node;ILjava/lang/Appendable;)V:java/lang/Appendable.append(Ljava/lang/CharSequence;)Ljava/lang/Appendable;'
p195
I1
sS'com/google/javascript/rhino/Node.toStringTreeImpl()Ljava/lang/String;:java/lang/StringBuilder.toString()Ljava/lang/String;'
p196
I1
sS'com/google/javascript/rhino/Node.toStringTreeImpl()Ljava/lang/String;:com/google/javascript/rhino/Node.appendStringTree(Ljava/lang/Appendable;)V:com/google/javascript/rhino/Node.toStringTreeHelper(Lcom/google/javascript/rhino/Node;ILjava/lang/Appendable;)V:com/google/javascript/rhino/Node.toString()Ljava/lang/String;:com/google/javascript/rhino/Node.toString(ZZZ)Ljava/lang/String;'
p197
I1
sS'com/google/common/base/Preconditions.checkState(Z)V:com/google/common/base/Preconditions.checkState(Z)V:com/google/common/base/Preconditions.checkState(Z)V:com/google/common/base/Preconditions.checkState(Z)V:com/google/common/base/Preconditions.checkState(Z)V:com/google/javascript/rhino/IR.declaration(Lcom/google/javascript/rhino/Node;I)Lcom/google/javascript/rhino/Node;:com/google/common/base/Preconditions.checkState(Z)V:com/google/common/base/Preconditions.checkState(Z)V:com/google/common/base/Preconditions.checkState(Z)V:com/google/common/base/Preconditions.checkState(Z)V:com/google/common/base/Preconditions.checkState(Z)V:com/google/javascript/rhino/Node.isBlock()Z:com/google/javascript/rhino/Node.getType()I'
p198
I1
sS'com/google/common/base/Preconditions.checkState(Z)V:com/google/common/base/Preconditions.checkState(Z)V:com/google/javascript/rhino/IR.block()Lcom/google/javascript/rhino/Node;:com/google/javascript/rhino/Node.<init>(I)V:java/lang/Object.<init>()V'
p199
I1
sS'com/google/common/base/Preconditions.checkState(Z)V:com/google/common/base/Preconditions.checkState(Z)V:com/google/common/base/Preconditions.checkState(Z)V:com/google/common/base/Preconditions.checkState(Z)V:com/google/javascript/rhino/IR.script()Lcom/google/javascript/rhino/Node;'
p200
I1
sS'com/google/common/base/Preconditions.checkState(Z)V:com/google/common/base/Preconditions.checkState(Z)V:com/google/javascript/rhino/Node.toStringTreeImpl()Ljava/lang/String;:com/google/javascript/rhino/Node.appendStringTree(Ljava/lang/Appendable;)V:com/google/javascript/rhino/Node.toStringTreeHelper(Lcom/google/javascript/rhino/Node;ILjava/lang/Appendable;)V:com/google/javascript/rhino/Node.toString()Ljava/lang/String;:com/google/javascript/rhino/Node.toString(ZZZ)Ljava/lang/String;:com/google/javascript/rhino/Node.toString(Ljava/lang/StringBuilder;ZZZ)V:com/google/javascript/rhino/Node.getLineno()I'
p201
I1
sS'com/google/common/base/Preconditions.checkState(Z)V:com/google/common/base/Preconditions.checkState(Z)V:com/google/common/base/Preconditions.checkState(Z)V:com/google/common/base/Preconditions.checkState(Z)V:com/google/common/base/Preconditions.checkState(Z)V:com/google/javascript/rhino/IR.declaration(Lcom/google/javascript/rhino/Node;I)Lcom/google/javascript/rhino/Node;:com/google/common/base/Preconditions.checkState(Z)V:com/google/common/base/Preconditions.checkState(Z)V:com/google/common/base/Preconditions.checkState(Z)V:com/google/common/base/Preconditions.checkState(Z)V:com/google/common/base/Preconditions.checkState(Z)V:com/google/common/base/Preconditions.checkState(Z)V:com/google/common/base/Preconditions.checkState(Z)V:com/google/common/base/Preconditions.checkState(Z)V:com/google/javascript/rhino/IR.unaryOp(ILcom/google/javascript/rhino/Node;)Lcom/google/javascript/rhino/Node;'
p202
I1
sS'com/google/common/base/Preconditions.checkState(Z)V:com/google/common/base/Preconditions.checkState(Z)V:com/google/common/base/Preconditions.checkState(Z)V:com/google/javascript/rhino/Node.toStringTreeImpl()Ljava/lang/String;:com/google/javascript/rhino/Node.appendStringTree(Ljava/lang/Appendable;)V:com/google/javascript/rhino/Node.toStringTreeHelper(Lcom/google/javascript/rhino/Node;ILjava/lang/Appendable;)V:com/google/javascript/rhino/Node.toString()Ljava/lang/String;:com/google/javascript/rhino/Node.toString(ZZZ)Ljava/lang/String;:com/google/javascript/rhino/Node.toString(Ljava/lang/StringBuilder;ZZZ)V:com/google/javascript/rhino/Node.getSortedPropTypes()[I'
p203
I1
sS'com/google/common/base/Preconditions.checkState(Z)V:com/google/common/base/Preconditions.checkState(Z)V:com/google/common/base/Preconditions.checkState(Z)V:com/google/javascript/rhino/Node.toStringTreeImpl()Ljava/lang/String;:com/google/javascript/rhino/Node.appendStringTree(Ljava/lang/Appendable;)V:com/google/javascript/rhino/Node.toStringTreeHelper(Lcom/google/javascript/rhino/Node;ILjava/lang/Appendable;)V:com/google/javascript/rhino/Node.toString()Ljava/lang/String;:com/google/javascript/rhino/Node.toString(ZZZ)Ljava/lang/String;:com/google/javascript/rhino/Node.toString(Ljava/lang/StringBuilder;ZZZ)V:java/lang/StringBuilder.append(Ljava/lang/String;)Ljava/lang/StringBuilder;'
p204
I1
sS'com/google/common/base/Preconditions.checkState(Z)V:com/google/common/base/Preconditions.checkState(Z)V:com/google/javascript/rhino/Node.toStringTreeImpl()Ljava/lang/String;:com/google/javascript/rhino/Node.appendStringTree(Ljava/lang/Appendable;)V:com/google/javascript/rhino/Node.toStringTreeHelper(Lcom/google/javascript/rhino/Node;ILjava/lang/Appendable;)V:java/lang/Appendable.append(Ljava/lang/CharSequence;)Ljava/lang/Appendable;'
p205
I1
sS'com/google/common/base/Preconditions.checkState(Z)V:com/google/common/base/Preconditions.checkState(Z)V:com/google/common/base/Preconditions.checkState(Z)V:com/google/common/base/Preconditions.checkState(Z)V:com/google/common/base/Preconditions.checkState(Z)V:com/google/javascript/rhino/IR.declaration(Lcom/google/javascript/rhino/Node;I)Lcom/google/javascript/rhino/Node;:com/google/common/base/Preconditions.checkState(Z)V:com/google/common/base/Preconditions.checkState(Z)V:com/google/common/base/Preconditions.checkState(Z)V'
p206
I1
sS'com/google/common/base/Preconditions.checkState(Z)V:com/google/common/base/Preconditions.checkState(Z)V:com/google/common/base/Preconditions.checkState(Z)V:com/google/common/base/Preconditions.checkState(Z)V:com/google/common/base/Preconditions.checkState(Z)V:com/google/javascript/rhino/IR.declaration(Lcom/google/javascript/rhino/Node;I)Lcom/google/javascript/rhino/Node;:com/google/javascript/rhino/Node.isName()Z'
p207
I1
sS'com/google/common/base/Preconditions.checkState(Z)V:com/google/common/base/Preconditions.checkState(Z)V:com/google/common/base/Preconditions.checkState(Z)V:com/google/common/base/Preconditions.checkState(Z)V:com/google/javascript/rhino/Node.<init>(I)V:java/lang/Object.<init>()V'
p208
I1
sS'com/google/common/base/Preconditions.checkState(Z)V:com/google/common/base/Preconditions.checkState(Z)V:com/google/common/base/Preconditions.checkState(Z)V:com/google/common/base/Preconditions.checkState(Z)V:com/google/common/base/Preconditions.checkState(Z)V:com/google/javascript/rhino/IR.declaration(Lcom/google/javascript/rhino/Node;I)Lcom/google/javascript/rhino/Node;:com/google/common/base/Preconditions.checkState(Z)V:com/google/javascript/rhino/Node.toStringTreeImpl()Ljava/lang/String;:java/lang/StringBuilder.toString()Ljava/lang/String;'
p209
I1
sS'com/google/common/base/Preconditions.checkState(Z)V:com/google/common/base/Preconditions.checkState(Z)V:com/google/javascript/rhino/Node.toStringTreeImpl()Ljava/lang/String;:com/google/javascript/rhino/Node.appendStringTree(Ljava/lang/Appendable;)V:com/google/javascript/rhino/Node.toStringTreeHelper(Lcom/google/javascript/rhino/Node;ILjava/lang/Appendable;)V:com/google/javascript/rhino/Node.toString()Ljava/lang/String;:com/google/javascript/rhino/Node.toString(ZZZ)Ljava/lang/String;:com/google/javascript/rhino/Node.toString(Ljava/lang/StringBuilder;ZZZ)V:com/google/javascript/rhino/Node.getSortedPropTypes()[I:java/util/Arrays.sort([I)V'
p210
I1
sS'com/google/common/base/Preconditions.checkState(Z)V:com/google/javascript/rhino/Node.toStringTreeImpl()Ljava/lang/String;:com/google/javascript/rhino/Node.appendStringTree(Ljava/lang/Appendable;)V:com/google/javascript/rhino/Node.toStringTreeHelper(Lcom/google/javascript/rhino/Node;ILjava/lang/Appendable;)V:com/google/javascript/rhino/Node.toString()Ljava/lang/String;:com/google/javascript/rhino/Node.toString(ZZZ)Ljava/lang/String;:com/google/javascript/rhino/Node.toString(Ljava/lang/StringBuilder;ZZZ)V:com/google/javascript/rhino/Token.name(I)Ljava/lang/String;'
p211
I1
sS'com/google/common/base/Preconditions.checkState(Z)V:com/google/javascript/rhino/Node.toStringTreeImpl()Ljava/lang/String;'
p212
I1
s.