(dp0
S'com/google/javascript/rhino/jstype/JSTypeNative.<init>(Ljava/lang/String;I)V'
p1
I56
sS'com/google/javascript/rhino/jstype/JSTypeNative.<init>(Ljava/lang/String;I)V:java/lang/Enum.<init>(Ljava/lang/String;I)V'
p2
I56
s.