(dp0
S'com/google/common/base/Preconditions.checkArgument(ZLjava/lang/Object;)V:com/google/common/base/Preconditions.checkArgument(ZLjava/lang/Object;)V:com/google/common/base/Preconditions.checkArgument(ZLjava/lang/Object;)V:com/google/common/base/Preconditions.checkArgument(ZLjava/lang/Object;)V:com/google/javascript/rhino/Node.newString(ILjava/lang/String;)Lcom/google/javascript/rhino/Node;'
p1
I4
sS'com/google/common/base/Preconditions.checkArgument(ZLjava/lang/Object;)V:com/google/common/base/Preconditions.checkArgument(ZLjava/lang/Object;)V:com/google/common/base/Preconditions.checkArgument(ZLjava/lang/Object;)V:com/google/common/base/Preconditions.checkArgument(ZLjava/lang/Object;)V:com/google/javascript/rhino/Node.newString(Ljava/lang/String;)Lcom/google/javascript/rhino/Node;:com/google/javascript/rhino/Node$StringNode.<init>(ILjava/lang/String;)V'
p2
I1
sS'com/google/common/base/Preconditions.checkArgument(ZLjava/lang/Object;)V:com/google/common/base/Preconditions.checkArgument(ZLjava/lang/Object;)V:com/google/common/base/Preconditions.checkArgument(ZLjava/lang/Object;)V:com/google/common/base/Preconditions.checkArgument(ZLjava/lang/Object;)V:com/google/javascript/rhino/Node.getJSDocInfo()Lcom/google/javascript/rhino/JSDocInfo;:com/google/javascript/rhino/Node.getProp(I)Ljava/lang/Object;:com/google/javascript/rhino/Node$PropListItem.getObjectValue()Ljava/lang/Object;'
p3
I1
sS'com/google/common/base/Preconditions.checkArgument(ZLjava/lang/Object;)V:com/google/common/base/Preconditions.checkArgument(ZLjava/lang/Object;)V:com/google/common/base/Preconditions.checkArgument(ZLjava/lang/Object;)V:com/google/common/base/Preconditions.checkArgument(ZLjava/lang/Object;)V:java/lang/Object.<init>()V'
p4
I12
sS'com/google/common/base/Preconditions.checkArgument(ZLjava/lang/Object;)V:com/google/common/base/Preconditions.checkArgument(ZLjava/lang/Object;)V:com/google/common/base/Preconditions.checkArgument(ZLjava/lang/Object;)V:com/google/common/base/Preconditions.checkArgument(ZLjava/lang/Object;)V:com/google/common/base/Preconditions.checkState(Z)V:com/google/common/base/Preconditions.checkState(Z)V:com/google/common/base/Preconditions.checkState(ZLjava/lang/Object;)V:com/google/javascript/rhino/Node$StringNode.<init>(ILjava/lang/String;)V:com/google/javascript/rhino/Node.<init>(I)V'
p5
I1
sS'com/google/common/base/Preconditions.checkArgument(ZLjava/lang/Object;)V:com/google/common/base/Preconditions.checkArgument(ZLjava/lang/Object;)V:com/google/common/base/Preconditions.checkArgument(ZLjava/lang/Object;)V:com/google/common/base/Preconditions.checkArgument(ZLjava/lang/Object;)V:com/google/common/base/Preconditions.checkState(Z)V:com/google/javascript/rhino/IR.mayBeExpression(Lcom/google/javascript/rhino/Node;)Z:com/google/javascript/rhino/Node.getType()I'
p6
I1
sS'com/google/common/base/Preconditions.checkArgument(ZLjava/lang/Object;)V:com/google/common/base/Preconditions.checkArgument(ZLjava/lang/Object;)V:com/google/common/base/Preconditions.checkArgument(ZLjava/lang/Object;)V:com/google/common/base/Preconditions.checkArgument(ZLjava/lang/Object;)V:com/google/common/base/Preconditions.checkState(Z)V:com/google/common/base/Preconditions.checkState(Z)V:com/google/javascript/rhino/Node.getIntProp(I)I:com/google/javascript/rhino/Node.lookupProperty(I)Lcom/google/javascript/rhino/Node$PropListItem;'
p7
I3
sS'com/google/common/base/Preconditions.checkArgument(ZLjava/lang/Object;)V:com/google/common/base/Preconditions.checkArgument(ZLjava/lang/Object;)V:com/google/common/base/Preconditions.checkArgument(ZLjava/lang/Object;)V:com/google/common/base/Preconditions.checkArgument(ZLjava/lang/Object;)V:com/google/javascript/rhino/Node.checkTreeEqualsImpl(Lcom/google/javascript/rhino/Node;)Lcom/google/javascript/rhino/Node$NodeMismatch;:com/google/javascript/rhino/Node.checkTreeEqualsImpl(Lcom/google/javascript/rhino/Node;Z)Lcom/google/javascript/rhino/Node$NodeMismatch;:com/google/javascript/rhino/Node.isEquivalentTo(Lcom/google/javascript/rhino/Node;ZZZ)Z:com/google/javascript/rhino/Node.getChildCount()I'
p8
I2
sS'com/google/common/base/Preconditions.checkArgument(ZLjava/lang/Object;)V:com/google/common/base/Preconditions.checkArgument(ZLjava/lang/Object;)V:com/google/common/base/Preconditions.checkArgument(ZLjava/lang/Object;)V:com/google/common/base/Preconditions.checkArgument(ZLjava/lang/Object;)V:com/google/common/base/Preconditions.checkState(Z)V:com/google/common/base/Preconditions.checkState(Z)V:com/google/common/base/Preconditions.checkState(ZLjava/lang/Object;)V:com/google/common/base/Preconditions.checkState(ZLjava/lang/Object;)V:com/google/common/base/Preconditions.checkState(ZLjava/lang/Object;)V:com/google/common/base/Preconditions.checkArgument(ZLjava/lang/Object;)V:com/google/common/base/Preconditions.checkArgument(ZLjava/lang/Object;)V:com/google/common/base/Preconditions.checkArgument(ZLjava/lang/Object;)V:com/google/javascript/rhino/Node$StringNode.<init>(ILjava/lang/String;)V:com/google/javascript/rhino/Node.<init>(I)V:java/lang/Object.<init>()V'
p9
I2
sS'com/google/common/base/Preconditions.checkArgument(ZLjava/lang/Object;)V:com/google/common/base/Preconditions.checkArgument(ZLjava/lang/Object;)V:com/google/common/base/Preconditions.checkArgument(ZLjava/lang/Object;)V:com/google/common/base/Preconditions.checkArgument(ZLjava/lang/Object;)V:com/google/common/base/Preconditions.checkState(Z)V:com/google/common/base/Preconditions.checkState(Z)V:com/google/common/base/Preconditions.checkState(ZLjava/lang/Object;)V:com/google/common/base/Preconditions.checkState(ZLjava/lang/Object;)V:com/google/javascript/rhino/Node.createProp(IILcom/google/javascript/rhino/Node$PropListItem;)Lcom/google/javascript/rhino/Node$PropListItem;'
p10
I2
sS'com/google/common/base/Preconditions.checkArgument(ZLjava/lang/Object;)V:com/google/common/base/Preconditions.checkArgument(ZLjava/lang/Object;)V:com/google/common/base/Preconditions.checkArgument(ZLjava/lang/Object;)V:com/google/common/base/Preconditions.checkArgument(ZLjava/lang/Object;)V:com/google/javascript/rhino/Node.checkTreeEqualsImpl(Lcom/google/javascript/rhino/Node;)Lcom/google/javascript/rhino/Node$NodeMismatch;:com/google/javascript/rhino/Node.checkTreeEqualsImpl(Lcom/google/javascript/rhino/Node;Z)Lcom/google/javascript/rhino/Node$NodeMismatch;'
p11
I2
sS'com/google/common/base/Preconditions.checkArgument(ZLjava/lang/Object;)V:com/google/common/base/Preconditions.checkArgument(ZLjava/lang/Object;)V:com/google/common/base/Preconditions.checkArgument(ZLjava/lang/Object;)V:com/google/common/base/Preconditions.checkArgument(ZLjava/lang/Object;)V:com/google/javascript/rhino/Node.checkTreeEqualsImpl(Lcom/google/javascript/rhino/Node;)Lcom/google/javascript/rhino/Node$NodeMismatch;:com/google/javascript/rhino/Node.checkTreeEqualsImpl(Lcom/google/javascript/rhino/Node;Z)Lcom/google/javascript/rhino/Node$NodeMismatch;:com/google/javascript/rhino/Node.isEquivalentTo(Lcom/google/javascript/rhino/Node;ZZZ)Z:com/google/javascript/rhino/Node.getType()I'
p12
I2
sS'com/google/common/base/Preconditions.checkArgument(ZLjava/lang/Object;)V:com/google/common/base/Preconditions.checkArgument(ZLjava/lang/Object;)V:com/google/common/base/Preconditions.checkArgument(ZLjava/lang/Object;)V:com/google/common/base/Preconditions.checkArgument(ZLjava/lang/Object;)V:com/google/javascript/rhino/Node.newString(Ljava/lang/String;)Lcom/google/javascript/rhino/Node;:com/google/javascript/rhino/Node$StringNode.<init>(ILjava/lang/String;)V:com/google/javascript/rhino/Node.<init>(I)V'
p13
I1
sS'com/google/common/base/Preconditions.checkArgument(ZLjava/lang/Object;)V:com/google/common/base/Preconditions.checkArgument(ZLjava/lang/Object;)V:com/google/common/base/Preconditions.checkArgument(ZLjava/lang/Object;)V:com/google/common/base/Preconditions.checkArgument(ZLjava/lang/Object;)V:com/google/javascript/rhino/Node.setJSDocInfo(Lcom/google/javascript/rhino/JSDocInfo;)Lcom/google/javascript/rhino/Node;:com/google/javascript/rhino/Node.putProp(ILjava/lang/Object;)V'
p14
I2
sS'com/google/common/base/Preconditions.checkArgument(ZLjava/lang/Object;)V:com/google/common/base/Preconditions.checkArgument(ZLjava/lang/Object;)V:com/google/common/base/Preconditions.checkArgument(ZLjava/lang/Object;)V:com/google/common/base/Preconditions.checkArgument(ZLjava/lang/Object;)V:com/google/javascript/rhino/Node.checkTreeEqualsImpl(Lcom/google/javascript/rhino/Node;Z)Lcom/google/javascript/rhino/Node$NodeMismatch;:com/google/javascript/rhino/Node$NodeMismatch.<init>(Lcom/google/javascript/rhino/Node;Lcom/google/javascript/rhino/Node;)V'
p15
I1
sS'com/google/common/base/Preconditions.checkArgument(ZLjava/lang/Object;)V:com/google/common/base/Preconditions.checkArgument(ZLjava/lang/Object;)V:com/google/common/base/Preconditions.checkArgument(ZLjava/lang/Object;)V:com/google/common/base/Preconditions.checkArgument(ZLjava/lang/Object;)V:com/google/common/base/Preconditions.checkState(Z)V:com/google/common/base/Preconditions.checkState(Z)V:com/google/common/base/Preconditions.checkState(ZLjava/lang/Object;)V:com/google/common/base/Preconditions.checkState(ZLjava/lang/Object;)V:com/google/javascript/rhino/Node$StringNode.<init>(ILjava/lang/String;)V'
p16
I1
sS'com/google/common/base/Preconditions.checkArgument(ZLjava/lang/Object;)V:com/google/common/base/Preconditions.checkArgument(ZLjava/lang/Object;)V:com/google/common/base/Preconditions.checkArgument(ZLjava/lang/Object;)V:com/google/common/base/Preconditions.checkArgument(ZLjava/lang/Object;)V:com/google/common/base/Preconditions.checkState(Z)V:com/google/common/base/Preconditions.checkState(Z)V:com/google/common/base/Preconditions.checkState(ZLjava/lang/Object;)V:com/google/common/base/Preconditions.checkState(ZLjava/lang/Object;)V:com/google/javascript/rhino/Node.createProp(IILcom/google/javascript/rhino/Node$PropListItem;)Lcom/google/javascript/rhino/Node$PropListItem;:com/google/javascript/rhino/Node$IntPropListItem.<init>(IILcom/google/javascript/rhino/Node$PropListItem;)V:com/google/javascript/rhino/Node$AbstractPropListItem.<init>(ILcom/google/javascript/rhino/Node$PropListItem;)V'
p17
I2
sS'com/google/common/base/Preconditions.checkArgument(ZLjava/lang/Object;)V:com/google/common/base/Preconditions.checkArgument(ZLjava/lang/Object;)V:com/google/common/base/Preconditions.checkArgument(ZLjava/lang/Object;)V:com/google/common/base/Preconditions.checkArgument(ZLjava/lang/Object;)V:com/google/common/base/Preconditions.checkState(Z)V:com/google/common/base/Preconditions.checkState(Z)V:com/google/common/base/Preconditions.checkState(ZLjava/lang/Object;)V:com/google/common/base/Preconditions.checkState(ZLjava/lang/Object;)V:com/google/common/base/Preconditions.checkState(ZLjava/lang/Object;)V:com/google/common/base/Preconditions.checkArgument(ZLjava/lang/Object;)V:com/google/common/base/Preconditions.checkArgument(ZLjava/lang/Object;)V:com/google/javascript/rhino/Node$StringNode.<init>(ILjava/lang/String;)V:com/google/javascript/rhino/Node.<init>(I)V'
p18
I2
sS'com/google/common/base/Preconditions.checkArgument(ZLjava/lang/Object;)V:com/google/common/base/Preconditions.checkArgument(ZLjava/lang/Object;)V:com/google/common/base/Preconditions.checkArgument(ZLjava/lang/Object;)V:com/google/common/base/Preconditions.checkArgument(ZLjava/lang/Object;)V:com/google/javascript/rhino/JSDocInfo.<init>(Z)V'
p19
I1
sS'com/google/common/base/Preconditions.checkArgument(ZLjava/lang/Object;)V:com/google/common/base/Preconditions.checkArgument(ZLjava/lang/Object;)V:com/google/common/base/Preconditions.checkArgument(ZLjava/lang/Object;)V:com/google/common/base/Preconditions.checkArgument(ZLjava/lang/Object;)V:com/google/javascript/rhino/Node.isEquivalentTo(Lcom/google/javascript/rhino/Node;ZZZ)Z:com/google/javascript/rhino/Node.isEquivalentTo(Lcom/google/javascript/rhino/Node;ZZZ)Z:com/google/javascript/rhino/jstype/JSType.isEquivalent(Lcom/google/javascript/rhino/jstype/JSType;Lcom/google/javascript/rhino/jstype/JSType;)Z:com/google/javascript/rhino/jstype/JSType$1.<init>()V'
p20
I1
sS'com/google/common/base/Preconditions.checkArgument(ZLjava/lang/Object;)V:com/google/common/base/Preconditions.checkArgument(ZLjava/lang/Object;)V:com/google/common/base/Preconditions.checkArgument(ZLjava/lang/Object;)V:com/google/common/base/Preconditions.checkArgument(ZLjava/lang/Object;)V:com/google/javascript/rhino/Node.newString(Ljava/lang/String;)Lcom/google/javascript/rhino/Node;:com/google/javascript/rhino/Node$StringNode.<init>(ILjava/lang/String;)V:com/google/javascript/rhino/Node.<init>(I)V:java/lang/Object.<init>()V'
p21
I1
sS'com/google/common/base/Preconditions.checkArgument(ZLjava/lang/Object;)V:com/google/common/base/Preconditions.checkArgument(ZLjava/lang/Object;)V:com/google/common/base/Preconditions.checkArgument(ZLjava/lang/Object;)V:com/google/common/base/Preconditions.checkArgument(ZLjava/lang/Object;)V:com/google/common/base/Preconditions.checkState(Z)V:com/google/common/base/Preconditions.checkState(Z)V:com/google/common/base/Preconditions.checkState(ZLjava/lang/Object;)V:com/google/common/base/Preconditions.checkState(ZLjava/lang/Object;)V:com/google/common/base/Preconditions.checkState(ZLjava/lang/Object;)V:com/google/common/base/Preconditions.checkArgument(ZLjava/lang/Object;)V:com/google/common/base/Preconditions.checkArgument(ZLjava/lang/Object;)V:com/google/common/base/Preconditions.checkArgument(ZLjava/lang/Object;)V:com/google/common/base/Preconditions.checkArgument(ZLjava/lang/Object;)V:com/google/javascript/rhino/Node.newString(ILjava/lang/String;)Lcom/google/javascript/rhino/Node;:com/google/javascript/rhino/Node$StringNode.<init>(ILjava/lang/String;)V:com/google/javascript/rhino/Node.<init>(I)V:java/lang/Object.<init>()V'
p22
I3
sS'com/google/common/base/Preconditions.checkArgument(ZLjava/lang/Object;)V:com/google/common/base/Preconditions.checkArgument(ZLjava/lang/Object;)V:com/google/common/base/Preconditions.checkArgument(ZLjava/lang/Object;)V:com/google/common/base/Preconditions.checkArgument(ZLjava/lang/Object;)V:com/google/javascript/rhino/Node.getBooleanProp(I)Z:com/google/javascript/rhino/Node.getIntProp(I)I:com/google/javascript/rhino/Node.lookupProperty(I)Lcom/google/javascript/rhino/Node$PropListItem;:com/google/javascript/rhino/Node$PropListItem.getType()I'
p23
I1
sS'com/google/common/base/Preconditions.checkArgument(ZLjava/lang/Object;)V:com/google/common/base/Preconditions.checkArgument(ZLjava/lang/Object;)V:com/google/common/base/Preconditions.checkArgument(ZLjava/lang/Object;)V:com/google/common/base/Preconditions.checkArgument(ZLjava/lang/Object;)V:com/google/common/base/Preconditions.checkState(Z)V:com/google/common/base/Preconditions.checkState(Z)V:com/google/javascript/rhino/Node.putIntProp(II)V:com/google/javascript/rhino/Node.removeProp(I)V'
p24
I1
sS'com/google/common/base/Preconditions.checkArgument(ZLjava/lang/Object;)V:com/google/common/base/Preconditions.checkArgument(ZLjava/lang/Object;)V:com/google/common/base/Preconditions.checkArgument(ZLjava/lang/Object;)V:com/google/common/base/Preconditions.checkArgument(ZLjava/lang/Object;)V:com/google/javascript/rhino/Node.isEquivalentTo(Lcom/google/javascript/rhino/Node;ZZZ)Z:com/google/javascript/rhino/Node.isEquivalentTo(Lcom/google/javascript/rhino/Node;ZZZ)Z:com/google/javascript/rhino/Node.getJSType()Lcom/google/javascript/rhino/jstype/JSType;'
p25
I1
sS'com/google/common/base/Preconditions.checkArgument(ZLjava/lang/Object;)V:com/google/common/base/Preconditions.checkArgument(ZLjava/lang/Object;)V:com/google/common/base/Preconditions.checkArgument(ZLjava/lang/Object;)V:com/google/common/base/Preconditions.checkArgument(ZLjava/lang/Object;)V:com/google/common/base/Preconditions.checkState(Z)V:com/google/common/base/Preconditions.checkState(Z)V:com/google/javascript/rhino/Node.newString(ILjava/lang/String;)Lcom/google/javascript/rhino/Node;:com/google/javascript/rhino/Node$StringNode.<init>(ILjava/lang/String;)V'
p26
I9
sS'com/google/common/base/Preconditions.checkArgument(ZLjava/lang/Object;)V:com/google/common/base/Preconditions.checkArgument(ZLjava/lang/Object;)V:com/google/common/base/Preconditions.checkArgument(ZLjava/lang/Object;)V:com/google/common/base/Preconditions.checkArgument(ZLjava/lang/Object;)V:com/google/common/base/Preconditions.checkState(Z)V:com/google/common/base/Preconditions.checkState(Z)V:com/google/common/base/Preconditions.checkState(ZLjava/lang/Object;)V:com/google/common/base/Preconditions.checkState(ZLjava/lang/Object;)V:com/google/javascript/rhino/Node.removeProp(I)V:com/google/javascript/rhino/Node.removeProp(Lcom/google/javascript/rhino/Node$PropListItem;I)Lcom/google/javascript/rhino/Node$PropListItem;:com/google/javascript/rhino/Node$PropListItem.getType()I'
p27
I1
sS'com/google/common/base/Preconditions.checkArgument(ZLjava/lang/Object;)V:com/google/common/base/Preconditions.checkArgument(ZLjava/lang/Object;)V:com/google/common/base/Preconditions.checkArgument(ZLjava/lang/Object;)V:com/google/common/base/Preconditions.checkArgument(ZLjava/lang/Object;)V:com/google/javascript/rhino/Node.isEquivalentTo(Lcom/google/javascript/rhino/Node;ZZZ)Z:com/google/javascript/rhino/Node.getType()I'
p28
I2
sS'com/google/common/base/Preconditions.checkArgument(ZLjava/lang/Object;)V:com/google/common/base/Preconditions.checkArgument(ZLjava/lang/Object;)V:com/google/common/base/Preconditions.checkArgument(ZLjava/lang/Object;)V:com/google/common/base/Preconditions.checkArgument(ZLjava/lang/Object;)V:com/google/common/base/Preconditions.checkState(Z)V:com/google/common/base/Preconditions.checkState(Z)V:com/google/common/base/Preconditions.checkState(ZLjava/lang/Object;)V:com/google/common/base/Preconditions.checkState(ZLjava/lang/Object;)V:com/google/common/base/Preconditions.checkState(ZLjava/lang/Object;)V:com/google/common/base/Preconditions.checkArgument(ZLjava/lang/Object;)V:com/google/common/base/Preconditions.checkArgument(ZLjava/lang/Object;)V:com/google/javascript/rhino/Node$StringNode.<init>(ILjava/lang/String;)V'
p29
I2
sS'com/google/common/base/Preconditions.checkArgument(ZLjava/lang/Object;)V:com/google/common/base/Preconditions.checkArgument(ZLjava/lang/Object;)V:java/lang/Object.<init>()V'
p30
I2
sS'com/google/common/base/Preconditions.checkArgument(ZLjava/lang/Object;)V:com/google/common/base/Preconditions.checkArgument(ZLjava/lang/Object;)V:com/google/common/base/Preconditions.checkArgument(ZLjava/lang/Object;)V:com/google/common/base/Preconditions.checkArgument(ZLjava/lang/Object;)V:com/google/common/base/Preconditions.checkState(Z)V:com/google/common/base/Preconditions.checkState(Z)V:com/google/javascript/rhino/Node.putIntProp(II)V'
p31
I1
sS'com/google/common/base/Preconditions.checkArgument(ZLjava/lang/Object;)V:com/google/common/base/Preconditions.checkArgument(ZLjava/lang/Object;)V:com/google/common/base/Preconditions.checkArgument(ZLjava/lang/Object;)V:com/google/common/base/Preconditions.checkArgument(ZLjava/lang/Object;)V:com/google/javascript/rhino/Node.putIntProp(II)V:com/google/javascript/rhino/Node.removeProp(I)V:com/google/javascript/rhino/Node.removeProp(Lcom/google/javascript/rhino/Node$PropListItem;I)Lcom/google/javascript/rhino/Node$PropListItem;'
p32
I1
sS'com/google/common/base/Preconditions.checkArgument(ZLjava/lang/Object;)V:com/google/common/base/Preconditions.checkArgument(ZLjava/lang/Object;)V:com/google/common/base/Preconditions.checkArgument(ZLjava/lang/Object;)V:com/google/common/base/Preconditions.checkArgument(ZLjava/lang/Object;)V:com/google/common/base/Preconditions.checkState(Z)V:com/google/common/base/Preconditions.checkState(Z)V:com/google/common/base/Preconditions.checkState(ZLjava/lang/Object;)V:com/google/common/base/Preconditions.checkState(ZLjava/lang/Object;)V:com/google/common/base/Preconditions.checkState(ZLjava/lang/Object;)V:com/google/common/base/Preconditions.checkArgument(ZLjava/lang/Object;)V:com/google/javascript/rhino/Node$StringNode.<init>(ILjava/lang/String;)V:com/google/javascript/rhino/Node.<init>(I)V:java/lang/Object.<init>()V'
p33
I2
sS'com/google/common/base/Preconditions.checkArgument(ZLjava/lang/Object;)V:com/google/common/base/Preconditions.checkArgument(ZLjava/lang/Object;)V:com/google/common/base/Preconditions.checkArgument(ZLjava/lang/Object;)V:com/google/common/base/Preconditions.checkArgument(ZLjava/lang/Object;)V:com/google/javascript/rhino/Node.checkTreeEqualsImpl(Lcom/google/javascript/rhino/Node;)Lcom/google/javascript/rhino/Node$NodeMismatch;:com/google/javascript/rhino/Node.checkTreeEqualsImpl(Lcom/google/javascript/rhino/Node;Z)Lcom/google/javascript/rhino/Node$NodeMismatch;:com/google/javascript/rhino/Node.isEquivalentTo(Lcom/google/javascript/rhino/Node;ZZZ)Z:com/google/javascript/rhino/Node.getDeclaredTypeExpression()Lcom/google/javascript/rhino/Node$TypeDeclarationNode;'
p34
I2
sS'com/google/common/base/Preconditions.checkArgument(ZLjava/lang/Object;)V:com/google/common/base/Preconditions.checkArgument(ZLjava/lang/Object;)V:com/google/common/base/Preconditions.checkArgument(ZLjava/lang/Object;)V:com/google/common/base/Preconditions.checkArgument(ZLjava/lang/Object;)V:com/google/javascript/rhino/Node.putBooleanProp(IZ)V:com/google/javascript/rhino/Node.putIntProp(II)V:com/google/javascript/rhino/Node.createProp(IILcom/google/javascript/rhino/Node$PropListItem;)Lcom/google/javascript/rhino/Node$PropListItem;'
p35
I1
sS'com/google/common/base/Preconditions.checkArgument(ZLjava/lang/Object;)V:com/google/common/base/Preconditions.checkArgument(ZLjava/lang/Object;)V:com/google/common/base/Preconditions.checkArgument(ZLjava/lang/Object;)V:com/google/common/base/Preconditions.checkArgument(ZLjava/lang/Object;)V:com/google/javascript/rhino/Node.putIntProp(II)V:com/google/javascript/rhino/Node.removeProp(I)V'
p36
I1
sS'com/google/common/base/Preconditions.checkArgument(ZLjava/lang/Object;)V:com/google/common/base/Preconditions.checkArgument(ZLjava/lang/Object;)V:com/google/common/base/Preconditions.checkArgument(ZLjava/lang/Object;)V:com/google/common/base/Preconditions.checkArgument(ZLjava/lang/Object;)V:com/google/javascript/rhino/Node.createProp(IILcom/google/javascript/rhino/Node$PropListItem;)Lcom/google/javascript/rhino/Node$PropListItem;'
p37
I1
sS'com/google/common/base/Preconditions.checkArgument(ZLjava/lang/Object;)V:com/google/common/base/Preconditions.checkArgument(ZLjava/lang/Object;)V:com/google/common/base/Preconditions.checkArgument(ZLjava/lang/Object;)V:com/google/common/base/Preconditions.checkArgument(ZLjava/lang/Object;)V:com/google/javascript/rhino/Node.getProp(I)Ljava/lang/Object;:com/google/javascript/rhino/Node.lookupProperty(I)Lcom/google/javascript/rhino/Node$PropListItem;:com/google/javascript/rhino/Node$PropListItem.getType()I'
p38
I1
sS'com/google/common/base/Preconditions.checkArgument(ZLjava/lang/Object;)V:com/google/common/base/Preconditions.checkArgument(ZLjava/lang/Object;)V:com/google/common/base/Preconditions.checkArgument(ZLjava/lang/Object;)V:com/google/common/base/Preconditions.checkArgument(ZLjava/lang/Object;)V:com/google/javascript/rhino/Node.newString(ILjava/lang/String;)Lcom/google/javascript/rhino/Node;:com/google/javascript/rhino/Node$StringNode.<init>(ILjava/lang/String;)V'
p39
I4
sS'com/google/common/base/Preconditions.checkArgument(ZLjava/lang/Object;)V:com/google/common/base/Preconditions.checkArgument(ZLjava/lang/Object;)V:com/google/common/base/Preconditions.checkArgument(ZLjava/lang/Object;)V:com/google/common/base/Preconditions.checkArgument(ZLjava/lang/Object;)V:com/google/common/base/Preconditions.checkState(Z)V:com/google/common/base/Preconditions.checkState(Z)V:com/google/common/base/Preconditions.checkState(ZLjava/lang/Object;)V:com/google/common/base/Preconditions.checkState(ZLjava/lang/Object;)V:com/google/common/base/Preconditions.checkState(ZLjava/lang/Object;)V:com/google/javascript/rhino/Node.putIntProp(II)V:com/google/javascript/rhino/Node.removeProp(I)V:com/google/javascript/rhino/Node.removeProp(Lcom/google/javascript/rhino/Node$PropListItem;I)Lcom/google/javascript/rhino/Node$PropListItem;:com/google/javascript/rhino/Node$PropListItem.getNext()Lcom/google/javascript/rhino/Node$PropListItem;'
p40
I1
sS'com/google/common/base/Preconditions.checkArgument(ZLjava/lang/Object;)V:com/google/common/base/Preconditions.checkArgument(ZLjava/lang/Object;)V:com/google/common/base/Preconditions.checkArgument(ZLjava/lang/Object;)V:com/google/common/base/Preconditions.checkArgument(ZLjava/lang/Object;)V:com/google/javascript/rhino/Node.checkTreeEqualsImpl(Lcom/google/javascript/rhino/Node;)Lcom/google/javascript/rhino/Node$NodeMismatch;:com/google/javascript/rhino/Node.checkTreeEqualsImpl(Lcom/google/javascript/rhino/Node;Z)Lcom/google/javascript/rhino/Node$NodeMismatch;:com/google/javascript/rhino/Node.isEquivalentTo(Lcom/google/javascript/rhino/Node;ZZZ)Z:com/google/javascript/rhino/Node.getDeclaredTypeExpression()Lcom/google/javascript/rhino/Node$TypeDeclarationNode;:com/google/javascript/rhino/Node.getProp(I)Ljava/lang/Object;'
p41
I2
sS'com/google/common/base/Preconditions.checkArgument(ZLjava/lang/Object;)V:com/google/common/base/Preconditions.checkArgument(ZLjava/lang/Object;)V:com/google/common/base/Preconditions.checkArgument(ZLjava/lang/Object;)V:com/google/common/base/Preconditions.checkArgument(ZLjava/lang/Object;)V:com/google/javascript/rhino/Node.toStringTree()Ljava/lang/String;:com/google/javascript/rhino/Node.toStringTreeImpl()Ljava/lang/String;:com/google/javascript/rhino/Node.appendStringTree(Ljava/lang/Appendable;)V:com/google/javascript/rhino/Node.toStringTreeHelper(Lcom/google/javascript/rhino/Node;ILjava/lang/Appendable;)V:com/google/javascript/rhino/Node.toString()Ljava/lang/String;:com/google/javascript/rhino/Node.toString(ZZZ)Ljava/lang/String;:java/lang/StringBuilder.toString()Ljava/lang/String;'
p42
I4
sS'com/google/common/base/Preconditions.checkArgument(ZLjava/lang/Object;)V:com/google/common/base/Preconditions.checkArgument(ZLjava/lang/Object;)V:com/google/common/base/Preconditions.checkArgument(ZLjava/lang/Object;)V:com/google/common/base/Preconditions.checkArgument(ZLjava/lang/Object;)V:com/google/javascript/rhino/Node.checkTreeEqualsImpl(Lcom/google/javascript/rhino/Node;)Lcom/google/javascript/rhino/Node$NodeMismatch;:com/google/javascript/rhino/Node.checkTreeEqualsImpl(Lcom/google/javascript/rhino/Node;Z)Lcom/google/javascript/rhino/Node$NodeMismatch;:com/google/javascript/rhino/Node$NodeMismatch.<init>(Lcom/google/javascript/rhino/Node;Lcom/google/javascript/rhino/Node;)V'
p43
I1
sS'com/google/common/base/Preconditions.checkArgument(ZLjava/lang/Object;)V:com/google/common/base/Preconditions.checkArgument(ZLjava/lang/Object;)V:com/google/common/base/Preconditions.checkArgument(ZLjava/lang/Object;)V:com/google/common/base/Preconditions.checkArgument(ZLjava/lang/Object;)V:com/google/javascript/rhino/Node.putBooleanProp(IZ)V:com/google/javascript/rhino/Node.putIntProp(II)V:com/google/javascript/rhino/Node.createProp(IILcom/google/javascript/rhino/Node$PropListItem;)Lcom/google/javascript/rhino/Node$PropListItem;:com/google/javascript/rhino/Node$IntPropListItem.<init>(IILcom/google/javascript/rhino/Node$PropListItem;)V:com/google/javascript/rhino/Node$AbstractPropListItem.<init>(ILcom/google/javascript/rhino/Node$PropListItem;)V:java/lang/Object.<init>()V'
p44
I1
sS'com/google/common/base/Preconditions.checkArgument(ZLjava/lang/Object;)V:com/google/common/base/Preconditions.checkArgument(ZLjava/lang/Object;)V:com/google/common/base/Preconditions.checkArgument(ZLjava/lang/Object;)V:com/google/common/base/Preconditions.checkArgument(ZLjava/lang/Object;)V:com/google/common/base/Preconditions.checkState(Z)V:com/google/common/base/Preconditions.checkState(Z)V:java/lang/Object.<init>()V'
p45
I1
sS'com/google/common/base/Preconditions.checkArgument(ZLjava/lang/Object;)V:com/google/common/base/Preconditions.checkArgument(ZLjava/lang/Object;)V:com/google/common/base/Preconditions.checkArgument(ZLjava/lang/Object;)V:com/google/common/base/Preconditions.checkArgument(ZLjava/lang/Object;)V:com/google/common/base/Preconditions.checkState(Z)V:com/google/common/base/Preconditions.checkState(Z)V:com/google/common/base/Preconditions.checkState(ZLjava/lang/Object;)V:com/google/common/base/Preconditions.checkState(ZLjava/lang/Object;)V:com/google/common/base/Preconditions.checkState(ZLjava/lang/Object;)V:com/google/common/base/Preconditions.checkArgument(ZLjava/lang/Object;)V:com/google/common/base/Preconditions.checkArgument(ZLjava/lang/Object;)V:com/google/common/base/Preconditions.checkArgument(ZLjava/lang/Object;)V:com/google/javascript/rhino/Node$StringNode.<init>(ILjava/lang/String;)V'
p46
I2
sS'com/google/common/base/Preconditions.checkArgument(ZLjava/lang/Object;)V:com/google/common/base/Preconditions.checkArgument(ZLjava/lang/Object;)V:com/google/common/base/Preconditions.checkArgument(ZLjava/lang/Object;)V:com/google/common/base/Preconditions.checkArgument(ZLjava/lang/Object;)V:com/google/javascript/rhino/Node.getBooleanProp(I)Z:com/google/javascript/rhino/Node.getIntProp(I)I'
p47
I3
sS'com/google/common/base/Preconditions.checkArgument(ZLjava/lang/Object;)V:com/google/common/base/Preconditions.checkArgument(ZLjava/lang/Object;)V:com/google/common/base/Preconditions.checkArgument(ZLjava/lang/Object;)V:com/google/common/base/Preconditions.checkArgument(ZLjava/lang/Object;)V:com/google/common/base/Preconditions.checkState(Z)V:com/google/common/base/Preconditions.checkState(Z)V:com/google/common/base/Preconditions.checkState(ZLjava/lang/Object;)V:com/google/common/base/Preconditions.checkState(ZLjava/lang/Object;)V:com/google/common/base/Preconditions.checkState(ZLjava/lang/Object;)V:com/google/javascript/rhino/Node.getIntProp(I)I:com/google/javascript/rhino/Node.lookupProperty(I)Lcom/google/javascript/rhino/Node$PropListItem;:com/google/javascript/rhino/Node$PropListItem.getType()I'
p48
I5
sS'com/google/common/base/Preconditions.checkArgument(ZLjava/lang/Object;)V:com/google/common/base/Preconditions.checkArgument(ZLjava/lang/Object;)V:com/google/common/base/Preconditions.checkArgument(ZLjava/lang/Object;)V:com/google/common/base/Preconditions.checkArgument(ZLjava/lang/Object;)V:com/google/common/base/Preconditions.checkState(Z)V:com/google/common/base/Preconditions.checkState(Z)V:com/google/javascript/rhino/Node.createProp(IILcom/google/javascript/rhino/Node$PropListItem;)Lcom/google/javascript/rhino/Node$PropListItem;:com/google/javascript/rhino/Node$IntPropListItem.<init>(IILcom/google/javascript/rhino/Node$PropListItem;)V:com/google/javascript/rhino/Node$AbstractPropListItem.<init>(ILcom/google/javascript/rhino/Node$PropListItem;)V'
p49
I1
sS'com/google/common/base/Preconditions.checkArgument(ZLjava/lang/Object;)V:com/google/common/base/Preconditions.checkArgument(ZLjava/lang/Object;)V:com/google/common/base/Preconditions.checkArgument(ZLjava/lang/Object;)V:com/google/common/base/Preconditions.checkArgument(ZLjava/lang/Object;)V:com/google/common/base/Preconditions.checkState(Z)V:com/google/common/base/Preconditions.checkState(Z)V:com/google/javascript/rhino/Node.newString(ILjava/lang/String;)Lcom/google/javascript/rhino/Node;'
p50
I9
sS'com/google/common/base/Preconditions.checkArgument(ZLjava/lang/Object;)V:com/google/common/base/Preconditions.checkArgument(ZLjava/lang/Object;)V:com/google/common/base/Preconditions.checkArgument(ZLjava/lang/Object;)V:com/google/common/base/Preconditions.checkArgument(ZLjava/lang/Object;)V:com/google/common/base/Preconditions.checkState(Z)V:com/google/common/base/Preconditions.checkState(Z)V:com/google/common/base/Preconditions.checkState(ZLjava/lang/Object;)V:com/google/common/base/Preconditions.checkState(ZLjava/lang/Object;)V:com/google/common/base/Preconditions.checkState(ZLjava/lang/Object;)V:com/google/javascript/rhino/Node.putIntProp(II)V:com/google/javascript/rhino/Node.removeProp(I)V:com/google/javascript/rhino/Node.removeProp(Lcom/google/javascript/rhino/Node$PropListItem;I)Lcom/google/javascript/rhino/Node$PropListItem;'
p51
I4
sS'com/google/common/base/Preconditions.checkArgument(ZLjava/lang/Object;)V:com/google/common/base/Preconditions.checkArgument(ZLjava/lang/Object;)V:com/google/common/base/Preconditions.checkArgument(ZLjava/lang/Object;)V:com/google/common/base/Preconditions.checkArgument(ZLjava/lang/Object;)V:com/google/common/base/Preconditions.checkState(Z)V:com/google/common/base/Preconditions.checkState(Z)V:com/google/common/base/Preconditions.checkState(ZLjava/lang/Object;)V:com/google/common/base/Preconditions.checkState(ZLjava/lang/Object;)V:com/google/javascript/rhino/Node$StringNode.<init>(ILjava/lang/String;)V:com/google/javascript/rhino/Node.<init>(I)V:java/lang/Object.<init>()V'
p52
I1
sS'com/google/common/base/Preconditions.checkArgument(ZLjava/lang/Object;)V:com/google/common/base/Preconditions.checkArgument(ZLjava/lang/Object;)V:com/google/common/base/Preconditions.checkArgument(ZLjava/lang/Object;)V:com/google/common/base/Preconditions.checkArgument(ZLjava/lang/Object;)V:com/google/javascript/rhino/Node.isEquivalentTo(Lcom/google/javascript/rhino/Node;ZZZ)Z:com/google/javascript/rhino/Node.isEquivalentTo(Lcom/google/javascript/rhino/Node;ZZZ)Z:java/lang/Object.getClass()Ljava/lang/Class;'
p53
I4
sS'com/google/common/base/Preconditions.checkArgument(ZLjava/lang/Object;)V:com/google/common/base/Preconditions.checkArgument(ZLjava/lang/Object;)V:com/google/common/base/Preconditions.checkArgument(ZLjava/lang/Object;)V:com/google/common/base/Preconditions.checkArgument(ZLjava/lang/Object;)V:com/google/javascript/rhino/JSDocInfo.setLicense(Ljava/lang/String;)V'
p54
I2
sS'com/google/common/base/Preconditions.checkArgument(ZLjava/lang/Object;)V:com/google/common/base/Preconditions.checkArgument(ZLjava/lang/Object;)V:com/google/common/base/Preconditions.checkArgument(ZLjava/lang/Object;)V:com/google/common/base/Preconditions.checkArgument(ZLjava/lang/Object;)V:com/google/common/base/Preconditions.checkState(Z)V:com/google/common/base/Preconditions.checkState(Z)V:com/google/common/base/Preconditions.checkState(ZLjava/lang/Object;)V:com/google/common/base/Preconditions.checkState(ZLjava/lang/Object;)V:com/google/common/base/Preconditions.checkState(ZLjava/lang/Object;)V:com/google/common/base/Preconditions.checkArgument(ZLjava/lang/Object;)V:com/google/common/base/Preconditions.checkArgument(ZLjava/lang/Object;)V:com/google/javascript/rhino/Node$StringNode.<init>(ILjava/lang/String;)V:com/google/javascript/rhino/Node.<init>(I)V:java/lang/Object.<init>()V'
p55
I2
sS'com/google/common/base/Preconditions.checkArgument(ZLjava/lang/Object;)V:com/google/common/base/Preconditions.checkArgument(ZLjava/lang/Object;)V:com/google/common/base/Preconditions.checkArgument(ZLjava/lang/Object;)V:com/google/common/base/Preconditions.checkArgument(ZLjava/lang/Object;)V:com/google/javascript/rhino/Node.isEquivalentTo(Lcom/google/javascript/rhino/Node;ZZZ)Z:java/lang/String.equals(Ljava/lang/Object;)Z'
p56
I1
sS'com/google/common/base/Preconditions.checkArgument(ZLjava/lang/Object;)V:com/google/common/base/Preconditions.checkArgument(ZLjava/lang/Object;)V:com/google/common/base/Preconditions.checkArgument(ZLjava/lang/Object;)V:com/google/common/base/Preconditions.checkArgument(ZLjava/lang/Object;)V:com/google/javascript/rhino/Node.isEquivalentTo(Lcom/google/javascript/rhino/Node;ZZZ)Z:com/google/javascript/rhino/Node.isEquivalentTo(Lcom/google/javascript/rhino/Node;ZZZ)Z:com/google/javascript/rhino/Node.getIntProp(I)I:com/google/javascript/rhino/Node.lookupProperty(I)Lcom/google/javascript/rhino/Node$PropListItem;'
p57
I2
sS'com/google/common/base/Preconditions.checkArgument(ZLjava/lang/Object;)V:com/google/common/base/Preconditions.checkArgument(ZLjava/lang/Object;)V:com/google/common/base/Preconditions.checkArgument(ZLjava/lang/Object;)V:com/google/common/base/Preconditions.checkArgument(ZLjava/lang/Object;)V:com/google/javascript/rhino/Node.newString(ILjava/lang/String;)Lcom/google/javascript/rhino/Node;:com/google/javascript/rhino/Node$StringNode.<init>(ILjava/lang/String;)V:com/google/javascript/rhino/Node.<init>(I)V:java/lang/Object.<init>()V'
p58
I4
sS'com/google/common/base/Preconditions.checkArgument(ZLjava/lang/Object;)V:com/google/common/base/Preconditions.checkArgument(ZLjava/lang/Object;)V:com/google/common/base/Preconditions.checkArgument(ZLjava/lang/Object;)V:com/google/common/base/Preconditions.checkArgument(ZLjava/lang/Object;)V:com/google/javascript/rhino/Node.toStringTree()Ljava/lang/String;:com/google/javascript/rhino/Node.toStringTreeImpl()Ljava/lang/String;:com/google/javascript/rhino/Node.appendStringTree(Ljava/lang/Appendable;)V:com/google/javascript/rhino/Node.toStringTreeHelper(Lcom/google/javascript/rhino/Node;ILjava/lang/Appendable;)V:com/google/javascript/rhino/Node.getFirstChild()Lcom/google/javascript/rhino/Node;'
p59
I4
sS'com/google/common/base/Preconditions.checkArgument(ZLjava/lang/Object;)V:com/google/common/base/Preconditions.checkArgument(ZLjava/lang/Object;)V:com/google/common/base/Preconditions.checkArgument(ZLjava/lang/Object;)V:com/google/common/base/Preconditions.checkArgument(ZLjava/lang/Object;)V:com/google/javascript/rhino/Node.getJSDocInfo()Lcom/google/javascript/rhino/JSDocInfo;:com/google/javascript/rhino/Node.getProp(I)Ljava/lang/Object;'
p60
I2
sS'com/google/common/base/Preconditions.checkArgument(ZLjava/lang/Object;)V:com/google/common/base/Preconditions.checkArgument(ZLjava/lang/Object;)V:com/google/common/base/Preconditions.checkArgument(ZLjava/lang/Object;)V:com/google/common/base/Preconditions.checkArgument(ZLjava/lang/Object;)V:com/google/javascript/rhino/Node.checkTreeEqualsImpl(Lcom/google/javascript/rhino/Node;Z)Lcom/google/javascript/rhino/Node$NodeMismatch;:com/google/javascript/rhino/Node.isEquivalentTo(Lcom/google/javascript/rhino/Node;ZZZ)Z:com/google/javascript/rhino/Node.getDeclaredTypeExpression()Lcom/google/javascript/rhino/Node$TypeDeclarationNode;:com/google/javascript/rhino/Node.getProp(I)Ljava/lang/Object;:com/google/javascript/rhino/Node.lookupProperty(I)Lcom/google/javascript/rhino/Node$PropListItem;'
p61
I2
sS'com/google/common/base/Preconditions.checkArgument(ZLjava/lang/Object;)V:com/google/common/base/Preconditions.checkArgument(ZLjava/lang/Object;)V:com/google/common/base/Preconditions.checkArgument(ZLjava/lang/Object;)V:com/google/common/base/Preconditions.checkArgument(ZLjava/lang/Object;)V:com/google/common/base/Preconditions.checkState(Z)V:com/google/common/base/Preconditions.checkState(Z)V:com/google/common/base/Preconditions.checkState(ZLjava/lang/Object;)V:com/google/common/base/Preconditions.checkState(ZLjava/lang/Object;)V:com/google/common/base/Preconditions.checkState(ZLjava/lang/Object;)V:com/google/javascript/rhino/Node.putIntProp(II)V:com/google/javascript/rhino/Node.createProp(IILcom/google/javascript/rhino/Node$PropListItem;)Lcom/google/javascript/rhino/Node$PropListItem;:com/google/javascript/rhino/Node$IntPropListItem.<init>(IILcom/google/javascript/rhino/Node$PropListItem;)V:com/google/javascript/rhino/Node$AbstractPropListItem.<init>(ILcom/google/javascript/rhino/Node$PropListItem;)V'
p62
I2
sS'com/google/common/base/Preconditions.checkArgument(ZLjava/lang/Object;)V:com/google/common/base/Preconditions.checkArgument(ZLjava/lang/Object;)V:com/google/common/base/Preconditions.checkArgument(ZLjava/lang/Object;)V:com/google/common/base/Preconditions.checkArgument(ZLjava/lang/Object;)V:com/google/javascript/rhino/Node.toStringTree()Ljava/lang/String;:com/google/javascript/rhino/Node.toStringTreeImpl()Ljava/lang/String;:com/google/javascript/rhino/Node.appendStringTree(Ljava/lang/Appendable;)V:com/google/javascript/rhino/Node.toStringTreeHelper(Lcom/google/javascript/rhino/Node;ILjava/lang/Appendable;)V:com/google/javascript/rhino/Node.toString()Ljava/lang/String;:com/google/javascript/rhino/Node.toString(ZZZ)Ljava/lang/String;:com/google/javascript/rhino/Node.toString(Ljava/lang/StringBuilder;ZZZ)V'
p63
I4
sS'com/google/common/base/Preconditions.checkArgument(ZLjava/lang/Object;)V:com/google/common/base/Preconditions.checkArgument(ZLjava/lang/Object;)V:com/google/common/base/Preconditions.checkArgument(ZLjava/lang/Object;)V:com/google/common/base/Preconditions.checkArgument(ZLjava/lang/Object;)V:com/google/javascript/rhino/Node.toStringTree()Ljava/lang/String;:com/google/javascript/rhino/Node.toStringTreeImpl()Ljava/lang/String;:java/lang/StringBuilder.toString()Ljava/lang/String;'
p64
I4
sS'com/google/common/base/Preconditions.checkArgument(ZLjava/lang/Object;)V:com/google/common/base/Preconditions.checkArgument(ZLjava/lang/Object;)V:com/google/common/base/Preconditions.checkArgument(ZLjava/lang/Object;)V:com/google/common/base/Preconditions.checkArgument(ZLjava/lang/Object;)V:com/google/common/base/Preconditions.checkState(Z)V:com/google/common/base/Preconditions.checkState(Z)V:com/google/common/base/Preconditions.checkState(ZLjava/lang/Object;)V:com/google/common/base/Preconditions.checkState(ZLjava/lang/Object;)V:com/google/common/base/Preconditions.checkState(ZLjava/lang/Object;)V'
p65
I1
sS'com/google/common/base/Preconditions.checkArgument(ZLjava/lang/Object;)V:com/google/common/base/Preconditions.checkArgument(ZLjava/lang/Object;)V:com/google/common/base/Preconditions.checkArgument(ZLjava/lang/Object;)V:com/google/common/base/Preconditions.checkArgument(ZLjava/lang/Object;)V:com/google/javascript/rhino/Node.putBooleanProp(IZ)V:com/google/javascript/rhino/Node.putIntProp(II)V'
p66
I2
sS'com/google/common/base/Preconditions.checkArgument(ZLjava/lang/Object;)V:com/google/common/base/Preconditions.checkArgument(ZLjava/lang/Object;)V:com/google/common/base/Preconditions.checkArgument(ZLjava/lang/Object;)V:com/google/common/base/Preconditions.checkArgument(ZLjava/lang/Object;)V:com/google/javascript/rhino/Node.isEquivalentTo(Lcom/google/javascript/rhino/Node;ZZZ)Z:com/google/javascript/rhino/Node.getDeclaredTypeExpression()Lcom/google/javascript/rhino/Node$TypeDeclarationNode;'
p67
I2
sS'com/google/common/base/Preconditions.checkArgument(ZLjava/lang/Object;)V:com/google/common/base/Preconditions.checkArgument(ZLjava/lang/Object;)V:com/google/common/base/Preconditions.checkArgument(ZLjava/lang/Object;)V:com/google/common/base/Preconditions.checkArgument(ZLjava/lang/Object;)V:com/google/javascript/rhino/Node.getProp(I)Ljava/lang/Object;'
p68
I1
sS'com/google/common/base/Preconditions.checkArgument(ZLjava/lang/Object;)V:com/google/common/base/Preconditions.checkArgument(ZLjava/lang/Object;)V:com/google/common/base/Preconditions.checkArgument(ZLjava/lang/Object;)V:com/google/common/base/Preconditions.checkArgument(ZLjava/lang/Object;)V:com/google/javascript/rhino/Node.checkTreeEqualsImpl(Lcom/google/javascript/rhino/Node;Z)Lcom/google/javascript/rhino/Node$NodeMismatch;:com/google/javascript/rhino/Node.isEquivalentTo(Lcom/google/javascript/rhino/Node;ZZZ)Z:com/google/javascript/rhino/Node.getIntProp(I)I'
p69
I2
sS'com/google/common/base/Preconditions.checkArgument(ZLjava/lang/Object;)V:com/google/common/base/Preconditions.checkArgument(ZLjava/lang/Object;)V:com/google/common/base/Preconditions.checkArgument(ZLjava/lang/Object;)V:com/google/common/base/Preconditions.checkArgument(ZLjava/lang/Object;)V:com/google/javascript/rhino/Node.putBooleanProp(IZ)V:com/google/javascript/rhino/Node.putIntProp(II)V:com/google/javascript/rhino/Node.createProp(IILcom/google/javascript/rhino/Node$PropListItem;)Lcom/google/javascript/rhino/Node$PropListItem;:com/google/javascript/rhino/Node$IntPropListItem.<init>(IILcom/google/javascript/rhino/Node$PropListItem;)V'
p70
I1
sS'com/google/common/base/Preconditions.checkArgument(ZLjava/lang/Object;)V:com/google/common/base/Preconditions.checkArgument(ZLjava/lang/Object;)V:com/google/common/base/Preconditions.checkArgument(ZLjava/lang/Object;)V:com/google/common/base/Preconditions.checkArgument(ZLjava/lang/Object;)V:com/google/javascript/rhino/Node.putBooleanProp(IZ)V:com/google/javascript/rhino/Node.putIntProp(II)V:com/google/javascript/rhino/Node.removeProp(I)V:com/google/javascript/rhino/Node.removeProp(Lcom/google/javascript/rhino/Node$PropListItem;I)Lcom/google/javascript/rhino/Node$PropListItem;'
p71
I2
sS'com/google/common/base/Preconditions.checkArgument(ZLjava/lang/Object;)V:com/google/common/base/Preconditions.checkArgument(ZLjava/lang/Object;)V:com/google/common/base/Preconditions.checkArgument(ZLjava/lang/Object;)V:com/google/common/base/Preconditions.checkArgument(ZLjava/lang/Object;)V:com/google/common/base/Preconditions.checkState(Z)V:com/google/common/base/Preconditions.checkState(Z)V:com/google/common/base/Preconditions.checkState(ZLjava/lang/Object;)V:com/google/common/base/Preconditions.checkState(ZLjava/lang/Object;)V:com/google/common/base/Preconditions.checkState(ZLjava/lang/Object;)V:com/google/javascript/rhino/Node$StringNode.<init>(ILjava/lang/String;)V:com/google/javascript/rhino/Node.<init>(I)V:java/lang/Object.<init>()V'
p72
I4
sS'com/google/common/base/Preconditions.checkArgument(ZLjava/lang/Object;)V:com/google/common/base/Preconditions.checkArgument(ZLjava/lang/Object;)V:com/google/common/base/Preconditions.checkArgument(ZLjava/lang/Object;)V:com/google/common/base/Preconditions.checkArgument(ZLjava/lang/Object;)V:com/google/common/base/Preconditions.checkState(Z)V:com/google/common/base/Preconditions.checkState(Z)V:com/google/common/base/Preconditions.checkState(ZLjava/lang/Object;)V:com/google/common/base/Preconditions.checkState(ZLjava/lang/Object;)V:com/google/common/base/Preconditions.checkState(ZLjava/lang/Object;)V:com/google/javascript/rhino/Node.getIntProp(I)I:com/google/javascript/rhino/Node.lookupProperty(I)Lcom/google/javascript/rhino/Node$PropListItem;'
p73
I7
sS'com/google/common/base/Preconditions.checkArgument(ZLjava/lang/Object;)V:com/google/common/base/Preconditions.checkArgument(ZLjava/lang/Object;)V:com/google/common/base/Preconditions.checkArgument(ZLjava/lang/Object;)V:com/google/common/base/Preconditions.checkArgument(ZLjava/lang/Object;)V:com/google/javascript/rhino/Node.isEquivalentTo(Lcom/google/javascript/rhino/Node;ZZZ)Z:com/google/javascript/rhino/Node.isEquivalentTo(Lcom/google/javascript/rhino/Node;ZZZ)Z:com/google/javascript/rhino/Node.getIntProp(I)I:com/google/javascript/rhino/Node$PropListItem.getIntValue()I'
p74
I1
sS'com/google/common/base/Preconditions.checkArgument(ZLjava/lang/Object;)V:com/google/common/base/Preconditions.checkArgument(ZLjava/lang/Object;)V:com/google/common/base/Preconditions.checkArgument(ZLjava/lang/Object;)V:com/google/common/base/Preconditions.checkArgument(ZLjava/lang/Object;)V:com/google/javascript/rhino/Node.putIntProp(II)V:com/google/javascript/rhino/Node.createProp(IILcom/google/javascript/rhino/Node$PropListItem;)Lcom/google/javascript/rhino/Node$PropListItem;:com/google/javascript/rhino/Node$IntPropListItem.<init>(IILcom/google/javascript/rhino/Node$PropListItem;)V'
p75
I1
sS'com/google/common/base/Preconditions.checkArgument(ZLjava/lang/Object;)V:com/google/common/base/Preconditions.checkArgument(ZLjava/lang/Object;)V:com/google/common/base/Preconditions.checkArgument(ZLjava/lang/Object;)V:com/google/common/base/Preconditions.checkArgument(ZLjava/lang/Object;)V:com/google/javascript/rhino/Node.setJSDocInfo(Lcom/google/javascript/rhino/JSDocInfo;)Lcom/google/javascript/rhino/Node;'
p76
I2
sS'com/google/common/base/Preconditions.checkArgument(ZLjava/lang/Object;)V:com/google/common/base/Preconditions.checkArgument(ZLjava/lang/Object;)V:com/google/common/base/Preconditions.checkArgument(ZLjava/lang/Object;)V:com/google/common/base/Preconditions.checkArgument(ZLjava/lang/Object;)V:com/google/common/base/Preconditions.checkState(Z)V:com/google/common/base/Preconditions.checkState(Z)V:com/google/javascript/rhino/Node.newString(ILjava/lang/String;)Lcom/google/javascript/rhino/Node;:com/google/javascript/rhino/Node$StringNode.<init>(ILjava/lang/String;)V:com/google/javascript/rhino/Node.<init>(I)V'
p77
I9
sS'com/google/common/base/Preconditions.checkArgument(ZLjava/lang/Object;)V:com/google/common/base/Preconditions.checkArgument(ZLjava/lang/Object;)V:com/google/common/base/Preconditions.checkArgument(ZLjava/lang/Object;)V:com/google/common/base/Preconditions.checkArgument(ZLjava/lang/Object;)V:com/google/common/base/Preconditions.checkState(Z)V:com/google/common/base/Preconditions.checkState(Z)V:com/google/common/base/Preconditions.checkState(ZLjava/lang/Object;)V:com/google/common/base/Preconditions.checkState(ZLjava/lang/Object;)V:com/google/common/base/Preconditions.checkState(ZLjava/lang/Object;)V:com/google/javascript/rhino/Node.putIntProp(II)V:com/google/javascript/rhino/Node.createProp(IILcom/google/javascript/rhino/Node$PropListItem;)Lcom/google/javascript/rhino/Node$PropListItem;:com/google/javascript/rhino/Node$IntPropListItem.<init>(IILcom/google/javascript/rhino/Node$PropListItem;)V:com/google/javascript/rhino/Node$AbstractPropListItem.<init>(ILcom/google/javascript/rhino/Node$PropListItem;)V:java/lang/Object.<init>()V'
p78
I2
sS'com/google/common/base/Preconditions.checkArgument(ZLjava/lang/Object;)V:com/google/common/base/Preconditions.checkArgument(ZLjava/lang/Object;)V:com/google/common/base/Preconditions.checkArgument(ZLjava/lang/Object;)V:com/google/common/base/Preconditions.checkArgument(ZLjava/lang/Object;)V:com/google/common/base/Preconditions.checkState(Z)V:com/google/common/base/Preconditions.checkState(Z)V:java/lang/String.length()I'
p79
I7
sS'com/google/common/base/Preconditions.checkArgument(ZLjava/lang/Object;)V:com/google/common/base/Preconditions.checkArgument(ZLjava/lang/Object;)V:com/google/common/base/Preconditions.checkArgument(ZLjava/lang/Object;)V:com/google/common/base/Preconditions.checkArgument(ZLjava/lang/Object;)V:com/google/javascript/rhino/Node.toStringTree()Ljava/lang/String;:com/google/javascript/rhino/Node.toStringTreeImpl()Ljava/lang/String;:com/google/javascript/rhino/Node.appendStringTree(Ljava/lang/Appendable;)V:com/google/javascript/rhino/Node.toStringTreeHelper(Lcom/google/javascript/rhino/Node;ILjava/lang/Appendable;)V'
p80
I4
sS'com/google/common/base/Preconditions.checkArgument(ZLjava/lang/Object;)V:com/google/common/base/Preconditions.checkArgument(ZLjava/lang/Object;)V:com/google/common/base/Preconditions.checkArgument(ZLjava/lang/Object;)V:com/google/common/base/Preconditions.checkArgument(ZLjava/lang/Object;)V:com/google/common/base/Preconditions.checkState(Z)V:com/google/common/base/Preconditions.checkState(Z)V:com/google/common/base/Preconditions.checkState(ZLjava/lang/Object;)V:com/google/common/base/Preconditions.checkState(ZLjava/lang/Object;)V:com/google/common/base/Preconditions.checkState(ZLjava/lang/Object;)V:com/google/javascript/rhino/Node.putIntProp(II)V:com/google/javascript/rhino/Node.removeProp(I)V'
p81
I4
sS'com/google/common/base/Preconditions.checkArgument(ZLjava/lang/Object;)V:com/google/common/base/Preconditions.checkArgument(ZLjava/lang/Object;)V:com/google/common/base/Preconditions.checkArgument(ZLjava/lang/Object;)V:com/google/common/base/Preconditions.checkArgument(ZLjava/lang/Object;)V:com/google/javascript/rhino/Node.isEquivalentTo(Lcom/google/javascript/rhino/Node;ZZZ)Z:com/google/javascript/rhino/Node.isEquivalentTo(Lcom/google/javascript/rhino/Node;ZZZ)Z:com/google/javascript/rhino/Node.getDeclaredTypeExpression()Lcom/google/javascript/rhino/Node$TypeDeclarationNode;:com/google/javascript/rhino/Node.getProp(I)Ljava/lang/Object;'
p82
I4
sS'com/google/common/base/Preconditions.checkArgument(ZLjava/lang/Object;)V:com/google/common/base/Preconditions.checkArgument(ZLjava/lang/Object;)V:com/google/common/base/Preconditions.checkArgument(ZLjava/lang/Object;)V:com/google/common/base/Preconditions.checkArgument(ZLjava/lang/Object;)V:com/google/common/base/Preconditions.checkState(Z)V:com/google/common/base/Preconditions.checkState(Z)V:com/google/common/base/Preconditions.checkState(ZLjava/lang/Object;)V:com/google/common/base/Preconditions.checkState(ZLjava/lang/Object;)V:com/google/common/base/Preconditions.checkState(ZLjava/lang/Object;)V:com/google/common/base/Preconditions.checkArgument(ZLjava/lang/Object;)V:com/google/common/base/Preconditions.checkArgument(ZLjava/lang/Object;)V:com/google/common/base/Preconditions.checkArgument(ZLjava/lang/Object;)V:com/google/common/base/Preconditions.checkArgument(ZLjava/lang/Object;)V:com/google/javascript/rhino/Node.getStaticSourceFile()Lcom/google/javascript/rhino/StaticSourceFile;:com/google/javascript/rhino/Node.getProp(I)Ljava/lang/Object;:com/google/javascript/rhino/Node.lookupProperty(I)Lcom/google/javascript/rhino/Node$PropListItem;'
p83
I2
sS'com/google/common/base/Preconditions.checkArgument(ZLjava/lang/Object;)V:com/google/common/base/Preconditions.checkArgument(ZLjava/lang/Object;)V:com/google/common/base/Preconditions.checkArgument(ZLjava/lang/Object;)V:com/google/common/base/Preconditions.checkArgument(ZLjava/lang/Object;)V:com/google/common/base/Preconditions.checkState(Z)V:com/google/common/base/Preconditions.checkState(Z)V:com/google/javascript/rhino/Node.removeProp(I)V:com/google/javascript/rhino/Node.removeProp(Lcom/google/javascript/rhino/Node$PropListItem;I)Lcom/google/javascript/rhino/Node$PropListItem;'
p84
I1
sS'com/google/common/base/Preconditions.checkArgument(ZLjava/lang/Object;)V:com/google/common/base/Preconditions.checkArgument(ZLjava/lang/Object;)V:com/google/common/base/Preconditions.checkArgument(ZLjava/lang/Object;)V:com/google/common/base/Preconditions.checkArgument(ZLjava/lang/Object;)V:com/google/javascript/rhino/Node.isEquivalentTo(Lcom/google/javascript/rhino/Node;ZZZ)Z:com/google/javascript/rhino/Node.isEquivalentTo(Lcom/google/javascript/rhino/Node;ZZZ)Z:com/google/javascript/rhino/Node.getIntProp(I)I:com/google/javascript/rhino/Node.lookupProperty(I)Lcom/google/javascript/rhino/Node$PropListItem;:com/google/javascript/rhino/Node$PropListItem.getType()I'
p85
I1
sS'com/google/common/base/Preconditions.checkArgument(ZLjava/lang/Object;)V:com/google/common/base/Preconditions.checkArgument(ZLjava/lang/Object;)V:com/google/common/base/Preconditions.checkArgument(ZLjava/lang/Object;)V:com/google/common/base/Preconditions.checkArgument(ZLjava/lang/Object;)V:com/google/javascript/rhino/Node$StringNode.<init>(ILjava/lang/String;)V:com/google/javascript/rhino/Node.<init>(I)V:java/lang/Object.<init>()V'
p86
I4
sS'com/google/common/base/Preconditions.checkArgument(ZLjava/lang/Object;)V:com/google/common/base/Preconditions.checkArgument(ZLjava/lang/Object;)V:com/google/common/base/Preconditions.checkArgument(ZLjava/lang/Object;)V:com/google/common/base/Preconditions.checkArgument(ZLjava/lang/Object;)V:com/google/javascript/rhino/Node.putIntProp(II)V'
p87
I1
sS'com/google/common/base/Preconditions.checkArgument(ZLjava/lang/Object;)V:com/google/common/base/Preconditions.checkArgument(ZLjava/lang/Object;)V:com/google/common/base/Preconditions.checkArgument(ZLjava/lang/Object;)V:com/google/common/base/Preconditions.checkArgument(ZLjava/lang/Object;)V:com/google/common/base/Preconditions.checkState(Z)V:com/google/common/base/Preconditions.checkState(Z)V:com/google/common/base/Preconditions.checkState(ZLjava/lang/Object;)V:com/google/common/base/Preconditions.checkState(ZLjava/lang/Object;)V:com/google/javascript/rhino/Node.createProp(IILcom/google/javascript/rhino/Node$PropListItem;)Lcom/google/javascript/rhino/Node$PropListItem;:com/google/javascript/rhino/Node$IntPropListItem.<init>(IILcom/google/javascript/rhino/Node$PropListItem;)V'
p88
I2
sS'com/google/common/base/Preconditions.checkArgument(ZLjava/lang/Object;)V:com/google/common/base/Preconditions.checkArgument(ZLjava/lang/Object;)V:com/google/common/base/Preconditions.checkArgument(ZLjava/lang/Object;)V:com/google/common/base/Preconditions.checkArgument(ZLjava/lang/Object;)V:com/google/javascript/rhino/Node.setJSDocInfo(Lcom/google/javascript/rhino/JSDocInfo;)Lcom/google/javascript/rhino/Node;:com/google/javascript/rhino/Node.putProp(ILjava/lang/Object;)V:com/google/javascript/rhino/Node.createProp(ILjava/lang/Object;Lcom/google/javascript/rhino/Node$PropListItem;)Lcom/google/javascript/rhino/Node$PropListItem;'
p89
I2
sS'com/google/common/base/Preconditions.checkArgument(ZLjava/lang/Object;)V:com/google/common/base/Preconditions.checkArgument(ZLjava/lang/Object;)V:com/google/common/base/Preconditions.checkArgument(ZLjava/lang/Object;)V:java/lang/Object.<init>()V'
p90
I3
sS'com/google/common/base/Preconditions.checkArgument(ZLjava/lang/Object;)V:com/google/common/base/Preconditions.checkArgument(ZLjava/lang/Object;)V:com/google/common/base/Preconditions.checkArgument(ZLjava/lang/Object;)V:com/google/common/base/Preconditions.checkArgument(ZLjava/lang/Object;)V:com/google/javascript/rhino/Node.getBooleanProp(I)Z:com/google/javascript/rhino/Node.getIntProp(I)I:com/google/javascript/rhino/Node.lookupProperty(I)Lcom/google/javascript/rhino/Node$PropListItem;'
p91
I3
sS'com/google/common/base/Preconditions.checkArgument(ZLjava/lang/Object;)V:com/google/common/base/Preconditions.checkArgument(ZLjava/lang/Object;)V:com/google/common/base/Preconditions.checkArgument(ZLjava/lang/Object;)V:com/google/common/base/Preconditions.checkArgument(ZLjava/lang/Object;)V:com/google/common/base/Preconditions.checkState(Z)V:com/google/common/base/Preconditions.checkState(Z)V:com/google/common/base/Preconditions.checkState(ZLjava/lang/Object;)V:com/google/common/base/Preconditions.checkState(ZLjava/lang/Object;)V:com/google/common/base/Preconditions.checkState(ZLjava/lang/Object;)V:com/google/common/base/Preconditions.checkArgument(ZLjava/lang/Object;)V:com/google/common/base/Preconditions.checkArgument(ZLjava/lang/Object;)V:com/google/common/base/Preconditions.checkArgument(ZLjava/lang/Object;)V:com/google/common/base/Preconditions.checkArgument(ZLjava/lang/Object;)V:com/google/javascript/rhino/Node.putProp(ILjava/lang/Object;)V:com/google/javascript/rhino/Node.removeProp(I)V'
p92
I1
sS'com/google/common/base/Preconditions.checkArgument(ZLjava/lang/Object;)V:com/google/common/base/Preconditions.checkArgument(ZLjava/lang/Object;)V:com/google/common/base/Preconditions.checkArgument(ZLjava/lang/Object;)V:com/google/common/base/Preconditions.checkArgument(ZLjava/lang/Object;)V:com/google/common/base/Preconditions.checkState(Z)V:com/google/common/base/Preconditions.checkState(Z)V:com/google/common/base/Preconditions.checkState(ZLjava/lang/Object;)V:com/google/common/base/Preconditions.checkState(ZLjava/lang/Object;)V:com/google/common/base/Preconditions.checkState(ZLjava/lang/Object;)V:java/lang/Object.<init>()V'
p93
I1
sS'com/google/common/base/Preconditions.checkArgument(ZLjava/lang/Object;)V:com/google/common/base/Preconditions.checkArgument(ZLjava/lang/Object;)V:com/google/common/base/Preconditions.checkArgument(ZLjava/lang/Object;)V:com/google/common/base/Preconditions.checkArgument(ZLjava/lang/Object;)V:com/google/javascript/rhino/Node$FileLevelJsDocBuilder.<init>(Lcom/google/javascript/rhino/Node;)V'
p94
I1
sS'com/google/common/base/Preconditions.checkArgument(ZLjava/lang/Object;)V:com/google/common/base/Preconditions.checkArgument(ZLjava/lang/Object;)V:com/google/common/base/Preconditions.checkArgument(ZLjava/lang/Object;)V:com/google/common/base/Preconditions.checkArgument(ZLjava/lang/Object;)V:com/google/javascript/rhino/Node$FileLevelJsDocBuilder.<init>(Lcom/google/javascript/rhino/Node;)V:java/lang/Object.<init>()V'
p95
I1
sS'com/google/common/base/Preconditions.checkArgument(ZLjava/lang/Object;)V:com/google/common/base/Preconditions.checkArgument(ZLjava/lang/Object;)V:com/google/common/base/Preconditions.checkArgument(ZLjava/lang/Object;)V:com/google/common/base/Preconditions.checkArgument(ZLjava/lang/Object;)V:com/google/common/base/Preconditions.checkState(Z)V:com/google/common/base/Preconditions.checkState(Z)V:com/google/common/base/Preconditions.checkState(ZLjava/lang/Object;)V:com/google/common/base/Preconditions.checkState(ZLjava/lang/Object;)V:com/google/javascript/rhino/Node.removeProp(I)V:com/google/javascript/rhino/Node.removeProp(Lcom/google/javascript/rhino/Node$PropListItem;I)Lcom/google/javascript/rhino/Node$PropListItem;:com/google/javascript/rhino/Node$PropListItem.getNext()Lcom/google/javascript/rhino/Node$PropListItem;'
p96
I2
sS'com/google/common/base/Preconditions.checkArgument(ZLjava/lang/Object;)V:com/google/common/base/Preconditions.checkArgument(ZLjava/lang/Object;)V:com/google/common/base/Preconditions.checkArgument(ZLjava/lang/Object;)V:com/google/common/base/Preconditions.checkArgument(ZLjava/lang/Object;)V:com/google/javascript/rhino/Node.getBooleanProp(I)Z:com/google/javascript/rhino/Node.getIntProp(I)I:com/google/javascript/rhino/Node$PropListItem.getIntValue()I'
p97
I1
sS'com/google/common/base/Preconditions.checkArgument(ZLjava/lang/Object;)V:com/google/common/base/Preconditions.checkArgument(ZLjava/lang/Object;)V:com/google/common/base/Preconditions.checkArgument(ZLjava/lang/Object;)V:com/google/common/base/Preconditions.checkArgument(ZLjava/lang/Object;)V:com/google/javascript/rhino/Node.getJSDocInfo()Lcom/google/javascript/rhino/JSDocInfo;:com/google/javascript/rhino/Node.getProp(I)Ljava/lang/Object;:com/google/javascript/rhino/Node.lookupProperty(I)Lcom/google/javascript/rhino/Node$PropListItem;'
p98
I2
sS'com/google/common/base/Preconditions.checkArgument(ZLjava/lang/Object;)V:com/google/common/base/Preconditions.checkArgument(ZLjava/lang/Object;)V:com/google/common/base/Preconditions.checkArgument(ZLjava/lang/Object;)V:com/google/common/base/Preconditions.checkArgument(ZLjava/lang/Object;)V:com/google/common/base/Preconditions.checkState(Z)V:com/google/javascript/rhino/Node.newString(Ljava/lang/String;)Lcom/google/javascript/rhino/Node;:com/google/javascript/rhino/Node$StringNode.<init>(ILjava/lang/String;)V'
p99
I1
sS'com/google/common/base/Preconditions.checkArgument(ZLjava/lang/Object;)V:com/google/common/base/Preconditions.checkArgument(ZLjava/lang/Object;)V:com/google/common/base/Preconditions.checkArgument(ZLjava/lang/Object;)V:com/google/common/base/Preconditions.checkArgument(ZLjava/lang/Object;)V:com/google/javascript/rhino/Node.checkTreeEqualsImpl(Lcom/google/javascript/rhino/Node;Z)Lcom/google/javascript/rhino/Node$NodeMismatch;:com/google/javascript/rhino/Node$NodeMismatch.<init>(Lcom/google/javascript/rhino/Node;Lcom/google/javascript/rhino/Node;)V:java/lang/Object.<init>()V'
p100
I1
sS'com/google/common/base/Preconditions.checkArgument(ZLjava/lang/Object;)V:com/google/common/base/Preconditions.checkArgument(ZLjava/lang/Object;)V:com/google/common/base/Preconditions.checkArgument(ZLjava/lang/Object;)V:com/google/common/base/Preconditions.checkArgument(ZLjava/lang/Object;)V:java/lang/StringBuilder.append(Ljava/lang/String;)Ljava/lang/StringBuilder;'
p101
I12
sS'com/google/common/base/Preconditions.checkArgument(ZLjava/lang/Object;)V:com/google/common/base/Preconditions.checkArgument(ZLjava/lang/Object;)V:com/google/common/base/Preconditions.checkArgument(ZLjava/lang/Object;)V:com/google/common/base/Preconditions.checkArgument(ZLjava/lang/Object;)V:com/google/javascript/rhino/Node.getBooleanProp(I)Z'
p102
I3
sS'com/google/common/base/Preconditions.checkArgument(ZLjava/lang/Object;)V:com/google/common/base/Preconditions.checkArgument(ZLjava/lang/Object;)V:com/google/common/base/Preconditions.checkArgument(ZLjava/lang/Object;)V:com/google/common/base/Preconditions.checkArgument(ZLjava/lang/Object;)V:com/google/javascript/rhino/Node.setJSDocInfo(Lcom/google/javascript/rhino/JSDocInfo;)Lcom/google/javascript/rhino/Node;:com/google/javascript/rhino/Node.putProp(ILjava/lang/Object;)V:com/google/javascript/rhino/Node.removeProp(I)V:com/google/javascript/rhino/Node.removeProp(Lcom/google/javascript/rhino/Node$PropListItem;I)Lcom/google/javascript/rhino/Node$PropListItem;:com/google/javascript/rhino/Node$PropListItem.getType()I'
p103
I1
sS'com/google/common/base/Preconditions.checkArgument(ZLjava/lang/Object;)V:com/google/common/base/Preconditions.checkArgument(ZLjava/lang/Object;)V:com/google/common/base/Preconditions.checkArgument(ZLjava/lang/Object;)V:com/google/common/base/Preconditions.checkArgument(ZLjava/lang/Object;)V:com/google/javascript/rhino/Node.putIntProp(II)V:com/google/javascript/rhino/Node.createProp(IILcom/google/javascript/rhino/Node$PropListItem;)Lcom/google/javascript/rhino/Node$PropListItem;:com/google/javascript/rhino/Node$IntPropListItem.<init>(IILcom/google/javascript/rhino/Node$PropListItem;)V:com/google/javascript/rhino/Node$AbstractPropListItem.<init>(ILcom/google/javascript/rhino/Node$PropListItem;)V'
p104
I1
sS'com/google/common/base/Preconditions.checkArgument(ZLjava/lang/Object;)V:com/google/common/base/Preconditions.checkArgument(ZLjava/lang/Object;)V:com/google/common/base/Preconditions.checkArgument(ZLjava/lang/Object;)V:com/google/common/base/Preconditions.checkArgument(ZLjava/lang/Object;)V:com/google/javascript/rhino/Node.newString(Ljava/lang/String;)Lcom/google/javascript/rhino/Node;'
p105
I1
sS'com/google/common/base/Preconditions.checkArgument(ZLjava/lang/Object;)V:com/google/common/base/Preconditions.checkArgument(ZLjava/lang/Object;)V:com/google/common/base/Preconditions.checkArgument(ZLjava/lang/Object;)V:com/google/common/base/Preconditions.checkArgument(ZLjava/lang/Object;)V:com/google/common/base/Preconditions.checkState(Z)V:com/google/common/base/Preconditions.checkState(Z)V:com/google/common/base/Preconditions.checkState(ZLjava/lang/Object;)V:com/google/common/base/Preconditions.checkState(ZLjava/lang/Object;)V:com/google/common/base/Preconditions.checkState(ZLjava/lang/Object;)V:com/google/common/base/Preconditions.checkArgument(ZLjava/lang/Object;)V:com/google/common/base/Preconditions.checkArgument(ZLjava/lang/Object;)V:com/google/common/base/Preconditions.checkArgument(ZLjava/lang/Object;)V:com/google/common/base/Preconditions.checkArgument(ZLjava/lang/Object;)V'
p106
I1
sS'com/google/common/base/Preconditions.checkArgument(ZLjava/lang/Object;)V:com/google/common/base/Preconditions.checkArgument(ZLjava/lang/Object;)V:com/google/common/base/Preconditions.checkArgument(ZLjava/lang/Object;)V:com/google/common/base/Preconditions.checkArgument(ZLjava/lang/Object;)V:com/google/common/base/Preconditions.checkState(Z)V:com/google/common/base/Preconditions.checkState(Z)V:com/google/common/base/Preconditions.checkState(ZLjava/lang/Object;)V:com/google/common/base/Preconditions.checkState(ZLjava/lang/Object;)V:com/google/common/base/Preconditions.checkState(ZLjava/lang/Object;)V:com/google/javascript/rhino/Node.getIntProp(I)I:com/google/javascript/rhino/Node$PropListItem.getIntValue()I'
p107
I5
sS'com/google/common/base/Preconditions.checkArgument(ZLjava/lang/Object;)V:com/google/common/base/Preconditions.checkArgument(ZLjava/lang/Object;)V:com/google/common/base/Preconditions.checkArgument(ZLjava/lang/Object;)V:com/google/common/base/Preconditions.checkArgument(ZLjava/lang/Object;)V:com/google/javascript/rhino/Node.isEquivalentTo(Lcom/google/javascript/rhino/Node;ZZZ)Z:java/lang/Object.getClass()Ljava/lang/Class;'
p108
I2
sS'com/google/common/base/Preconditions.checkArgument(ZLjava/lang/Object;)V:com/google/common/base/Preconditions.checkArgument(ZLjava/lang/Object;)V:com/google/common/base/Preconditions.checkArgument(ZLjava/lang/Object;)V:com/google/common/base/Preconditions.checkArgument(ZLjava/lang/Object;)V:com/google/javascript/rhino/Node.toStringTree()Ljava/lang/String;:com/google/javascript/rhino/Node.toStringTreeImpl()Ljava/lang/String;'
p109
I4
sS'com/google/common/base/Preconditions.checkArgument(ZLjava/lang/Object;)V:com/google/common/base/Preconditions.checkArgument(ZLjava/lang/Object;)V:com/google/common/base/Preconditions.checkArgument(ZLjava/lang/Object;)V:com/google/common/base/Preconditions.checkArgument(ZLjava/lang/Object;)V:com/google/javascript/rhino/Node.toStringTree()Ljava/lang/String;:com/google/javascript/rhino/Node.toStringTreeImpl()Ljava/lang/String;:com/google/javascript/rhino/Node.appendStringTree(Ljava/lang/Appendable;)V'
p110
I4
sS'com/google/common/base/Preconditions.checkArgument(ZLjava/lang/Object;)V:com/google/common/base/Preconditions.checkArgument(ZLjava/lang/Object;)V:com/google/common/base/Preconditions.checkArgument(ZLjava/lang/Object;)V:com/google/common/base/Preconditions.checkArgument(ZLjava/lang/Object;)V:com/google/javascript/rhino/Node.isEquivalentTo(Lcom/google/javascript/rhino/Node;ZZZ)Z:com/google/javascript/rhino/Node.isEquivalentTo(Lcom/google/javascript/rhino/Node;ZZZ)Z:com/google/javascript/rhino/jstype/JSType.isEquivalent(Lcom/google/javascript/rhino/jstype/JSType;Lcom/google/javascript/rhino/jstype/JSType;)Z:com/google/javascript/rhino/jstype/CanCastToVisitor.<init>()V'
p111
I1
sS'com/google/common/base/Preconditions.checkArgument(ZLjava/lang/Object;)V:com/google/common/base/Preconditions.checkArgument(ZLjava/lang/Object;)V:com/google/common/base/Preconditions.checkArgument(ZLjava/lang/Object;)V:com/google/common/base/Preconditions.checkArgument(ZLjava/lang/Object;)V:com/google/common/base/Preconditions.checkState(Z)V:com/google/javascript/rhino/IR.mayBeExpression(Lcom/google/javascript/rhino/Node;)Z'
p112
I1
sS'com/google/common/base/Preconditions.checkArgument(ZLjava/lang/Object;)V:com/google/common/base/Preconditions.checkArgument(ZLjava/lang/Object;)V:com/google/common/base/Preconditions.checkArgument(ZLjava/lang/Object;)V:com/google/common/base/Preconditions.checkArgument(ZLjava/lang/Object;)V:com/google/common/base/Preconditions.checkState(Z)V:com/google/javascript/rhino/Node.<init>(I)V'
p113
I1
sS'com/google/common/base/Preconditions.checkArgument(ZLjava/lang/Object;)V:com/google/common/base/Preconditions.checkArgument(ZLjava/lang/Object;)V:com/google/common/base/Preconditions.checkArgument(ZLjava/lang/Object;)V:com/google/common/base/Preconditions.checkArgument(ZLjava/lang/Object;)V:com/google/common/base/Preconditions.checkState(Z)V:com/google/common/base/Preconditions.checkState(Z)V:com/google/common/base/Preconditions.checkState(ZLjava/lang/Object;)V:com/google/javascript/rhino/Node.createProp(IILcom/google/javascript/rhino/Node$PropListItem;)Lcom/google/javascript/rhino/Node$PropListItem;'
p114
I1
sS'com/google/common/base/Preconditions.checkArgument(ZLjava/lang/Object;)V:com/google/common/base/Preconditions.checkArgument(ZLjava/lang/Object;)V:com/google/common/base/Preconditions.checkArgument(ZLjava/lang/Object;)V:com/google/common/base/Preconditions.checkArgument(ZLjava/lang/Object;)V:com/google/common/base/Preconditions.checkState(Z)V:com/google/common/base/Preconditions.checkState(Z)V:com/google/common/base/Preconditions.checkState(ZLjava/lang/Object;)V:com/google/common/base/Preconditions.checkState(ZLjava/lang/Object;)V:com/google/common/base/Preconditions.checkState(ZLjava/lang/Object;)V:com/google/common/base/Preconditions.checkArgument(ZLjava/lang/Object;)V:java/lang/Object.<init>()V'
p115
I1
sS'com/google/common/base/Preconditions.checkArgument(ZLjava/lang/Object;)V:com/google/common/base/Preconditions.checkArgument(ZLjava/lang/Object;)V:com/google/common/base/Preconditions.checkArgument(ZLjava/lang/Object;)V:com/google/common/base/Preconditions.checkArgument(ZLjava/lang/Object;)V:com/google/common/base/Preconditions.checkState(Z)V:com/google/common/base/Preconditions.checkState(Z)V:com/google/common/base/Preconditions.checkState(ZLjava/lang/Object;)V:com/google/common/base/Preconditions.checkState(ZLjava/lang/Object;)V:com/google/common/base/Preconditions.checkState(ZLjava/lang/Object;)V:com/google/common/base/Preconditions.checkArgument(ZLjava/lang/Object;)V:com/google/common/base/Preconditions.checkArgument(ZLjava/lang/Object;)V:com/google/common/base/Preconditions.checkArgument(ZLjava/lang/Object;)V:com/google/common/base/Preconditions.checkArgument(ZLjava/lang/Object;)V:com/google/javascript/rhino/Node.putProp(ILjava/lang/Object;)V'
p116
I1
sS'com/google/common/base/Preconditions.checkArgument(ZLjava/lang/Object;)V:com/google/common/base/Preconditions.checkArgument(ZLjava/lang/Object;)V:com/google/common/base/Preconditions.checkArgument(ZLjava/lang/Object;)V:com/google/common/base/Preconditions.checkArgument(ZLjava/lang/Object;)V:com/google/common/base/Preconditions.checkState(Z)V:com/google/common/base/Preconditions.checkState(Z)V:com/google/common/base/Preconditions.checkState(ZLjava/lang/Object;)V:com/google/javascript/rhino/Node.removeProp(I)V:com/google/javascript/rhino/Node.removeProp(Lcom/google/javascript/rhino/Node$PropListItem;I)Lcom/google/javascript/rhino/Node$PropListItem;'
p117
I1
sS'com/google/common/base/Preconditions.checkArgument(ZLjava/lang/Object;)V:com/google/common/base/Preconditions.checkArgument(ZLjava/lang/Object;)V:com/google/common/base/Preconditions.checkArgument(ZLjava/lang/Object;)V:com/google/common/base/Preconditions.checkArgument(ZLjava/lang/Object;)V:com/google/common/base/Preconditions.checkState(Z)V:com/google/common/base/Preconditions.checkState(Z)V:com/google/common/base/Preconditions.checkState(ZLjava/lang/Object;)V:com/google/common/base/Preconditions.checkState(ZLjava/lang/Object;)V:com/google/common/base/Preconditions.checkState(ZLjava/lang/Object;)V:com/google/common/base/Preconditions.checkArgument(ZLjava/lang/Object;)V:com/google/common/base/Preconditions.checkArgument(ZLjava/lang/Object;)V'
p118
I1
sS'com/google/common/base/Preconditions.checkArgument(ZLjava/lang/Object;)V:com/google/common/base/Preconditions.checkArgument(ZLjava/lang/Object;)V:com/google/common/base/Preconditions.checkArgument(ZLjava/lang/Object;)V:com/google/common/base/Preconditions.checkArgument(ZLjava/lang/Object;)V:com/google/common/base/Preconditions.checkState(Z)V:com/google/common/base/Preconditions.checkState(Z)V:com/google/common/base/Preconditions.checkState(ZLjava/lang/Object;)V:com/google/common/base/Preconditions.checkState(ZLjava/lang/Object;)V:com/google/common/base/Preconditions.checkState(ZLjava/lang/Object;)V:com/google/common/base/Preconditions.checkArgument(ZLjava/lang/Object;)V:com/google/common/base/Preconditions.checkArgument(ZLjava/lang/Object;)V:com/google/common/base/Preconditions.checkArgument(ZLjava/lang/Object;)V:com/google/common/base/Preconditions.checkArgument(ZLjava/lang/Object;)V:com/google/javascript/rhino/Node.putProp(ILjava/lang/Object;)V:com/google/javascript/rhino/Node.removeProp(I)V:com/google/javascript/rhino/Node.removeProp(Lcom/google/javascript/rhino/Node$PropListItem;I)Lcom/google/javascript/rhino/Node$PropListItem;'
p119
I1
sS'com/google/common/base/Preconditions.checkArgument(ZLjava/lang/Object;)V:com/google/common/base/Preconditions.checkArgument(ZLjava/lang/Object;)V:com/google/common/base/Preconditions.checkArgument(ZLjava/lang/Object;)V:com/google/common/base/Preconditions.checkArgument(ZLjava/lang/Object;)V:com/google/javascript/rhino/Node.checkTreeEqualsImpl(Lcom/google/javascript/rhino/Node;Z)Lcom/google/javascript/rhino/Node$NodeMismatch;:com/google/javascript/rhino/Node.isEquivalentTo(Lcom/google/javascript/rhino/Node;ZZZ)Z:com/google/javascript/rhino/Node.getIntProp(I)I:com/google/javascript/rhino/Node.lookupProperty(I)Lcom/google/javascript/rhino/Node$PropListItem;:com/google/javascript/rhino/Node$PropListItem.getType()I'
p120
I1
sS'com/google/common/base/Preconditions.checkArgument(ZLjava/lang/Object;)V:com/google/common/base/Preconditions.checkArgument(ZLjava/lang/Object;)V:com/google/common/base/Preconditions.checkArgument(ZLjava/lang/Object;)V:com/google/common/base/Preconditions.checkArgument(ZLjava/lang/Object;)V:com/google/common/base/Preconditions.checkState(Z)V:com/google/common/base/Preconditions.checkState(Z)V:java/lang/Object.clone()Ljava/lang/Object;'
p121
I1
sS'com/google/common/base/Preconditions.checkArgument(ZLjava/lang/Object;)V:com/google/common/base/Preconditions.checkArgument(ZLjava/lang/Object;)V:com/google/common/base/Preconditions.checkArgument(ZLjava/lang/Object;)V:com/google/common/base/Preconditions.checkArgument(ZLjava/lang/Object;)V:com/google/common/base/Preconditions.checkState(Z)V:com/google/common/base/Preconditions.checkState(Z)V:com/google/common/base/Preconditions.checkState(ZLjava/lang/Object;)V:com/google/javascript/rhino/Node.createProp(IILcom/google/javascript/rhino/Node$PropListItem;)Lcom/google/javascript/rhino/Node$PropListItem;:com/google/javascript/rhino/Node$IntPropListItem.<init>(IILcom/google/javascript/rhino/Node$PropListItem;)V:com/google/javascript/rhino/Node$AbstractPropListItem.<init>(ILcom/google/javascript/rhino/Node$PropListItem;)V:java/lang/Object.<init>()V'
p122
I1
sS'com/google/common/base/Preconditions.checkArgument(ZLjava/lang/Object;)V:com/google/common/base/Preconditions.checkArgument(ZLjava/lang/Object;)V:com/google/common/base/Preconditions.checkArgument(ZLjava/lang/Object;)V:com/google/common/base/Preconditions.checkArgument(ZLjava/lang/Object;)V:com/google/common/base/Preconditions.checkState(Z)V:com/google/common/base/Preconditions.checkState(Z)V:com/google/javascript/rhino/Node.putIntProp(II)V:com/google/javascript/rhino/Node.removeProp(I)V:com/google/javascript/rhino/Node.removeProp(Lcom/google/javascript/rhino/Node$PropListItem;I)Lcom/google/javascript/rhino/Node$PropListItem;'
p123
I1
sS'com/google/common/base/Preconditions.checkArgument(ZLjava/lang/Object;)V:com/google/common/base/Preconditions.checkArgument(ZLjava/lang/Object;)V:com/google/common/base/Preconditions.checkArgument(ZLjava/lang/Object;)V:com/google/common/base/Preconditions.checkArgument(ZLjava/lang/Object;)V:com/google/javascript/rhino/Node.toStringTree()Ljava/lang/String;:com/google/javascript/rhino/Node.toStringTreeImpl()Ljava/lang/String;:java/lang/StringBuilder.<init>()V'
p124
I4
sS'com/google/common/base/Preconditions.checkArgument(ZLjava/lang/Object;)V:com/google/common/base/Preconditions.checkArgument(ZLjava/lang/Object;)V:com/google/common/base/Preconditions.checkArgument(ZLjava/lang/Object;)V:com/google/common/base/Preconditions.checkArgument(ZLjava/lang/Object;)V:com/google/common/base/Preconditions.checkState(Z)V:com/google/common/base/Preconditions.checkState(Z)V:com/google/javascript/rhino/Node.putIntProp(II)V:com/google/javascript/rhino/Node.createProp(IILcom/google/javascript/rhino/Node$PropListItem;)Lcom/google/javascript/rhino/Node$PropListItem;:com/google/javascript/rhino/Node$IntPropListItem.<init>(IILcom/google/javascript/rhino/Node$PropListItem;)V:com/google/javascript/rhino/Node$AbstractPropListItem.<init>(ILcom/google/javascript/rhino/Node$PropListItem;)V:java/lang/Object.<init>()V'
p125
I1
sS'com/google/common/base/Preconditions.checkArgument(ZLjava/lang/Object;)V:com/google/common/base/Preconditions.checkArgument(ZLjava/lang/Object;)V:com/google/common/base/Preconditions.checkArgument(ZLjava/lang/Object;)V:com/google/common/base/Preconditions.checkArgument(ZLjava/lang/Object;)V:com/google/common/base/Preconditions.checkState(Z)V:com/google/common/base/Preconditions.checkState(Z)V:com/google/common/base/Preconditions.checkState(ZLjava/lang/Object;)V:com/google/common/base/Preconditions.checkState(ZLjava/lang/Object;)V:com/google/common/base/Preconditions.checkState(ZLjava/lang/Object;)V:com/google/common/base/Preconditions.checkArgument(ZLjava/lang/Object;)V:com/google/common/base/Preconditions.checkArgument(ZLjava/lang/Object;)V:com/google/common/base/Preconditions.checkArgument(ZLjava/lang/Object;)V:com/google/common/base/Preconditions.checkArgument(ZLjava/lang/Object;)V:com/google/javascript/rhino/Node.getStaticSourceFile()Lcom/google/javascript/rhino/StaticSourceFile;:com/google/javascript/rhino/Node.getProp(I)Ljava/lang/Object;:com/google/javascript/rhino/Node$PropListItem.getObjectValue()Ljava/lang/Object;'
p126
I1
sS'com/google/common/base/Preconditions.checkArgument(ZLjava/lang/Object;)V:com/google/common/base/Preconditions.checkArgument(ZLjava/lang/Object;)V:com/google/common/base/Preconditions.checkArgument(ZLjava/lang/Object;)V:com/google/common/base/Preconditions.checkArgument(ZLjava/lang/Object;)V:com/google/common/base/Preconditions.checkState(Z)V:com/google/common/base/Preconditions.checkState(Z)V:com/google/common/base/Preconditions.checkState(ZLjava/lang/Object;)V:com/google/common/base/Preconditions.checkState(ZLjava/lang/Object;)V:com/google/common/base/Preconditions.checkState(ZLjava/lang/Object;)V:com/google/common/base/Preconditions.checkArgument(ZLjava/lang/Object;)V:com/google/common/base/Preconditions.checkArgument(ZLjava/lang/Object;)V:com/google/common/base/Preconditions.checkArgument(ZLjava/lang/Object;)V:com/google/common/base/Preconditions.checkArgument(ZLjava/lang/Object;)V:com/google/javascript/rhino/SimpleSourceFile.<init>(Ljava/lang/String;Z)V:java/lang/Object.<init>()V'
p127
I1
sS'com/google/common/base/Preconditions.checkArgument(ZLjava/lang/Object;)V:com/google/common/base/Preconditions.checkArgument(ZLjava/lang/Object;)V:com/google/common/base/Preconditions.checkArgument(ZLjava/lang/Object;)V:com/google/common/base/Preconditions.checkArgument(ZLjava/lang/Object;)V:com/google/common/base/Preconditions.checkState(Z)V:com/google/common/base/Preconditions.checkState(Z)V:com/google/common/base/Preconditions.checkState(ZLjava/lang/Object;)V:com/google/common/base/Preconditions.checkState(ZLjava/lang/Object;)V:com/google/common/base/Preconditions.checkState(ZLjava/lang/Object;)V:com/google/javascript/rhino/Node.putIntProp(II)V:com/google/javascript/rhino/Node.createProp(IILcom/google/javascript/rhino/Node$PropListItem;)Lcom/google/javascript/rhino/Node$PropListItem;'
p128
I2
sS'com/google/common/base/Preconditions.checkArgument(ZLjava/lang/Object;)V:com/google/common/base/Preconditions.checkArgument(ZLjava/lang/Object;)V:com/google/common/base/Preconditions.checkArgument(ZLjava/lang/Object;)V:com/google/common/base/Preconditions.checkArgument(ZLjava/lang/Object;)V:com/google/javascript/rhino/Node.setJSDocInfo(Lcom/google/javascript/rhino/JSDocInfo;)Lcom/google/javascript/rhino/Node;:com/google/javascript/rhino/Node.putProp(ILjava/lang/Object;)V:com/google/javascript/rhino/Node.createProp(ILjava/lang/Object;Lcom/google/javascript/rhino/Node$PropListItem;)Lcom/google/javascript/rhino/Node$PropListItem;:com/google/javascript/rhino/Node$ObjectPropListItem.<init>(ILjava/lang/Object;Lcom/google/javascript/rhino/Node$PropListItem;)V'
p129
I2
sS'com/google/common/base/Preconditions.checkArgument(ZLjava/lang/Object;)V:com/google/common/base/Preconditions.checkArgument(ZLjava/lang/Object;)V:com/google/common/base/Preconditions.checkArgument(ZLjava/lang/Object;)V:com/google/common/base/Preconditions.checkArgument(ZLjava/lang/Object;)V:java/lang/StringBuilder.toString()Ljava/lang/String;'
p130
I3
sS'com/google/common/base/Preconditions.checkArgument(ZLjava/lang/Object;)V:com/google/common/base/Preconditions.checkArgument(ZLjava/lang/Object;)V:com/google/common/base/Preconditions.checkArgument(ZLjava/lang/Object;)V:com/google/common/base/Preconditions.checkArgument(ZLjava/lang/Object;)V:com/google/common/base/Preconditions.checkState(Z)V:com/google/common/base/Preconditions.checkState(Z)V:com/google/common/base/Preconditions.checkState(ZLjava/lang/Object;)V:com/google/common/base/Preconditions.checkState(ZLjava/lang/Object;)V:com/google/common/base/Preconditions.checkState(ZLjava/lang/Object;)V:com/google/common/base/Preconditions.checkArgument(ZLjava/lang/Object;)V:com/google/common/base/Preconditions.checkArgument(ZLjava/lang/Object;)V:com/google/common/base/Preconditions.checkArgument(ZLjava/lang/Object;)V'
p131
I1
sS'com/google/common/base/Preconditions.checkArgument(ZLjava/lang/Object;)V:com/google/common/base/Preconditions.checkArgument(ZLjava/lang/Object;)V:com/google/common/base/Preconditions.checkArgument(ZLjava/lang/Object;)V:com/google/common/base/Preconditions.checkArgument(ZLjava/lang/Object;)V:com/google/common/base/Preconditions.checkState(Z)V:com/google/common/base/Preconditions.checkState(Z)V:com/google/javascript/rhino/Node.removeProp(I)V'
p132
I1
sS'com/google/common/base/Preconditions.checkArgument(ZLjava/lang/Object;)V:com/google/common/base/Preconditions.checkArgument(ZLjava/lang/Object;)V:com/google/common/base/Preconditions.checkArgument(ZLjava/lang/Object;)V:com/google/common/base/Preconditions.checkArgument(ZLjava/lang/Object;)V:com/google/javascript/rhino/Node.toStringTree()Ljava/lang/String;:com/google/javascript/rhino/Node.toStringTreeImpl()Ljava/lang/String;:com/google/javascript/rhino/Node.appendStringTree(Ljava/lang/Appendable;)V:com/google/javascript/rhino/Node.toStringTreeHelper(Lcom/google/javascript/rhino/Node;ILjava/lang/Appendable;)V:com/google/javascript/rhino/Node.toString()Ljava/lang/String;:com/google/javascript/rhino/Node.toString(ZZZ)Ljava/lang/String;:com/google/javascript/rhino/Node.toString(Ljava/lang/StringBuilder;ZZZ)V:com/google/javascript/rhino/Node.getSortedPropTypes()[I'
p133
I4
sS'com/google/common/base/Preconditions.checkArgument(ZLjava/lang/Object;)V:com/google/common/base/Preconditions.checkArgument(ZLjava/lang/Object;)V:com/google/common/base/Preconditions.checkArgument(ZLjava/lang/Object;)V:com/google/common/base/Preconditions.checkArgument(ZLjava/lang/Object;)V:com/google/javascript/rhino/Node.checkTreeEqualsImpl(Lcom/google/javascript/rhino/Node;Z)Lcom/google/javascript/rhino/Node$NodeMismatch;:com/google/javascript/rhino/Node.isEquivalentTo(Lcom/google/javascript/rhino/Node;ZZZ)Z:com/google/javascript/rhino/Node.getIntProp(I)I:com/google/javascript/rhino/Node.lookupProperty(I)Lcom/google/javascript/rhino/Node$PropListItem;'
p134
I2
sS'com/google/common/base/Preconditions.checkArgument(ZLjava/lang/Object;)V:com/google/common/base/Preconditions.checkArgument(ZLjava/lang/Object;)V:com/google/common/base/Preconditions.checkArgument(ZLjava/lang/Object;)V:com/google/common/base/Preconditions.checkArgument(ZLjava/lang/Object;)V:com/google/common/base/Preconditions.checkState(Z)V:com/google/common/base/Preconditions.checkState(Z)V:com/google/common/base/Preconditions.checkState(ZLjava/lang/Object;)V:com/google/common/base/Preconditions.checkState(ZLjava/lang/Object;)V:com/google/common/base/Preconditions.checkState(ZLjava/lang/Object;)V:com/google/javascript/rhino/Node$StringNode.<init>(ILjava/lang/String;)V'
p135
I4
sS'com/google/common/base/Preconditions.checkArgument(ZLjava/lang/Object;)V:com/google/common/base/Preconditions.checkArgument(ZLjava/lang/Object;)V:com/google/common/base/Preconditions.checkArgument(ZLjava/lang/Object;)V:com/google/common/base/Preconditions.checkArgument(ZLjava/lang/Object;)V:com/google/common/base/Preconditions.checkState(Z)V:com/google/common/base/Preconditions.checkState(Z)V:com/google/javascript/rhino/Node.matchesQualifiedName(Ljava/lang/String;I)Z:java/lang/String.isEmpty()Z'
p136
I3
sS'com/google/common/base/Preconditions.checkArgument(ZLjava/lang/Object;)V:com/google/common/base/Preconditions.checkArgument(ZLjava/lang/Object;)V:com/google/common/base/Preconditions.checkArgument(ZLjava/lang/Object;)V:com/google/common/base/Preconditions.checkArgument(ZLjava/lang/Object;)V:com/google/common/base/Preconditions.checkState(Z)V:com/google/common/base/Preconditions.checkState(Z)V:com/google/common/base/Preconditions.checkState(ZLjava/lang/Object;)V:com/google/common/base/Preconditions.checkState(ZLjava/lang/Object;)V:com/google/common/base/Preconditions.checkState(ZLjava/lang/Object;)V:com/google/common/base/Preconditions.checkArgument(ZLjava/lang/Object;)V:com/google/common/base/Preconditions.checkArgument(ZLjava/lang/Object;)V:java/lang/Object.<init>()V'
p137
I1
sS'com/google/common/base/Preconditions.checkArgument(ZLjava/lang/Object;)V:com/google/common/base/Preconditions.checkArgument(ZLjava/lang/Object;)V:com/google/common/base/Preconditions.checkArgument(ZLjava/lang/Object;)V:com/google/common/base/Preconditions.checkArgument(ZLjava/lang/Object;)V:com/google/common/base/Preconditions.checkState(Z)V:com/google/common/base/Preconditions.checkState(Z)V:com/google/common/base/Preconditions.checkState(ZLjava/lang/Object;)V:com/google/common/base/Preconditions.checkState(ZLjava/lang/Object;)V:com/google/common/base/Preconditions.checkState(ZLjava/lang/Object;)V:com/google/javascript/rhino/Node.putIntProp(II)V'
p138
I4
sS'com/google/common/base/Preconditions.checkArgument(ZLjava/lang/Object;)V:com/google/common/base/Preconditions.checkArgument(ZLjava/lang/Object;)V:com/google/common/base/Preconditions.checkArgument(ZLjava/lang/Object;)V:com/google/common/base/Preconditions.checkArgument(ZLjava/lang/Object;)V:com/google/common/base/Preconditions.checkState(Z)V:com/google/common/base/Preconditions.checkState(Z)V:com/google/common/base/Preconditions.checkState(ZLjava/lang/Object;)V:com/google/common/base/Preconditions.checkState(ZLjava/lang/Object;)V:com/google/common/base/Preconditions.checkState(ZLjava/lang/Object;)V:com/google/common/base/Preconditions.checkArgument(ZLjava/lang/Object;)V:com/google/common/base/Preconditions.checkArgument(ZLjava/lang/Object;)V:com/google/common/base/Preconditions.checkArgument(ZLjava/lang/Object;)V:com/google/common/base/Preconditions.checkArgument(ZLjava/lang/Object;)V:com/google/javascript/rhino/IR.mayBeExpression(Lcom/google/javascript/rhino/Node;)Z'
p139
I1
sS'com/google/common/base/Preconditions.checkArgument(ZLjava/lang/Object;)V:com/google/common/base/Preconditions.checkArgument(ZLjava/lang/Object;)V:com/google/common/base/Preconditions.checkArgument(ZLjava/lang/Object;)V:com/google/common/base/Preconditions.checkArgument(ZLjava/lang/Object;)V:com/google/javascript/rhino/Node.setJSDocInfo(Lcom/google/javascript/rhino/JSDocInfo;)Lcom/google/javascript/rhino/Node;:com/google/javascript/rhino/Node.putProp(ILjava/lang/Object;)V:com/google/javascript/rhino/Node.createProp(ILjava/lang/Object;Lcom/google/javascript/rhino/Node$PropListItem;)Lcom/google/javascript/rhino/Node$PropListItem;:com/google/javascript/rhino/Node$ObjectPropListItem.<init>(ILjava/lang/Object;Lcom/google/javascript/rhino/Node$PropListItem;)V:com/google/javascript/rhino/Node$AbstractPropListItem.<init>(ILcom/google/javascript/rhino/Node$PropListItem;)V'
p140
I2
sS'com/google/common/base/Preconditions.checkArgument(ZLjava/lang/Object;)V:com/google/common/base/Preconditions.checkArgument(ZLjava/lang/Object;)V:com/google/common/base/Preconditions.checkArgument(ZLjava/lang/Object;)V:com/google/common/base/Preconditions.checkArgument(ZLjava/lang/Object;)V:com/google/common/base/Preconditions.checkState(Z)V:com/google/common/base/Preconditions.checkState(Z)V:com/google/javascript/rhino/Node.matchesQualifiedName(Ljava/lang/String;I)Z:java/lang/String.lastIndexOf(II)I'
p141
I7
sS'com/google/common/base/Preconditions.checkArgument(ZLjava/lang/Object;)V:com/google/common/base/Preconditions.checkArgument(ZLjava/lang/Object;)V:com/google/common/base/Preconditions.checkArgument(ZLjava/lang/Object;)V:com/google/common/base/Preconditions.checkArgument(ZLjava/lang/Object;)V:com/google/javascript/rhino/Node.getString()Ljava/lang/String;'
p142
I3
sS'com/google/common/base/Preconditions.checkArgument(ZLjava/lang/Object;)V:com/google/common/base/Preconditions.checkArgument(ZLjava/lang/Object;)V:com/google/common/base/Preconditions.checkArgument(ZLjava/lang/Object;)V:com/google/common/base/Preconditions.checkArgument(ZLjava/lang/Object;)V:com/google/javascript/rhino/Node.getProp(I)Ljava/lang/Object;:com/google/javascript/rhino/Node$PropListItem.getObjectValue()Ljava/lang/Object;'
p143
I1
sS'com/google/common/base/Preconditions.checkArgument(ZLjava/lang/Object;)V:com/google/common/base/Preconditions.checkArgument(ZLjava/lang/Object;)V:com/google/common/base/Preconditions.checkArgument(ZLjava/lang/Object;)V:com/google/common/base/Preconditions.checkArgument(ZLjava/lang/Object;)V:com/google/common/base/Preconditions.checkState(Z)V:com/google/common/base/Preconditions.checkState(Z)V:com/google/common/base/Preconditions.checkState(ZLjava/lang/Object;)V:com/google/common/base/Preconditions.checkState(ZLjava/lang/Object;)V:com/google/common/base/Preconditions.checkState(ZLjava/lang/Object;)V:com/google/javascript/rhino/Node.putIntProp(II)V:com/google/javascript/rhino/Node.createProp(IILcom/google/javascript/rhino/Node$PropListItem;)Lcom/google/javascript/rhino/Node$PropListItem;:com/google/javascript/rhino/Node$IntPropListItem.<init>(IILcom/google/javascript/rhino/Node$PropListItem;)V'
p144
I2
sS'com/google/common/base/Preconditions.checkArgument(ZLjava/lang/Object;)V:com/google/common/base/Preconditions.checkArgument(ZLjava/lang/Object;)V:com/google/common/base/Preconditions.checkArgument(ZLjava/lang/Object;)V:com/google/common/base/Preconditions.checkArgument(ZLjava/lang/Object;)V:com/google/common/base/Preconditions.checkState(Z)V:com/google/javascript/rhino/Node.newString(Ljava/lang/String;)Lcom/google/javascript/rhino/Node;:com/google/javascript/rhino/Node$StringNode.<init>(ILjava/lang/String;)V:com/google/javascript/rhino/Node.<init>(I)V'
p145
I1
sS'com/google/common/base/Preconditions.checkArgument(ZLjava/lang/Object;)V:com/google/common/base/Preconditions.checkArgument(ZLjava/lang/Object;)V:com/google/common/base/Preconditions.checkArgument(ZLjava/lang/Object;)V:com/google/common/base/Preconditions.checkArgument(ZLjava/lang/Object;)V:com/google/common/base/Preconditions.checkState(Z)V:com/google/common/base/Preconditions.checkState(Z)V:com/google/javascript/rhino/Node.createProp(IILcom/google/javascript/rhino/Node$PropListItem;)Lcom/google/javascript/rhino/Node$PropListItem;:com/google/javascript/rhino/Node$IntPropListItem.<init>(IILcom/google/javascript/rhino/Node$PropListItem;)V'
p146
I1
sS'com/google/common/base/Preconditions.checkArgument(ZLjava/lang/Object;)V:com/google/common/base/Preconditions.checkArgument(ZLjava/lang/Object;)V:com/google/common/base/Preconditions.checkArgument(ZLjava/lang/Object;)V:com/google/common/base/Preconditions.checkArgument(ZLjava/lang/Object;)V:com/google/common/base/Preconditions.checkState(Z)V:com/google/common/base/Preconditions.checkState(Z)V:com/google/common/base/Preconditions.checkState(ZLjava/lang/Object;)V:java/lang/Object.<init>()V'
p147
I1
sS'com/google/common/base/Preconditions.checkArgument(ZLjava/lang/Object;)V:com/google/common/base/Preconditions.checkArgument(ZLjava/lang/Object;)V:com/google/common/base/Preconditions.checkArgument(ZLjava/lang/Object;)V:com/google/common/base/Preconditions.checkArgument(ZLjava/lang/Object;)V:com/google/javascript/rhino/Node.isEquivalentTo(Lcom/google/javascript/rhino/Node;ZZZ)Z:com/google/javascript/rhino/Node.isEquivalentTo(Lcom/google/javascript/rhino/Node;ZZZ)Z:com/google/javascript/rhino/jstype/JSType.isEquivalent(Lcom/google/javascript/rhino/jstype/JSType;Lcom/google/javascript/rhino/jstype/JSType;)Z:com/google/javascript/rhino/jstype/JSType$1.<init>()V:java/lang/Object.<init>()V'
p148
I1
sS'com/google/common/base/Preconditions.checkArgument(ZLjava/lang/Object;)V:com/google/common/base/Preconditions.checkArgument(ZLjava/lang/Object;)V:com/google/common/base/Preconditions.checkArgument(ZLjava/lang/Object;)V:com/google/common/base/Preconditions.checkArgument(ZLjava/lang/Object;)V:com/google/javascript/rhino/Node.putBooleanProp(IZ)V:com/google/javascript/rhino/Node.putIntProp(II)V:com/google/javascript/rhino/Node.createProp(IILcom/google/javascript/rhino/Node$PropListItem;)Lcom/google/javascript/rhino/Node$PropListItem;:com/google/javascript/rhino/Node$IntPropListItem.<init>(IILcom/google/javascript/rhino/Node$PropListItem;)V:com/google/javascript/rhino/Node$AbstractPropListItem.<init>(ILcom/google/javascript/rhino/Node$PropListItem;)V'
p149
I1
sS'com/google/common/base/Preconditions.checkArgument(ZLjava/lang/Object;)V:com/google/common/base/Preconditions.checkArgument(ZLjava/lang/Object;)V:com/google/common/base/Preconditions.checkArgument(ZLjava/lang/Object;)V:com/google/common/base/Preconditions.checkArgument(ZLjava/lang/Object;)V:com/google/common/base/Preconditions.checkState(Z)V:com/google/common/base/Preconditions.checkState(Z)V:com/google/common/base/Preconditions.checkState(ZLjava/lang/Object;)V:com/google/common/base/Preconditions.checkState(ZLjava/lang/Object;)V:com/google/common/base/Preconditions.checkState(ZLjava/lang/Object;)V:com/google/common/base/Preconditions.checkArgument(ZLjava/lang/Object;)V:com/google/common/base/Preconditions.checkArgument(ZLjava/lang/Object;)V:com/google/common/base/Preconditions.checkArgument(ZLjava/lang/Object;)V:com/google/common/base/Preconditions.checkArgument(ZLjava/lang/Object;)V:com/google/javascript/rhino/Node.putProp(ILjava/lang/Object;)V:com/google/javascript/rhino/Node.createProp(ILjava/lang/Object;Lcom/google/javascript/rhino/Node$PropListItem;)Lcom/google/javascript/rhino/Node$PropListItem;:com/google/javascript/rhino/Node$ObjectPropListItem.<init>(ILjava/lang/Object;Lcom/google/javascript/rhino/Node$PropListItem;)V'
p150
I1
sS'com/google/common/base/Preconditions.checkArgument(ZLjava/lang/Object;)V:com/google/common/base/Preconditions.checkArgument(ZLjava/lang/Object;)V:com/google/common/base/Preconditions.checkArgument(ZLjava/lang/Object;)V:com/google/common/base/Preconditions.checkArgument(ZLjava/lang/Object;)V:com/google/common/base/Preconditions.checkState(Z)V:com/google/common/base/Preconditions.checkState(Z)V:com/google/common/base/Preconditions.checkState(ZLjava/lang/Object;)V:com/google/common/base/Preconditions.checkState(ZLjava/lang/Object;)V:com/google/common/base/Preconditions.checkState(ZLjava/lang/Object;)V:com/google/common/base/Preconditions.checkArgument(ZLjava/lang/Object;)V:com/google/common/base/Preconditions.checkArgument(ZLjava/lang/Object;)V:com/google/common/base/Preconditions.checkArgument(ZLjava/lang/Object;)V:com/google/common/base/Preconditions.checkArgument(ZLjava/lang/Object;)V:com/google/javascript/rhino/Node.getString()Ljava/lang/String;'
p151
I2
sS'com/google/common/base/Preconditions.checkArgument(ZLjava/lang/Object;)V:com/google/common/base/Preconditions.checkArgument(ZLjava/lang/Object;)V:com/google/common/base/Preconditions.checkArgument(ZLjava/lang/Object;)V:com/google/common/base/Preconditions.checkArgument(ZLjava/lang/Object;)V:com/google/common/base/Preconditions.checkState(Z)V:com/google/common/base/Preconditions.checkState(Z)V:com/google/common/base/Preconditions.checkState(ZLjava/lang/Object;)V:com/google/common/base/Preconditions.checkState(ZLjava/lang/Object;)V:com/google/common/base/Preconditions.checkState(ZLjava/lang/Object;)V:com/google/common/base/Preconditions.checkArgument(ZLjava/lang/Object;)V:com/google/common/base/Preconditions.checkArgument(ZLjava/lang/Object;)V:com/google/common/base/Preconditions.checkArgument(ZLjava/lang/Object;)V:com/google/common/base/Preconditions.checkArgument(ZLjava/lang/Object;)V:com/google/javascript/rhino/Node.getLineno()I'
p152
I1
sS'com/google/common/base/Preconditions.checkArgument(ZLjava/lang/Object;)V:com/google/common/base/Preconditions.checkArgument(ZLjava/lang/Object;)V:com/google/common/base/Preconditions.checkArgument(ZLjava/lang/Object;)V:com/google/common/base/Preconditions.checkArgument(ZLjava/lang/Object;)V:com/google/common/base/Preconditions.checkState(Z)V:com/google/common/base/Preconditions.checkState(Z)V:com/google/javascript/rhino/Node$StringNode.<init>(ILjava/lang/String;)V'
p153
I2
sS'com/google/common/base/Preconditions.checkArgument(ZLjava/lang/Object;)V:com/google/common/base/Preconditions.checkArgument(ZLjava/lang/Object;)V:com/google/common/base/Preconditions.checkArgument(ZLjava/lang/Object;)V'
p154
I1
sS'com/google/common/base/Preconditions.checkArgument(ZLjava/lang/Object;)V:com/google/common/base/Preconditions.checkArgument(ZLjava/lang/Object;)V:com/google/common/base/Preconditions.checkArgument(ZLjava/lang/Object;)V:com/google/common/base/Preconditions.checkArgument(ZLjava/lang/Object;)V:com/google/javascript/rhino/Node.isEquivalentTo(Lcom/google/javascript/rhino/Node;ZZZ)Z:com/google/javascript/rhino/Node.getChildCount()I'
p155
I2
sS'com/google/common/base/Preconditions.checkArgument(ZLjava/lang/Object;)V:com/google/common/base/Preconditions.checkArgument(ZLjava/lang/Object;)V:com/google/common/base/Preconditions.checkArgument(ZLjava/lang/Object;)V:com/google/common/base/Preconditions.checkArgument(ZLjava/lang/Object;)V:com/google/javascript/rhino/Node.putIntProp(II)V:com/google/javascript/rhino/Node.createProp(IILcom/google/javascript/rhino/Node$PropListItem;)Lcom/google/javascript/rhino/Node$PropListItem;:com/google/javascript/rhino/Node$IntPropListItem.<init>(IILcom/google/javascript/rhino/Node$PropListItem;)V:com/google/javascript/rhino/Node$AbstractPropListItem.<init>(ILcom/google/javascript/rhino/Node$PropListItem;)V:java/lang/Object.<init>()V'
p156
I1
sS'com/google/common/base/Preconditions.checkArgument(ZLjava/lang/Object;)V:com/google/common/base/Preconditions.checkArgument(ZLjava/lang/Object;)V:com/google/common/base/Preconditions.checkArgument(ZLjava/lang/Object;)V:com/google/common/base/Preconditions.checkArgument(ZLjava/lang/Object;)V:com/google/javascript/rhino/Node.toStringTree()Ljava/lang/String;:com/google/javascript/rhino/Node.toStringTreeImpl()Ljava/lang/String;:com/google/javascript/rhino/Node.appendStringTree(Ljava/lang/Appendable;)V:com/google/javascript/rhino/Node.toStringTreeHelper(Lcom/google/javascript/rhino/Node;ILjava/lang/Appendable;)V:com/google/javascript/rhino/Node.toString()Ljava/lang/String;:com/google/javascript/rhino/Node.toString(ZZZ)Ljava/lang/String;:com/google/javascript/rhino/Node.toString(Ljava/lang/StringBuilder;ZZZ)V:com/google/javascript/rhino/Node.getSortedPropTypes()[I:java/util/Arrays.sort([I)V'
p157
I4
sS'com/google/common/base/Preconditions.checkArgument(ZLjava/lang/Object;)V:com/google/common/base/Preconditions.checkArgument(ZLjava/lang/Object;)V:com/google/common/base/Preconditions.checkArgument(ZLjava/lang/Object;)V:com/google/common/base/Preconditions.checkArgument(ZLjava/lang/Object;)V:com/google/javascript/rhino/Node.isEquivalentTo(Lcom/google/javascript/rhino/Node;ZZZ)Z:com/google/javascript/rhino/Node.isEquivalentTo(Lcom/google/javascript/rhino/Node;ZZZ)Z:com/google/javascript/rhino/Node.getJSDocInfo()Lcom/google/javascript/rhino/JSDocInfo;:com/google/javascript/rhino/Node.getProp(I)Ljava/lang/Object;'
p158
I2
sS'com/google/common/base/Preconditions.checkArgument(ZLjava/lang/Object;)V:com/google/common/base/Preconditions.checkArgument(ZLjava/lang/Object;)V:com/google/common/base/Preconditions.checkArgument(ZLjava/lang/Object;)V:com/google/common/base/Preconditions.checkArgument(ZLjava/lang/Object;)V:com/google/javascript/rhino/Node.checkTreeEqualsImpl(Lcom/google/javascript/rhino/Node;Z)Lcom/google/javascript/rhino/Node$NodeMismatch;:com/google/javascript/rhino/Node.isEquivalentTo(Lcom/google/javascript/rhino/Node;ZZZ)Z:com/google/javascript/rhino/Node.getDeclaredTypeExpression()Lcom/google/javascript/rhino/Node$TypeDeclarationNode;:com/google/javascript/rhino/Node.getProp(I)Ljava/lang/Object;:com/google/javascript/rhino/Node.lookupProperty(I)Lcom/google/javascript/rhino/Node$PropListItem;:com/google/javascript/rhino/Node$PropListItem.getType()I'
p159
I1
sS'com/google/common/base/Preconditions.checkArgument(ZLjava/lang/Object;)V:com/google/common/base/Preconditions.checkArgument(ZLjava/lang/Object;)V:com/google/common/base/Preconditions.checkArgument(ZLjava/lang/Object;)V:com/google/common/base/Preconditions.checkArgument(ZLjava/lang/Object;)V:com/google/javascript/rhino/Node.putIntProp(II)V:com/google/javascript/rhino/Node.createProp(IILcom/google/javascript/rhino/Node$PropListItem;)Lcom/google/javascript/rhino/Node$PropListItem;'
p160
I1
sS'com/google/common/base/Preconditions.checkArgument(ZLjava/lang/Object;)V:com/google/common/base/Preconditions.checkArgument(ZLjava/lang/Object;)V:com/google/common/base/Preconditions.checkArgument(ZLjava/lang/Object;)V:com/google/common/base/Preconditions.checkArgument(ZLjava/lang/Object;)V'
p161
I1
sS'com/google/common/base/Preconditions.checkArgument(ZLjava/lang/Object;)V:com/google/common/base/Preconditions.checkArgument(ZLjava/lang/Object;)V:com/google/common/base/Preconditions.checkArgument(ZLjava/lang/Object;)V:com/google/common/base/Preconditions.checkArgument(ZLjava/lang/Object;)V:com/google/common/base/Preconditions.checkState(Z)V:com/google/common/base/Preconditions.checkState(Z)V:com/google/javascript/rhino/Node.putIntProp(II)V:com/google/javascript/rhino/Node.createProp(IILcom/google/javascript/rhino/Node$PropListItem;)Lcom/google/javascript/rhino/Node$PropListItem;:com/google/javascript/rhino/Node$IntPropListItem.<init>(IILcom/google/javascript/rhino/Node$PropListItem;)V:com/google/javascript/rhino/Node$AbstractPropListItem.<init>(ILcom/google/javascript/rhino/Node$PropListItem;)V'
p162
I1
sS'com/google/common/base/Preconditions.checkArgument(ZLjava/lang/Object;)V:com/google/common/base/Preconditions.checkArgument(ZLjava/lang/Object;)V:com/google/common/base/Preconditions.checkArgument(ZLjava/lang/Object;)V:com/google/common/base/Preconditions.checkArgument(ZLjava/lang/Object;)V:com/google/common/base/Preconditions.checkState(Z)V:com/google/common/base/Preconditions.checkState(Z)V:com/google/javascript/rhino/Node.createProp(IILcom/google/javascript/rhino/Node$PropListItem;)Lcom/google/javascript/rhino/Node$PropListItem;:com/google/javascript/rhino/Node$IntPropListItem.<init>(IILcom/google/javascript/rhino/Node$PropListItem;)V:com/google/javascript/rhino/Node$AbstractPropListItem.<init>(ILcom/google/javascript/rhino/Node$PropListItem;)V:java/lang/Object.<init>()V'
p163
I1
sS'com/google/common/base/Preconditions.checkArgument(ZLjava/lang/Object;)V:com/google/common/base/Preconditions.checkArgument(ZLjava/lang/Object;)V:com/google/common/base/Preconditions.checkArgument(ZLjava/lang/Object;)V:com/google/common/base/Preconditions.checkArgument(ZLjava/lang/Object;)V:com/google/javascript/rhino/Node.toStringTree()Ljava/lang/String;:com/google/javascript/rhino/Node.toStringTreeImpl()Ljava/lang/String;:com/google/javascript/rhino/Node.appendStringTree(Ljava/lang/Appendable;)V:com/google/javascript/rhino/Node.toStringTreeHelper(Lcom/google/javascript/rhino/Node;ILjava/lang/Appendable;)V:com/google/javascript/rhino/Node.toString()Ljava/lang/String;:com/google/javascript/rhino/Node.toString(ZZZ)Ljava/lang/String;:com/google/javascript/rhino/Node.toString(Ljava/lang/StringBuilder;ZZZ)V:com/google/javascript/rhino/Node.getLineno()I'
p164
I4
sS'com/google/common/base/Preconditions.checkArgument(ZLjava/lang/Object;)V:com/google/common/base/Preconditions.checkArgument(ZLjava/lang/Object;)V:com/google/common/base/Preconditions.checkArgument(ZLjava/lang/Object;)V:com/google/common/base/Preconditions.checkArgument(ZLjava/lang/Object;)V:com/google/javascript/rhino/Node.checkTreeEqualsImpl(Lcom/google/javascript/rhino/Node;Z)Lcom/google/javascript/rhino/Node$NodeMismatch;'
p165
I1
sS'com/google/common/base/Preconditions.checkArgument(ZLjava/lang/Object;)V:com/google/common/base/Preconditions.checkArgument(ZLjava/lang/Object;)V:com/google/common/base/Preconditions.checkArgument(ZLjava/lang/Object;)V:com/google/common/base/Preconditions.checkArgument(ZLjava/lang/Object;)V:java/lang/StringBuilder.<init>()V'
p166
I3
sS'com/google/common/base/Preconditions.checkArgument(ZLjava/lang/Object;)V:com/google/common/base/Preconditions.checkArgument(ZLjava/lang/Object;)V:com/google/common/base/Preconditions.checkArgument(ZLjava/lang/Object;)V:com/google/common/base/Preconditions.checkArgument(ZLjava/lang/Object;)V:com/google/javascript/rhino/Node.toStringTree()Ljava/lang/String;:com/google/javascript/rhino/Node.toStringTreeImpl()Ljava/lang/String;:com/google/javascript/rhino/Node.appendStringTree(Ljava/lang/Appendable;)V:com/google/javascript/rhino/Node.toStringTreeHelper(Lcom/google/javascript/rhino/Node;ILjava/lang/Appendable;)V:com/google/javascript/rhino/Node.toString()Ljava/lang/String;:com/google/javascript/rhino/Node.toString(ZZZ)Ljava/lang/String;:com/google/javascript/rhino/Node.toString(Ljava/lang/StringBuilder;ZZZ)V:com/google/javascript/rhino/Token.name(I)Ljava/lang/String;'
p167
I4
sS'com/google/common/base/Preconditions.checkArgument(ZLjava/lang/Object;)V:com/google/common/base/Preconditions.checkArgument(ZLjava/lang/Object;)V:com/google/common/base/Preconditions.checkArgument(ZLjava/lang/Object;)V:com/google/common/base/Preconditions.checkArgument(ZLjava/lang/Object;)V:com/google/common/base/Preconditions.checkState(Z)V:com/google/common/base/Preconditions.checkState(Z)V:com/google/javascript/rhino/Node.matchesQualifiedName(Ljava/lang/String;I)Z'
p168
I7
sS'com/google/common/base/Preconditions.checkArgument(ZLjava/lang/Object;)V:com/google/common/base/Preconditions.checkArgument(ZLjava/lang/Object;)V:com/google/common/base/Preconditions.checkArgument(ZLjava/lang/Object;)V:com/google/common/base/Preconditions.checkArgument(ZLjava/lang/Object;)V:com/google/javascript/rhino/Node.isEquivalentTo(Lcom/google/javascript/rhino/Node;ZZZ)Z:com/google/javascript/rhino/Node.isEquivalentTo(Lcom/google/javascript/rhino/Node;ZZZ)Z:com/google/javascript/rhino/Node.getDeclaredTypeExpression()Lcom/google/javascript/rhino/Node$TypeDeclarationNode;:com/google/javascript/rhino/Node.getProp(I)Ljava/lang/Object;:com/google/javascript/rhino/Node.lookupProperty(I)Lcom/google/javascript/rhino/Node$PropListItem;'
p169
I4
sS'com/google/common/base/Preconditions.checkArgument(ZLjava/lang/Object;)V:com/google/common/base/Preconditions.checkArgument(ZLjava/lang/Object;)V:com/google/common/base/Preconditions.checkArgument(ZLjava/lang/Object;)V:com/google/common/base/Preconditions.checkArgument(ZLjava/lang/Object;)V:com/google/common/base/Preconditions.checkState(Z)V:com/google/common/base/Preconditions.checkState(Z)V:com/google/common/base/Preconditions.checkState(ZLjava/lang/Object;)V:com/google/common/base/Preconditions.checkState(ZLjava/lang/Object;)V:com/google/common/base/Preconditions.checkState(ZLjava/lang/Object;)V:com/google/common/base/Preconditions.checkArgument(ZLjava/lang/Object;)V:com/google/common/base/Preconditions.checkArgument(ZLjava/lang/Object;)V:com/google/common/base/Preconditions.checkArgument(ZLjava/lang/Object;)V:com/google/common/base/Preconditions.checkArgument(ZLjava/lang/Object;)V:com/google/javascript/rhino/IR.mayBeExpression(Lcom/google/javascript/rhino/Node;)Z:com/google/javascript/rhino/Node.getType()I'
p170
I1
sS'com/google/common/base/Preconditions.checkArgument(ZLjava/lang/Object;)V:com/google/common/base/Preconditions.checkArgument(ZLjava/lang/Object;)V:com/google/common/base/Preconditions.checkArgument(ZLjava/lang/Object;)V:com/google/common/base/Preconditions.checkArgument(ZLjava/lang/Object;)V:com/google/common/base/Preconditions.checkState(Z)V:com/google/common/base/Preconditions.checkState(Z)V:com/google/common/base/Preconditions.checkState(ZLjava/lang/Object;)V:com/google/common/base/Preconditions.checkState(ZLjava/lang/Object;)V:com/google/common/base/Preconditions.checkState(ZLjava/lang/Object;)V:com/google/common/base/Preconditions.checkArgument(ZLjava/lang/Object;)V:com/google/common/base/Preconditions.checkArgument(ZLjava/lang/Object;)V:com/google/common/base/Preconditions.checkArgument(ZLjava/lang/Object;)V:com/google/common/base/Preconditions.checkArgument(ZLjava/lang/Object;)V:com/google/javascript/rhino/Node.putProp(ILjava/lang/Object;)V:com/google/javascript/rhino/Node.createProp(ILjava/lang/Object;Lcom/google/javascript/rhino/Node$PropListItem;)Lcom/google/javascript/rhino/Node$PropListItem;:com/google/javascript/rhino/Node$ObjectPropListItem.<init>(ILjava/lang/Object;Lcom/google/javascript/rhino/Node$PropListItem;)V:com/google/javascript/rhino/Node$AbstractPropListItem.<init>(ILcom/google/javascript/rhino/Node$PropListItem;)V:java/lang/Object.<init>()V'
p171
I1
sS'com/google/common/base/Preconditions.checkArgument(ZLjava/lang/Object;)V:com/google/common/base/Preconditions.checkArgument(ZLjava/lang/Object;)V:com/google/common/base/Preconditions.checkArgument(ZLjava/lang/Object;)V:com/google/common/base/Preconditions.checkArgument(ZLjava/lang/Object;)V:com/google/common/base/Preconditions.checkState(Z)V:com/google/common/base/Preconditions.checkState(Z)V:com/google/common/base/Preconditions.checkState(ZLjava/lang/Object;)V:com/google/common/base/Preconditions.checkState(ZLjava/lang/Object;)V:com/google/common/base/Preconditions.checkState(ZLjava/lang/Object;)V:java/lang/Object.clone()Ljava/lang/Object;'
p172
I1
sS'com/google/common/base/Preconditions.checkArgument(ZLjava/lang/Object;)V:com/google/common/base/Preconditions.checkArgument(ZLjava/lang/Object;)V:com/google/common/base/Preconditions.checkArgument(ZLjava/lang/Object;)V:com/google/common/base/Preconditions.checkArgument(ZLjava/lang/Object;)V:com/google/common/base/Preconditions.checkState(Z)V:com/google/common/base/Preconditions.checkState(Z)V:com/google/common/base/Preconditions.checkState(ZLjava/lang/Object;)V:com/google/common/base/Preconditions.checkState(ZLjava/lang/Object;)V:com/google/common/base/Preconditions.checkState(ZLjava/lang/Object;)V:com/google/common/base/Preconditions.checkArgument(ZLjava/lang/Object;)V:com/google/common/base/Preconditions.checkArgument(ZLjava/lang/Object;)V:com/google/common/base/Preconditions.checkArgument(ZLjava/lang/Object;)V:com/google/common/base/Preconditions.checkArgument(ZLjava/lang/Object;)V:com/google/javascript/rhino/Node.putProp(ILjava/lang/Object;)V:com/google/javascript/rhino/Node.createProp(ILjava/lang/Object;Lcom/google/javascript/rhino/Node$PropListItem;)Lcom/google/javascript/rhino/Node$PropListItem;:com/google/javascript/rhino/Node$ObjectPropListItem.<init>(ILjava/lang/Object;Lcom/google/javascript/rhino/Node$PropListItem;)V:com/google/javascript/rhino/Node$AbstractPropListItem.<init>(ILcom/google/javascript/rhino/Node$PropListItem;)V'
p173
I1
sS'com/google/common/base/Preconditions.checkArgument(ZLjava/lang/Object;)V:com/google/common/base/Preconditions.checkArgument(ZLjava/lang/Object;)V:com/google/common/base/Preconditions.checkArgument(ZLjava/lang/Object;)V:com/google/common/base/Preconditions.checkArgument(ZLjava/lang/Object;)V:com/google/javascript/rhino/Node.isEquivalentTo(Lcom/google/javascript/rhino/Node;ZZZ)Z:com/google/javascript/rhino/Node.getDeclaredTypeExpression()Lcom/google/javascript/rhino/Node$TypeDeclarationNode;:com/google/javascript/rhino/Node.getProp(I)Ljava/lang/Object;:com/google/javascript/rhino/Node.lookupProperty(I)Lcom/google/javascript/rhino/Node$PropListItem;'
p174
I2
sS'com/google/common/base/Preconditions.checkArgument(ZLjava/lang/Object;)V:com/google/common/base/Preconditions.checkArgument(ZLjava/lang/Object;)V:com/google/common/base/Preconditions.checkArgument(ZLjava/lang/Object;)V:com/google/common/base/Preconditions.checkArgument(ZLjava/lang/Object;)V:com/google/javascript/rhino/Node.toStringTree()Ljava/lang/String;:com/google/javascript/rhino/Node.toStringTreeImpl()Ljava/lang/String;:com/google/javascript/rhino/Node.appendStringTree(Ljava/lang/Appendable;)V:com/google/javascript/rhino/Node.toStringTreeHelper(Lcom/google/javascript/rhino/Node;ILjava/lang/Appendable;)V:com/google/javascript/rhino/Node.toString()Ljava/lang/String;'
p175
I4
sS'com/google/common/base/Preconditions.checkArgument(ZLjava/lang/Object;)V:com/google/common/base/Preconditions.checkArgument(ZLjava/lang/Object;)V:com/google/common/base/Preconditions.checkArgument(ZLjava/lang/Object;)V:com/google/common/base/Preconditions.checkArgument(ZLjava/lang/Object;)V:com/google/common/base/Preconditions.checkState(Z)V:com/google/common/base/Preconditions.checkState(Z)V:com/google/common/base/Preconditions.checkState(ZLjava/lang/Object;)V:com/google/common/base/Preconditions.checkState(ZLjava/lang/Object;)V:com/google/common/base/Preconditions.checkState(ZLjava/lang/Object;)V:com/google/common/base/Preconditions.checkArgument(ZLjava/lang/Object;)V:com/google/common/base/Preconditions.checkArgument(ZLjava/lang/Object;)V:com/google/common/base/Preconditions.checkArgument(ZLjava/lang/Object;)V:com/google/common/base/Preconditions.checkArgument(ZLjava/lang/Object;)V:com/google/javascript/rhino/SimpleSourceFile.<init>(Ljava/lang/String;Z)V'
p176
I1
sS'com/google/common/base/Preconditions.checkArgument(ZLjava/lang/Object;)V:com/google/common/base/Preconditions.checkArgument(ZLjava/lang/Object;)V:com/google/common/base/Preconditions.checkArgument(ZLjava/lang/Object;)V:com/google/common/base/Preconditions.checkArgument(ZLjava/lang/Object;)V:com/google/common/base/Preconditions.checkState(Z)V:com/google/common/base/Preconditions.checkState(Z)V:com/google/common/base/Preconditions.checkState(ZLjava/lang/Object;)V:com/google/common/base/Preconditions.checkState(ZLjava/lang/Object;)V:com/google/common/base/Preconditions.checkState(ZLjava/lang/Object;)V:com/google/common/base/Preconditions.checkArgument(ZLjava/lang/Object;)V:com/google/common/base/Preconditions.checkArgument(ZLjava/lang/Object;)V:com/google/common/base/Preconditions.checkArgument(ZLjava/lang/Object;)V:com/google/common/base/Preconditions.checkArgument(ZLjava/lang/Object;)V:com/google/javascript/rhino/Node$StringNode.<init>(ILjava/lang/String;)V:com/google/javascript/rhino/Node.<init>(I)V:java/lang/Object.<init>()V'
p177
I1
sS'com/google/common/base/Preconditions.checkArgument(ZLjava/lang/Object;)V:com/google/common/base/Preconditions.checkArgument(ZLjava/lang/Object;)V:com/google/common/base/Preconditions.checkArgument(ZLjava/lang/Object;)V:com/google/common/base/Preconditions.checkArgument(ZLjava/lang/Object;)V:com/google/javascript/rhino/JSDocInfo.setLicense(Ljava/lang/String;)V:com/google/javascript/rhino/JSDocInfo$LazilyInitializedInfo.<init>()V'
p178
I1
sS'com/google/common/base/Preconditions.checkArgument(ZLjava/lang/Object;)V:com/google/common/base/Preconditions.checkArgument(ZLjava/lang/Object;)V:com/google/common/base/Preconditions.checkArgument(ZLjava/lang/Object;)V:com/google/common/base/Preconditions.checkArgument(ZLjava/lang/Object;)V:com/google/common/base/Preconditions.checkState(Z)V:com/google/common/base/Preconditions.checkState(Z)V:com/google/common/base/Preconditions.checkState(ZLjava/lang/Object;)V:com/google/javascript/rhino/Node$StringNode.<init>(ILjava/lang/String;)V:com/google/javascript/rhino/Node.<init>(I)V:java/lang/Object.<init>()V'
p179
I1
sS'com/google/common/base/Preconditions.checkArgument(ZLjava/lang/Object;)V:com/google/common/base/Preconditions.checkArgument(ZLjava/lang/Object;)V:com/google/common/base/Preconditions.checkArgument(ZLjava/lang/Object;)V:com/google/common/base/Preconditions.checkArgument(ZLjava/lang/Object;)V:com/google/javascript/rhino/Node.toStringTree()Ljava/lang/String;:com/google/javascript/rhino/Node.toStringTreeImpl()Ljava/lang/String;:com/google/javascript/rhino/Node.appendStringTree(Ljava/lang/Appendable;)V:com/google/javascript/rhino/Node.toStringTreeHelper(Lcom/google/javascript/rhino/Node;ILjava/lang/Appendable;)V:com/google/javascript/rhino/Node.toString()Ljava/lang/String;:com/google/javascript/rhino/Node.toString(ZZZ)Ljava/lang/String;:com/google/javascript/rhino/Node.toString(Ljava/lang/StringBuilder;ZZZ)V:com/google/javascript/rhino/Node.getLineno()I:com/google/javascript/rhino/Node.extractLineno(I)I'
p180
I4
sS'com/google/common/base/Preconditions.checkArgument(ZLjava/lang/Object;)V:com/google/common/base/Preconditions.checkArgument(ZLjava/lang/Object;)V:com/google/common/base/Preconditions.checkArgument(ZLjava/lang/Object;)V:com/google/common/base/Preconditions.checkArgument(ZLjava/lang/Object;)V:com/google/javascript/rhino/Node.isEquivalentTo(Lcom/google/javascript/rhino/Node;ZZZ)Z:com/google/javascript/rhino/Node.isEquivalentTo(Lcom/google/javascript/rhino/Node;ZZZ)Z:com/google/javascript/rhino/jstype/JSType.isEquivalent(Lcom/google/javascript/rhino/jstype/JSType;Lcom/google/javascript/rhino/jstype/JSType;)Z:com/google/javascript/rhino/jstype/CanCastToVisitor.<init>()V:java/lang/Object.<init>()V'
p181
I1
sS'com/google/common/base/Preconditions.checkArgument(ZLjava/lang/Object;)V:com/google/common/base/Preconditions.checkArgument(ZLjava/lang/Object;)V:com/google/common/base/Preconditions.checkArgument(ZLjava/lang/Object;)V:com/google/common/base/Preconditions.checkArgument(ZLjava/lang/Object;)V:com/google/common/base/Preconditions.checkState(Z)V:com/google/common/base/Preconditions.checkState(Z)V:com/google/common/base/Preconditions.checkState(ZLjava/lang/Object;)V:com/google/common/base/Preconditions.checkState(ZLjava/lang/Object;)V:com/google/javascript/rhino/Node$StringNode.<init>(ILjava/lang/String;)V:com/google/javascript/rhino/Node.<init>(I)V'
p182
I1
sS'com/google/common/base/Preconditions.checkArgument(ZLjava/lang/Object;)V:com/google/common/base/Preconditions.checkArgument(ZLjava/lang/Object;)V:com/google/common/base/Preconditions.checkArgument(ZLjava/lang/Object;)V:com/google/common/base/Preconditions.checkArgument(ZLjava/lang/Object;)V:com/google/common/base/Preconditions.checkState(Z)V:com/google/common/base/Preconditions.checkState(Z)V:com/google/common/base/Preconditions.checkState(ZLjava/lang/Object;)V:com/google/common/base/Preconditions.checkState(ZLjava/lang/Object;)V:com/google/common/base/Preconditions.checkState(ZLjava/lang/Object;)V:com/google/common/base/Preconditions.checkArgument(ZLjava/lang/Object;)V:com/google/common/base/Preconditions.checkArgument(ZLjava/lang/Object;)V:com/google/common/base/Preconditions.checkArgument(ZLjava/lang/Object;)V:com/google/common/base/Preconditions.checkArgument(ZLjava/lang/Object;)V:com/google/javascript/rhino/Node$StringNode.<init>(ILjava/lang/String;)V'
p183
I1
sS'com/google/common/base/Preconditions.checkArgument(ZLjava/lang/Object;)V:com/google/common/base/Preconditions.checkArgument(ZLjava/lang/Object;)V:com/google/common/base/Preconditions.checkArgument(ZLjava/lang/Object;)V:com/google/common/base/Preconditions.checkArgument(ZLjava/lang/Object;)V:com/google/common/base/Preconditions.checkState(Z)V:com/google/common/base/Preconditions.checkState(Z)V:com/google/javascript/rhino/Node.matchesQualifiedName(Ljava/lang/String;I)Z:java/lang/String.length()I'
p184
I3
sS'com/google/common/base/Preconditions.checkArgument(ZLjava/lang/Object;)V:com/google/common/base/Preconditions.checkArgument(ZLjava/lang/Object;)V:com/google/common/base/Preconditions.checkArgument(ZLjava/lang/Object;)V:com/google/common/base/Preconditions.checkArgument(ZLjava/lang/Object;)V:com/google/common/base/Preconditions.checkState(Z)V:com/google/common/base/Preconditions.checkState(Z)V:com/google/javascript/rhino/Node.createProp(IILcom/google/javascript/rhino/Node$PropListItem;)Lcom/google/javascript/rhino/Node$PropListItem;'
p185
I1
sS'com/google/common/base/Preconditions.checkArgument(ZLjava/lang/Object;)V:com/google/common/base/Preconditions.checkArgument(ZLjava/lang/Object;)V:com/google/common/base/Preconditions.checkArgument(ZLjava/lang/Object;)V:com/google/common/base/Preconditions.checkArgument(ZLjava/lang/Object;)V:com/google/common/base/Preconditions.checkState(Z)V:com/google/common/base/Preconditions.checkState(Z)V:com/google/javascript/rhino/Node.matchesQualifiedName(Ljava/lang/String;I)Z:com/google/javascript/rhino/Node.getString()Ljava/lang/String;'
p186
I7
sS'com/google/common/base/Preconditions.checkArgument(ZLjava/lang/Object;)V:com/google/common/base/Preconditions.checkArgument(ZLjava/lang/Object;)V:com/google/common/base/Preconditions.checkArgument(ZLjava/lang/Object;)V:com/google/common/base/Preconditions.checkArgument(ZLjava/lang/Object;)V:com/google/javascript/rhino/Node.isEquivalentTo(Lcom/google/javascript/rhino/Node;ZZZ)Z:com/google/javascript/rhino/Node.isEquivalentTo(Lcom/google/javascript/rhino/Node;ZZZ)Z:com/google/javascript/rhino/Node.getDeclaredTypeExpression()Lcom/google/javascript/rhino/Node$TypeDeclarationNode;:com/google/javascript/rhino/Node.getProp(I)Ljava/lang/Object;:com/google/javascript/rhino/Node.lookupProperty(I)Lcom/google/javascript/rhino/Node$PropListItem;:com/google/javascript/rhino/Node$PropListItem.getType()I'
p187
I1
sS'com/google/common/base/Preconditions.checkArgument(ZLjava/lang/Object;)V:com/google/common/base/Preconditions.checkArgument(ZLjava/lang/Object;)V:com/google/common/base/Preconditions.checkArgument(ZLjava/lang/Object;)V:com/google/common/base/Preconditions.checkArgument(ZLjava/lang/Object;)V:com/google/common/base/Preconditions.checkState(Z)V:com/google/common/base/Preconditions.checkState(Z)V:com/google/common/base/Preconditions.checkState(ZLjava/lang/Object;)V:com/google/common/base/Preconditions.checkState(ZLjava/lang/Object;)V:com/google/common/base/Preconditions.checkState(ZLjava/lang/Object;)V:com/google/common/base/Preconditions.checkArgument(ZLjava/lang/Object;)V:com/google/common/base/Preconditions.checkArgument(ZLjava/lang/Object;)V:com/google/common/base/Preconditions.checkArgument(ZLjava/lang/Object;)V:com/google/javascript/rhino/Node$StringNode.<init>(ILjava/lang/String;)V:com/google/javascript/rhino/Node.<init>(I)V'
p188
I2
sS'com/google/common/base/Preconditions.checkArgument(ZLjava/lang/Object;)V:com/google/common/base/Preconditions.checkArgument(ZLjava/lang/Object;)V:com/google/common/base/Preconditions.checkArgument(ZLjava/lang/Object;)V:com/google/common/base/Preconditions.checkArgument(ZLjava/lang/Object;)V:com/google/common/base/Preconditions.checkState(Z)V:com/google/common/base/Preconditions.checkState(Z)V:com/google/common/base/Preconditions.checkState(ZLjava/lang/Object;)V:com/google/common/base/Preconditions.checkState(ZLjava/lang/Object;)V:com/google/common/base/Preconditions.checkState(ZLjava/lang/Object;)V:com/google/common/base/Preconditions.checkArgument(ZLjava/lang/Object;)V:com/google/common/base/Preconditions.checkArgument(ZLjava/lang/Object;)V:com/google/common/base/Preconditions.checkArgument(ZLjava/lang/Object;)V:com/google/common/base/Preconditions.checkArgument(ZLjava/lang/Object;)V:com/google/javascript/rhino/Node.newString(ILjava/lang/String;)Lcom/google/javascript/rhino/Node;:com/google/javascript/rhino/Node$StringNode.<init>(ILjava/lang/String;)V:com/google/javascript/rhino/Node.<init>(I)V'
p189
I3
sS'com/google/common/base/Preconditions.checkArgument(ZLjava/lang/Object;)V:com/google/common/base/Preconditions.checkArgument(ZLjava/lang/Object;)V:com/google/common/base/Preconditions.checkArgument(ZLjava/lang/Object;)V:com/google/common/base/Preconditions.checkArgument(ZLjava/lang/Object;)V:com/google/javascript/rhino/Node.checkTreeEqualsImpl(Lcom/google/javascript/rhino/Node;)Lcom/google/javascript/rhino/Node$NodeMismatch;:com/google/javascript/rhino/Node.checkTreeEqualsImpl(Lcom/google/javascript/rhino/Node;Z)Lcom/google/javascript/rhino/Node$NodeMismatch;:com/google/javascript/rhino/Node.isEquivalentTo(Lcom/google/javascript/rhino/Node;ZZZ)Z:java/lang/Object.getClass()Ljava/lang/Class;'
p190
I2
sS'com/google/common/base/Preconditions.checkArgument(ZLjava/lang/Object;)V:com/google/common/base/Preconditions.checkArgument(ZLjava/lang/Object;)V:com/google/common/base/Preconditions.checkArgument(ZLjava/lang/Object;)V:com/google/common/base/Preconditions.checkArgument(ZLjava/lang/Object;)V:com/google/common/base/Preconditions.checkState(Z)V:com/google/common/base/Preconditions.checkState(Z)V:com/google/common/base/Preconditions.checkState(ZLjava/lang/Object;)V:com/google/common/base/Preconditions.checkState(ZLjava/lang/Object;)V:com/google/common/base/Preconditions.checkState(ZLjava/lang/Object;)V:com/google/common/base/Preconditions.checkArgument(ZLjava/lang/Object;)V:com/google/common/base/Preconditions.checkArgument(ZLjava/lang/Object;)V:com/google/common/base/Preconditions.checkArgument(ZLjava/lang/Object;)V:com/google/common/base/Preconditions.checkArgument(ZLjava/lang/Object;)V:com/google/javascript/rhino/Node.getStaticSourceFile()Lcom/google/javascript/rhino/StaticSourceFile;'
p191
I2
sS'com/google/common/base/Preconditions.checkArgument(ZLjava/lang/Object;)V:com/google/common/base/Preconditions.checkArgument(ZLjava/lang/Object;)V:com/google/common/base/Preconditions.checkArgument(ZLjava/lang/Object;)V:com/google/common/base/Preconditions.checkArgument(ZLjava/lang/Object;)V:com/google/common/base/Preconditions.checkState(Z)V:com/google/common/base/Preconditions.checkState(Z)V:com/google/common/base/Preconditions.checkState(ZLjava/lang/Object;)V:com/google/common/base/Preconditions.checkState(ZLjava/lang/Object;)V:com/google/common/base/Preconditions.checkState(ZLjava/lang/Object;)V:com/google/javascript/rhino/Node$StringNode.<init>(ILjava/lang/String;)V:com/google/javascript/rhino/Node.<init>(I)V'
p192
I4
sS'com/google/common/base/Preconditions.checkArgument(ZLjava/lang/Object;)V:com/google/common/base/Preconditions.checkArgument(ZLjava/lang/Object;)V:com/google/common/base/Preconditions.checkArgument(ZLjava/lang/Object;)V:com/google/common/base/Preconditions.checkArgument(ZLjava/lang/Object;)V:com/google/common/base/Preconditions.checkState(Z)V:com/google/common/base/Preconditions.checkState(Z)V:com/google/javascript/rhino/Node.putIntProp(II)V:com/google/javascript/rhino/Node.createProp(IILcom/google/javascript/rhino/Node$PropListItem;)Lcom/google/javascript/rhino/Node$PropListItem;:com/google/javascript/rhino/Node$IntPropListItem.<init>(IILcom/google/javascript/rhino/Node$PropListItem;)V'
p193
I1
sS'com/google/common/base/Preconditions.checkArgument(ZLjava/lang/Object;)V:com/google/common/base/Preconditions.checkArgument(ZLjava/lang/Object;)V:com/google/common/base/Preconditions.checkArgument(ZLjava/lang/Object;)V:com/google/common/base/Preconditions.checkArgument(ZLjava/lang/Object;)V:com/google/javascript/rhino/Node.isEquivalentTo(Lcom/google/javascript/rhino/Node;ZZZ)Z:com/google/javascript/rhino/Node.isEquivalentTo(Lcom/google/javascript/rhino/Node;ZZZ)Z:com/google/javascript/rhino/Node.getDeclaredTypeExpression()Lcom/google/javascript/rhino/Node$TypeDeclarationNode;'
p194
I4
sS'com/google/common/base/Preconditions.checkArgument(ZLjava/lang/Object;)V:com/google/common/base/Preconditions.checkArgument(ZLjava/lang/Object;)V:com/google/common/base/Preconditions.checkArgument(ZLjava/lang/Object;)V:com/google/common/base/Preconditions.checkArgument(ZLjava/lang/Object;)V:com/google/javascript/rhino/Node.isEquivalentTo(Lcom/google/javascript/rhino/Node;ZZZ)Z:com/google/javascript/rhino/Node.isEquivalentTo(Lcom/google/javascript/rhino/Node;ZZZ)Z:com/google/javascript/rhino/jstype/JSType.isEquivalent(Lcom/google/javascript/rhino/jstype/JSType;Lcom/google/javascript/rhino/jstype/JSType;)Z'
p195
I1
sS'com/google/common/base/Preconditions.checkArgument(ZLjava/lang/Object;)V:com/google/common/base/Preconditions.checkArgument(ZLjava/lang/Object;)V:com/google/common/base/Preconditions.checkArgument(ZLjava/lang/Object;)V:com/google/common/base/Preconditions.checkArgument(ZLjava/lang/Object;)V:com/google/common/base/Preconditions.checkState(Z)V:com/google/common/base/Preconditions.checkState(Z)V:com/google/common/base/Preconditions.checkState(ZLjava/lang/Object;)V:com/google/javascript/rhino/Node.createProp(IILcom/google/javascript/rhino/Node$PropListItem;)Lcom/google/javascript/rhino/Node$PropListItem;:com/google/javascript/rhino/Node$IntPropListItem.<init>(IILcom/google/javascript/rhino/Node$PropListItem;)V'
p196
I1
sS'com/google/common/base/Preconditions.checkArgument(ZLjava/lang/Object;)V:com/google/common/base/Preconditions.checkArgument(ZLjava/lang/Object;)V:com/google/common/base/Preconditions.checkArgument(ZLjava/lang/Object;)V:com/google/common/base/Preconditions.checkArgument(ZLjava/lang/Object;)V:com/google/common/base/Preconditions.checkState(Z)V:com/google/common/base/Preconditions.checkState(Z)V:com/google/javascript/rhino/Node.newString(ILjava/lang/String;)Lcom/google/javascript/rhino/Node;:com/google/javascript/rhino/Node$StringNode.<init>(ILjava/lang/String;)V:com/google/javascript/rhino/Node.<init>(I)V:java/lang/Object.<init>()V'
p197
I9
sS'com/google/common/base/Preconditions.checkArgument(ZLjava/lang/Object;)V:com/google/common/base/Preconditions.checkArgument(ZLjava/lang/Object;)V:com/google/common/base/Preconditions.checkArgument(ZLjava/lang/Object;)V:com/google/common/base/Preconditions.checkArgument(ZLjava/lang/Object;)V:com/google/common/base/Preconditions.checkState(Z)V:com/google/common/base/Preconditions.checkState(Z)V:com/google/common/base/Preconditions.checkState(ZLjava/lang/Object;)V:com/google/common/base/Preconditions.checkState(ZLjava/lang/Object;)V:com/google/common/base/Preconditions.checkState(ZLjava/lang/Object;)V:com/google/common/base/Preconditions.checkArgument(ZLjava/lang/Object;)V:com/google/common/base/Preconditions.checkArgument(ZLjava/lang/Object;)V:com/google/common/base/Preconditions.checkArgument(ZLjava/lang/Object;)V:com/google/common/base/Preconditions.checkArgument(ZLjava/lang/Object;)V:com/google/javascript/rhino/Node.newString(Ljava/lang/String;)Lcom/google/javascript/rhino/Node;:com/google/javascript/rhino/Node$StringNode.<init>(ILjava/lang/String;)V:com/google/javascript/rhino/Node.<init>(I)V:java/lang/Object.<init>()V'
p198
I1
sS'com/google/common/base/Preconditions.checkArgument(ZLjava/lang/Object;)V:com/google/common/base/Preconditions.checkArgument(ZLjava/lang/Object;)V:com/google/common/base/Preconditions.checkArgument(ZLjava/lang/Object;)V:com/google/common/base/Preconditions.checkArgument(ZLjava/lang/Object;)V:com/google/common/base/Preconditions.checkState(Z)V:com/google/javascript/rhino/Node.newString(Ljava/lang/String;)Lcom/google/javascript/rhino/Node;:com/google/javascript/rhino/Node$StringNode.<init>(ILjava/lang/String;)V:com/google/javascript/rhino/Node.<init>(I)V:java/lang/Object.<init>()V'
p199
I1
sS'com/google/common/base/Preconditions.checkArgument(ZLjava/lang/Object;)V:com/google/common/base/Preconditions.checkArgument(ZLjava/lang/Object;)V:com/google/common/base/Preconditions.checkArgument(ZLjava/lang/Object;)V:com/google/common/base/Preconditions.checkArgument(ZLjava/lang/Object;)V:com/google/javascript/rhino/Node.checkTreeEqualsImpl(Lcom/google/javascript/rhino/Node;Z)Lcom/google/javascript/rhino/Node$NodeMismatch;:com/google/javascript/rhino/Node.isEquivalentTo(Lcom/google/javascript/rhino/Node;ZZZ)Z:com/google/javascript/rhino/Node.getDeclaredTypeExpression()Lcom/google/javascript/rhino/Node$TypeDeclarationNode;:com/google/javascript/rhino/Node.getProp(I)Ljava/lang/Object;'
p200
I2
sS'com/google/common/base/Preconditions.checkArgument(ZLjava/lang/Object;)V:com/google/common/base/Preconditions.checkArgument(ZLjava/lang/Object;)V:com/google/common/base/Preconditions.checkArgument(ZLjava/lang/Object;)V:com/google/common/base/Preconditions.checkArgument(ZLjava/lang/Object;)V:com/google/javascript/rhino/IR.mayBeExpression(Lcom/google/javascript/rhino/Node;)Z:com/google/javascript/rhino/Node.getType()I'
p201
I1
sS'com/google/common/base/Preconditions.checkArgument(ZLjava/lang/Object;)V:com/google/common/base/Preconditions.checkArgument(ZLjava/lang/Object;)V:com/google/common/base/Preconditions.checkArgument(ZLjava/lang/Object;)V:com/google/common/base/Preconditions.checkArgument(ZLjava/lang/Object;)V:com/google/javascript/rhino/Node.checkTreeEqualsImpl(Lcom/google/javascript/rhino/Node;Z)Lcom/google/javascript/rhino/Node$NodeMismatch;:com/google/javascript/rhino/Node.isEquivalentTo(Lcom/google/javascript/rhino/Node;ZZZ)Z:com/google/javascript/rhino/Node.getDeclaredTypeExpression()Lcom/google/javascript/rhino/Node$TypeDeclarationNode;'
p202
I2
sS'com/google/common/base/Preconditions.checkArgument(ZLjava/lang/Object;)V:com/google/common/base/Preconditions.checkArgument(ZLjava/lang/Object;)V:com/google/common/base/Preconditions.checkArgument(ZLjava/lang/Object;)V:com/google/common/base/Preconditions.checkArgument(ZLjava/lang/Object;)V:com/google/common/base/Preconditions.checkState(Z)V:com/google/common/base/Preconditions.checkState(Z)V:com/google/common/base/Preconditions.checkState(ZLjava/lang/Object;)V:com/google/common/base/Preconditions.checkState(ZLjava/lang/Object;)V:com/google/common/base/Preconditions.checkState(ZLjava/lang/Object;)V:com/google/common/base/Preconditions.checkArgument(ZLjava/lang/Object;)V:com/google/javascript/rhino/Node$StringNode.<init>(ILjava/lang/String;)V:com/google/javascript/rhino/Node.<init>(I)V'
p203
I2
sS'com/google/common/base/Preconditions.checkArgument(ZLjava/lang/Object;)V:com/google/common/base/Preconditions.checkArgument(ZLjava/lang/Object;)V:com/google/common/base/Preconditions.checkArgument(ZLjava/lang/Object;)V:com/google/common/base/Preconditions.checkArgument(ZLjava/lang/Object;)V:com/google/javascript/rhino/Node$StringNode.<init>(ILjava/lang/String;)V:com/google/javascript/rhino/Node.<init>(I)V'
p204
I4
sS'com/google/common/base/Preconditions.checkArgument(ZLjava/lang/Object;)V:com/google/common/base/Preconditions.checkArgument(ZLjava/lang/Object;)V:com/google/common/base/Preconditions.checkArgument(ZLjava/lang/Object;)V:com/google/common/base/Preconditions.checkArgument(ZLjava/lang/Object;)V:com/google/common/base/Preconditions.checkState(Z)V:com/google/common/base/Preconditions.checkState(Z)V:com/google/javascript/rhino/Node$StringNode.<init>(ILjava/lang/String;)V:com/google/javascript/rhino/Node.<init>(I)V:java/lang/Object.<init>()V'
p205
I2
sS'com/google/common/base/Preconditions.checkArgument(ZLjava/lang/Object;)V:com/google/common/base/Preconditions.checkArgument(ZLjava/lang/Object;)V:com/google/common/base/Preconditions.checkArgument(ZLjava/lang/Object;)V:com/google/common/base/Preconditions.checkArgument(ZLjava/lang/Object;)V:com/google/common/base/Preconditions.checkState(Z)V:com/google/common/base/Preconditions.checkState(Z)V:com/google/common/base/Preconditions.checkState(ZLjava/lang/Object;)V:com/google/common/base/Preconditions.checkState(ZLjava/lang/Object;)V:com/google/common/base/Preconditions.checkState(ZLjava/lang/Object;)V:com/google/common/base/Preconditions.checkArgument(ZLjava/lang/Object;)V:com/google/common/base/Preconditions.checkArgument(ZLjava/lang/Object;)V:com/google/common/base/Preconditions.checkArgument(ZLjava/lang/Object;)V:com/google/common/base/Preconditions.checkArgument(ZLjava/lang/Object;)V:com/google/javascript/rhino/Node.newString(ILjava/lang/String;)Lcom/google/javascript/rhino/Node;'
p206
I3
sS'com/google/common/base/Preconditions.checkArgument(ZLjava/lang/Object;)V:com/google/common/base/Preconditions.checkArgument(ZLjava/lang/Object;)V:com/google/common/base/Preconditions.checkArgument(ZLjava/lang/Object;)V:com/google/common/base/Preconditions.checkArgument(ZLjava/lang/Object;)V:com/google/javascript/rhino/Node.setJSDocInfo(Lcom/google/javascript/rhino/JSDocInfo;)Lcom/google/javascript/rhino/Node;:com/google/javascript/rhino/Node.putProp(ILjava/lang/Object;)V:com/google/javascript/rhino/Node.removeProp(I)V'
p207
I2
sS'com/google/common/base/Preconditions.checkArgument(ZLjava/lang/Object;)V:com/google/common/base/Preconditions.checkArgument(ZLjava/lang/Object;)V:com/google/common/base/Preconditions.checkArgument(ZLjava/lang/Object;)V:com/google/common/base/Preconditions.checkArgument(ZLjava/lang/Object;)V:com/google/javascript/rhino/Node.checkTreeEqualsImpl(Lcom/google/javascript/rhino/Node;)Lcom/google/javascript/rhino/Node$NodeMismatch;:com/google/javascript/rhino/Node.checkTreeEqualsImpl(Lcom/google/javascript/rhino/Node;Z)Lcom/google/javascript/rhino/Node$NodeMismatch;:com/google/javascript/rhino/Node$NodeMismatch.<init>(Lcom/google/javascript/rhino/Node;Lcom/google/javascript/rhino/Node;)V:java/lang/Object.<init>()V'
p208
I1
sS'com/google/common/base/Preconditions.checkArgument(ZLjava/lang/Object;)V:com/google/common/base/Preconditions.checkArgument(ZLjava/lang/Object;)V:com/google/common/base/Preconditions.checkArgument(ZLjava/lang/Object;)V:com/google/common/base/Preconditions.checkArgument(ZLjava/lang/Object;)V:com/google/javascript/rhino/Node.isEquivalentTo(Lcom/google/javascript/rhino/Node;ZZZ)Z:com/google/javascript/rhino/Node.isEquivalentTo(Lcom/google/javascript/rhino/Node;ZZZ)Z:com/google/javascript/rhino/Node.getType()I'
p209
I2
sS'java/lang/Object.<init>()V'
p210
I2
sS'com/google/common/base/Preconditions.checkArgument(ZLjava/lang/Object;)V:com/google/common/base/Preconditions.checkArgument(ZLjava/lang/Object;)V:com/google/common/base/Preconditions.checkArgument(ZLjava/lang/Object;)V:com/google/common/base/Preconditions.checkArgument(ZLjava/lang/Object;)V:com/google/javascript/rhino/Node.removeProp(I)V'
p211
I1
sS'com/google/common/base/Preconditions.checkArgument(ZLjava/lang/Object;)V:com/google/common/base/Preconditions.checkArgument(ZLjava/lang/Object;)V:com/google/common/base/Preconditions.checkArgument(ZLjava/lang/Object;)V:com/google/common/base/Preconditions.checkArgument(ZLjava/lang/Object;)V:com/google/common/base/Preconditions.checkState(Z)V'
p212
I1
sS'com/google/common/base/Preconditions.checkArgument(ZLjava/lang/Object;)V:com/google/common/base/Preconditions.checkArgument(ZLjava/lang/Object;)V:com/google/common/base/Preconditions.checkArgument(ZLjava/lang/Object;)V:com/google/common/base/Preconditions.checkArgument(ZLjava/lang/Object;)V:com/google/javascript/rhino/Node.getProp(I)Ljava/lang/Object;:com/google/javascript/rhino/Node.lookupProperty(I)Lcom/google/javascript/rhino/Node$PropListItem;'
p213
I1
sS'com/google/common/base/Preconditions.checkArgument(ZLjava/lang/Object;)V:com/google/common/base/Preconditions.checkArgument(ZLjava/lang/Object;)V:com/google/common/base/Preconditions.checkArgument(ZLjava/lang/Object;)V:com/google/common/base/Preconditions.checkArgument(ZLjava/lang/Object;)V:com/google/javascript/rhino/Node.removeProp(I)V:com/google/javascript/rhino/Node.removeProp(Lcom/google/javascript/rhino/Node$PropListItem;I)Lcom/google/javascript/rhino/Node$PropListItem;'
p214
I1
sS'com/google/common/base/Preconditions.checkArgument(ZLjava/lang/Object;)V:com/google/common/base/Preconditions.checkArgument(ZLjava/lang/Object;)V:com/google/common/base/Preconditions.checkArgument(ZLjava/lang/Object;)V:com/google/common/base/Preconditions.checkArgument(ZLjava/lang/Object;)V:com/google/javascript/rhino/Node.getType()I'
p215
I3
sS'com/google/common/base/Preconditions.checkArgument(ZLjava/lang/Object;)V:com/google/common/base/Preconditions.checkArgument(ZLjava/lang/Object;)V:com/google/common/base/Preconditions.checkArgument(ZLjava/lang/Object;)V:com/google/common/base/Preconditions.checkArgument(ZLjava/lang/Object;)V:com/google/common/base/Preconditions.checkState(Z)V:com/google/common/base/Preconditions.checkState(Z)V:com/google/common/base/Preconditions.checkState(ZLjava/lang/Object;)V:com/google/common/base/Preconditions.checkState(ZLjava/lang/Object;)V:com/google/common/base/Preconditions.checkState(ZLjava/lang/Object;)V:com/google/javascript/rhino/Node.getIntProp(I)I'
p216
I7
sS'com/google/common/base/Preconditions.checkArgument(ZLjava/lang/Object;)V:com/google/common/base/Preconditions.checkArgument(ZLjava/lang/Object;)V:com/google/common/base/Preconditions.checkArgument(ZLjava/lang/Object;)V:com/google/common/base/Preconditions.checkArgument(ZLjava/lang/Object;)V:com/google/common/base/Preconditions.checkState(Z)V:com/google/common/base/Preconditions.checkState(Z)V:com/google/common/base/Preconditions.checkState(ZLjava/lang/Object;)V:com/google/common/base/Preconditions.checkState(ZLjava/lang/Object;)V:com/google/javascript/rhino/Node.createProp(IILcom/google/javascript/rhino/Node$PropListItem;)Lcom/google/javascript/rhino/Node$PropListItem;:com/google/javascript/rhino/Node$IntPropListItem.<init>(IILcom/google/javascript/rhino/Node$PropListItem;)V:com/google/javascript/rhino/Node$AbstractPropListItem.<init>(ILcom/google/javascript/rhino/Node$PropListItem;)V:java/lang/Object.<init>()V'
p217
I2
sS'com/google/common/base/Preconditions.checkArgument(ZLjava/lang/Object;)V:com/google/common/base/Preconditions.checkArgument(ZLjava/lang/Object;)V:com/google/common/base/Preconditions.checkArgument(ZLjava/lang/Object;)V:com/google/common/base/Preconditions.checkArgument(ZLjava/lang/Object;)V:com/google/javascript/rhino/Node.isEquivalentTo(Lcom/google/javascript/rhino/Node;ZZZ)Z:com/google/javascript/rhino/Node.isEquivalentTo(Lcom/google/javascript/rhino/Node;ZZZ)Z:com/google/javascript/rhino/JSDocInfo.areEquivalent(Lcom/google/javascript/rhino/JSDocInfo;Lcom/google/javascript/rhino/JSDocInfo;)Z'
p218
I1
sS'com/google/common/base/Preconditions.checkArgument(ZLjava/lang/Object;)V:com/google/common/base/Preconditions.checkArgument(ZLjava/lang/Object;)V:com/google/common/base/Preconditions.checkArgument(ZLjava/lang/Object;)V:com/google/common/base/Preconditions.checkArgument(ZLjava/lang/Object;)V:com/google/javascript/rhino/Node.isEquivalentTo(Lcom/google/javascript/rhino/Node;ZZZ)Z:com/google/javascript/rhino/Node.isEquivalentTo(Lcom/google/javascript/rhino/Node;ZZZ)Z'
p219
I2
sS'com/google/common/base/Preconditions.checkArgument(ZLjava/lang/Object;)V:com/google/common/base/Preconditions.checkArgument(ZLjava/lang/Object;)V:com/google/common/base/Preconditions.checkArgument(ZLjava/lang/Object;)V:com/google/common/base/Preconditions.checkArgument(ZLjava/lang/Object;)V:com/google/javascript/rhino/Node.isEquivalentTo(Lcom/google/javascript/rhino/Node;ZZZ)Z'
p220
I4
sS'com/google/common/base/Preconditions.checkArgument(ZLjava/lang/Object;)V:com/google/common/base/Preconditions.checkArgument(ZLjava/lang/Object;)V:com/google/common/base/Preconditions.checkArgument(ZLjava/lang/Object;)V:com/google/common/base/Preconditions.checkArgument(ZLjava/lang/Object;)V:com/google/common/base/Preconditions.checkState(Z)V:com/google/common/base/Preconditions.checkState(Z)V:com/google/common/base/Preconditions.checkState(ZLjava/lang/Object;)V:com/google/common/base/Preconditions.checkState(ZLjava/lang/Object;)V:com/google/javascript/rhino/Node.removeProp(I)V:com/google/javascript/rhino/Node.removeProp(Lcom/google/javascript/rhino/Node$PropListItem;I)Lcom/google/javascript/rhino/Node$PropListItem;'
p221
I2
sS'com/google/common/base/Preconditions.checkArgument(ZLjava/lang/Object;)V:com/google/common/base/Preconditions.checkArgument(ZLjava/lang/Object;)V:com/google/common/base/Preconditions.checkArgument(ZLjava/lang/Object;)V:com/google/common/base/Preconditions.checkArgument(ZLjava/lang/Object;)V:com/google/javascript/rhino/Node.checkTreeEqualsImpl(Lcom/google/javascript/rhino/Node;)Lcom/google/javascript/rhino/Node$NodeMismatch;:com/google/javascript/rhino/Node.checkTreeEqualsImpl(Lcom/google/javascript/rhino/Node;Z)Lcom/google/javascript/rhino/Node$NodeMismatch;:com/google/javascript/rhino/Node.isEquivalentTo(Lcom/google/javascript/rhino/Node;ZZZ)Z'
p222
I2
sS'com/google/common/base/Preconditions.checkArgument(ZLjava/lang/Object;)V:com/google/common/base/Preconditions.checkArgument(ZLjava/lang/Object;)V:com/google/common/base/Preconditions.checkArgument(ZLjava/lang/Object;)V:com/google/common/base/Preconditions.checkArgument(ZLjava/lang/Object;)V:com/google/javascript/rhino/Node.checkTreeEqualsImpl(Lcom/google/javascript/rhino/Node;Z)Lcom/google/javascript/rhino/Node$NodeMismatch;:com/google/javascript/rhino/Node.isEquivalentTo(Lcom/google/javascript/rhino/Node;ZZZ)Z:com/google/javascript/rhino/Node.getIntProp(I)I:com/google/javascript/rhino/Node$PropListItem.getIntValue()I'
p223
I1
sS'com/google/common/base/Preconditions.checkArgument(ZLjava/lang/Object;)V:com/google/common/base/Preconditions.checkArgument(ZLjava/lang/Object;)V:com/google/common/base/Preconditions.checkArgument(ZLjava/lang/Object;)V:com/google/common/base/Preconditions.checkArgument(ZLjava/lang/Object;)V:com/google/javascript/rhino/Node.createProp(IILcom/google/javascript/rhino/Node$PropListItem;)Lcom/google/javascript/rhino/Node$PropListItem;:com/google/javascript/rhino/Node$IntPropListItem.<init>(IILcom/google/javascript/rhino/Node$PropListItem;)V:com/google/javascript/rhino/Node$AbstractPropListItem.<init>(ILcom/google/javascript/rhino/Node$PropListItem;)V:java/lang/Object.<init>()V'
p224
I1
sS'com/google/common/base/Preconditions.checkArgument(ZLjava/lang/Object;)V:com/google/common/base/Preconditions.checkArgument(ZLjava/lang/Object;)V:com/google/common/base/Preconditions.checkArgument(ZLjava/lang/Object;)V:com/google/common/base/Preconditions.checkArgument(ZLjava/lang/Object;)V:com/google/javascript/rhino/Node.createProp(IILcom/google/javascript/rhino/Node$PropListItem;)Lcom/google/javascript/rhino/Node$PropListItem;:com/google/javascript/rhino/Node$IntPropListItem.<init>(IILcom/google/javascript/rhino/Node$PropListItem;)V:com/google/javascript/rhino/Node$AbstractPropListItem.<init>(ILcom/google/javascript/rhino/Node$PropListItem;)V'
p225
I1
sS'com/google/common/base/Preconditions.checkArgument(ZLjava/lang/Object;)V:com/google/common/base/Preconditions.checkArgument(ZLjava/lang/Object;)V:com/google/common/base/Preconditions.checkArgument(ZLjava/lang/Object;)V:com/google/common/base/Preconditions.checkArgument(ZLjava/lang/Object;)V:com/google/javascript/rhino/Node.getJSDocInfo()Lcom/google/javascript/rhino/JSDocInfo;:com/google/javascript/rhino/Node.getProp(I)Ljava/lang/Object;:com/google/javascript/rhino/Node.lookupProperty(I)Lcom/google/javascript/rhino/Node$PropListItem;:com/google/javascript/rhino/Node$PropListItem.getType()I'
p226
I1
sS'com/google/common/base/Preconditions.checkArgument(ZLjava/lang/Object;)V:com/google/common/base/Preconditions.checkArgument(ZLjava/lang/Object;)V:com/google/common/base/Preconditions.checkArgument(ZLjava/lang/Object;)V:com/google/common/base/Preconditions.checkArgument(ZLjava/lang/Object;)V:com/google/javascript/rhino/Node.putBooleanProp(IZ)V:com/google/javascript/rhino/Node.putIntProp(II)V:com/google/javascript/rhino/Node.removeProp(I)V'
p227
I2
sS'com/google/common/base/Preconditions.checkArgument(ZLjava/lang/Object;)V:com/google/common/base/Preconditions.checkArgument(ZLjava/lang/Object;)V:com/google/common/base/Preconditions.checkArgument(ZLjava/lang/Object;)V:com/google/common/base/Preconditions.checkArgument(ZLjava/lang/Object;)V:com/google/javascript/rhino/Node.checkTreeEqualsImpl(Lcom/google/javascript/rhino/Node;Z)Lcom/google/javascript/rhino/Node$NodeMismatch;:com/google/javascript/rhino/Node.isEquivalentTo(Lcom/google/javascript/rhino/Node;ZZZ)Z:java/lang/Object.getClass()Ljava/lang/Class;'
p228
I2
sS'com/google/common/base/Preconditions.checkArgument(ZLjava/lang/Object;)V:com/google/common/base/Preconditions.checkArgument(ZLjava/lang/Object;)V:com/google/common/base/Preconditions.checkArgument(ZLjava/lang/Object;)V:com/google/common/base/Preconditions.checkArgument(ZLjava/lang/Object;)V:com/google/common/base/Preconditions.checkState(Z)V:com/google/javascript/rhino/Node.newString(Ljava/lang/String;)Lcom/google/javascript/rhino/Node;'
p229
I1
sS'com/google/common/base/Preconditions.checkArgument(ZLjava/lang/Object;)V:com/google/common/base/Preconditions.checkArgument(ZLjava/lang/Object;)V:com/google/common/base/Preconditions.checkArgument(ZLjava/lang/Object;)V:com/google/common/base/Preconditions.checkArgument(ZLjava/lang/Object;)V:com/google/javascript/rhino/Node.checkTreeEqualsImpl(Lcom/google/javascript/rhino/Node;Z)Lcom/google/javascript/rhino/Node$NodeMismatch;:com/google/javascript/rhino/Node.isEquivalentTo(Lcom/google/javascript/rhino/Node;ZZZ)Z:com/google/javascript/rhino/Node.getType()I'
p230
I1
sS'com/google/common/base/Preconditions.checkArgument(ZLjava/lang/Object;)V:com/google/common/base/Preconditions.checkArgument(ZLjava/lang/Object;)V:com/google/common/base/Preconditions.checkArgument(ZLjava/lang/Object;)V:com/google/common/base/Preconditions.checkArgument(ZLjava/lang/Object;)V:com/google/javascript/rhino/Node.checkTreeEqualsImpl(Lcom/google/javascript/rhino/Node;)Lcom/google/javascript/rhino/Node$NodeMismatch;:com/google/javascript/rhino/Node.checkTreeEqualsImpl(Lcom/google/javascript/rhino/Node;Z)Lcom/google/javascript/rhino/Node$NodeMismatch;:com/google/javascript/rhino/Node.isEquivalentTo(Lcom/google/javascript/rhino/Node;ZZZ)Z:com/google/javascript/rhino/Node.getDeclaredTypeExpression()Lcom/google/javascript/rhino/Node$TypeDeclarationNode;:com/google/javascript/rhino/Node.getProp(I)Ljava/lang/Object;:com/google/javascript/rhino/Node.lookupProperty(I)Lcom/google/javascript/rhino/Node$PropListItem;'
p231
I2
sS'com/google/common/base/Preconditions.checkArgument(ZLjava/lang/Object;)V:com/google/common/base/Preconditions.checkArgument(ZLjava/lang/Object;)V:com/google/common/base/Preconditions.checkArgument(ZLjava/lang/Object;)V:com/google/common/base/Preconditions.checkArgument(ZLjava/lang/Object;)V:com/google/common/base/Preconditions.checkState(Z)V:com/google/common/base/Preconditions.checkState(Z)V:com/google/common/base/Preconditions.checkState(ZLjava/lang/Object;)V:com/google/common/base/Preconditions.checkState(ZLjava/lang/Object;)V:com/google/javascript/rhino/Node.removeProp(I)V:com/google/javascript/rhino/Node.removeProp(Lcom/google/javascript/rhino/Node$PropListItem;I)Lcom/google/javascript/rhino/Node$PropListItem;:com/google/javascript/rhino/Node.removeProp(Lcom/google/javascript/rhino/Node$PropListItem;I)Lcom/google/javascript/rhino/Node$PropListItem;'
p232
I1
sS'com/google/common/base/Preconditions.checkArgument(ZLjava/lang/Object;)V:com/google/common/base/Preconditions.checkArgument(ZLjava/lang/Object;)V:com/google/common/base/Preconditions.checkArgument(ZLjava/lang/Object;)V:com/google/common/base/Preconditions.checkArgument(ZLjava/lang/Object;)V:com/google/common/base/Preconditions.checkState(Z)V:com/google/common/base/Preconditions.checkState(Z)V:com/google/common/base/Preconditions.checkState(ZLjava/lang/Object;)V:com/google/common/base/Preconditions.checkState(ZLjava/lang/Object;)V:com/google/common/base/Preconditions.checkState(ZLjava/lang/Object;)V:com/google/common/base/Preconditions.checkArgument(ZLjava/lang/Object;)V:com/google/common/base/Preconditions.checkArgument(ZLjava/lang/Object;)V:com/google/common/base/Preconditions.checkArgument(ZLjava/lang/Object;)V:com/google/common/base/Preconditions.checkArgument(ZLjava/lang/Object;)V:com/google/javascript/rhino/Node.getStaticSourceFile()Lcom/google/javascript/rhino/StaticSourceFile;:com/google/javascript/rhino/Node.getProp(I)Ljava/lang/Object;:com/google/javascript/rhino/Node.lookupProperty(I)Lcom/google/javascript/rhino/Node$PropListItem;:com/google/javascript/rhino/Node$PropListItem.getType()I'
p233
I1
sS'com/google/common/base/Preconditions.checkArgument(ZLjava/lang/Object;)V:com/google/common/base/Preconditions.checkArgument(ZLjava/lang/Object;)V:com/google/common/base/Preconditions.checkArgument(ZLjava/lang/Object;)V:com/google/common/base/Preconditions.checkArgument(ZLjava/lang/Object;)V:com/google/javascript/rhino/Node.createProp(IILcom/google/javascript/rhino/Node$PropListItem;)Lcom/google/javascript/rhino/Node$PropListItem;:com/google/javascript/rhino/Node$IntPropListItem.<init>(IILcom/google/javascript/rhino/Node$PropListItem;)V'
p234
I1
sS'com/google/common/base/Preconditions.checkArgument(ZLjava/lang/Object;)V:java/lang/Object.<init>()V'
p235
I2
sS'com/google/common/base/Preconditions.checkArgument(ZLjava/lang/Object;)V:com/google/common/base/Preconditions.checkArgument(ZLjava/lang/Object;)V:com/google/common/base/Preconditions.checkArgument(ZLjava/lang/Object;)V:com/google/common/base/Preconditions.checkArgument(ZLjava/lang/Object;)V:com/google/common/base/Preconditions.checkState(Z)V:com/google/common/base/Preconditions.checkState(Z)V:com/google/common/base/Preconditions.checkState(ZLjava/lang/Object;)V:com/google/common/base/Preconditions.checkState(ZLjava/lang/Object;)V:com/google/common/base/Preconditions.checkState(ZLjava/lang/Object;)V:com/google/common/base/Preconditions.checkArgument(ZLjava/lang/Object;)V:com/google/common/base/Preconditions.checkArgument(ZLjava/lang/Object;)V:com/google/common/base/Preconditions.checkArgument(ZLjava/lang/Object;)V:com/google/common/base/Preconditions.checkArgument(ZLjava/lang/Object;)V:com/google/javascript/rhino/Node.newString(Ljava/lang/String;)Lcom/google/javascript/rhino/Node;'
p236
I1
sS'com/google/common/base/Preconditions.checkArgument(ZLjava/lang/Object;)V:com/google/common/base/Preconditions.checkArgument(ZLjava/lang/Object;)V:com/google/common/base/Preconditions.checkArgument(ZLjava/lang/Object;)V:com/google/common/base/Preconditions.checkArgument(ZLjava/lang/Object;)V:com/google/javascript/rhino/Node.checkTreeEqualsImpl(Lcom/google/javascript/rhino/Node;)Lcom/google/javascript/rhino/Node$NodeMismatch;'
p237
I2
sS'com/google/common/base/Preconditions.checkArgument(ZLjava/lang/Object;)V:com/google/common/base/Preconditions.checkArgument(ZLjava/lang/Object;)V:com/google/common/base/Preconditions.checkArgument(ZLjava/lang/Object;)V:com/google/common/base/Preconditions.checkArgument(ZLjava/lang/Object;)V:com/google/common/base/Preconditions.checkState(Z)V:com/google/common/base/Preconditions.checkState(Z)V:com/google/javascript/rhino/Node.putIntProp(II)V:com/google/javascript/rhino/Node.createProp(IILcom/google/javascript/rhino/Node$PropListItem;)Lcom/google/javascript/rhino/Node$PropListItem;'
p238
I1
sS'com/google/common/base/Preconditions.checkArgument(ZLjava/lang/Object;)V:com/google/common/base/Preconditions.checkArgument(ZLjava/lang/Object;)V:com/google/common/base/Preconditions.checkArgument(ZLjava/lang/Object;)V:com/google/common/base/Preconditions.checkArgument(ZLjava/lang/Object;)V:com/google/common/base/Preconditions.checkState(Z)V:com/google/common/base/Preconditions.checkState(Z)V:com/google/javascript/rhino/Node.getIntProp(I)I:com/google/javascript/rhino/Node.lookupProperty(I)Lcom/google/javascript/rhino/Node$PropListItem;:com/google/javascript/rhino/Node$PropListItem.getType()I'
p239
I2
sS'com/google/common/base/Preconditions.checkArgument(ZLjava/lang/Object;)V:com/google/common/base/Preconditions.checkArgument(ZLjava/lang/Object;)V:com/google/common/base/Preconditions.checkArgument(ZLjava/lang/Object;)V:com/google/common/base/Preconditions.checkArgument(ZLjava/lang/Object;)V:com/google/javascript/rhino/Node.toStringTree()Ljava/lang/String;:com/google/javascript/rhino/Node.toStringTreeImpl()Ljava/lang/String;:com/google/javascript/rhino/Node.appendStringTree(Ljava/lang/Appendable;)V:com/google/javascript/rhino/Node.toStringTreeHelper(Lcom/google/javascript/rhino/Node;ILjava/lang/Appendable;)V:com/google/javascript/rhino/Node.toString()Ljava/lang/String;:com/google/javascript/rhino/Node.toString(ZZZ)Ljava/lang/String;'
p240
I4
sS'com/google/common/base/Preconditions.checkArgument(ZLjava/lang/Object;)V:com/google/common/base/Preconditions.checkArgument(ZLjava/lang/Object;)V:com/google/common/base/Preconditions.checkArgument(ZLjava/lang/Object;)V:com/google/common/base/Preconditions.checkArgument(ZLjava/lang/Object;)V:com/google/javascript/rhino/JSDocInfo.setLicense(Ljava/lang/String;)V:com/google/javascript/rhino/JSDocInfo$LazilyInitializedInfo.<init>()V:java/lang/Object.<init>()V'
p241
I1
sS'com/google/common/base/Preconditions.checkArgument(ZLjava/lang/Object;)V:com/google/common/base/Preconditions.checkArgument(ZLjava/lang/Object;)V:com/google/common/base/Preconditions.checkArgument(ZLjava/lang/Object;)V:com/google/common/base/Preconditions.checkArgument(ZLjava/lang/Object;)V:com/google/javascript/rhino/Node.isEquivalentTo(Lcom/google/javascript/rhino/Node;ZZZ)Z:com/google/javascript/rhino/Node.isEquivalentTo(Lcom/google/javascript/rhino/Node;ZZZ)Z:com/google/javascript/rhino/Node.getIntProp(I)I'
p242
I2
sS'com/google/common/base/Preconditions.checkArgument(ZLjava/lang/Object;)V:com/google/common/base/Preconditions.checkArgument(ZLjava/lang/Object;)V:com/google/common/base/Preconditions.checkArgument(ZLjava/lang/Object;)V:com/google/common/base/Preconditions.checkArgument(ZLjava/lang/Object;)V:com/google/javascript/rhino/Node.checkTreeEqualsImpl(Lcom/google/javascript/rhino/Node;Z)Lcom/google/javascript/rhino/Node$NodeMismatch;:com/google/javascript/rhino/Node.isEquivalentTo(Lcom/google/javascript/rhino/Node;ZZZ)Z:com/google/javascript/rhino/Node.getChildCount()I'
p243
I2
sS'com/google/common/base/Preconditions.checkArgument(ZLjava/lang/Object;)V:com/google/common/base/Preconditions.checkArgument(ZLjava/lang/Object;)V:com/google/common/base/Preconditions.checkArgument(ZLjava/lang/Object;)V:com/google/common/base/Preconditions.checkArgument(ZLjava/lang/Object;)V:com/google/common/base/Preconditions.checkState(Z)V:com/google/javascript/rhino/Node.<init>(I)V:java/lang/Object.<init>()V'
p244
I1
sS'com/google/common/base/Preconditions.checkArgument(ZLjava/lang/Object;)V:com/google/common/base/Preconditions.checkArgument(ZLjava/lang/Object;)V:com/google/common/base/Preconditions.checkArgument(ZLjava/lang/Object;)V:com/google/common/base/Preconditions.checkArgument(ZLjava/lang/Object;)V:com/google/common/base/Preconditions.checkState(Z)V:com/google/common/base/Preconditions.checkState(Z)V:com/google/common/base/Preconditions.checkState(ZLjava/lang/Object;)V:com/google/javascript/rhino/Node.createProp(IILcom/google/javascript/rhino/Node$PropListItem;)Lcom/google/javascript/rhino/Node$PropListItem;:com/google/javascript/rhino/Node$IntPropListItem.<init>(IILcom/google/javascript/rhino/Node$PropListItem;)V:com/google/javascript/rhino/Node$AbstractPropListItem.<init>(ILcom/google/javascript/rhino/Node$PropListItem;)V'
p245
I1
sS'com/google/common/base/Preconditions.checkArgument(ZLjava/lang/Object;)V:com/google/common/base/Preconditions.checkArgument(ZLjava/lang/Object;)V:com/google/common/base/Preconditions.checkArgument(ZLjava/lang/Object;)V:com/google/common/base/Preconditions.checkArgument(ZLjava/lang/Object;)V:com/google/javascript/rhino/Node.toStringTree()Ljava/lang/String;:com/google/javascript/rhino/Node.toStringTreeImpl()Ljava/lang/String;:com/google/javascript/rhino/Node.appendStringTree(Ljava/lang/Appendable;)V:com/google/javascript/rhino/Node.toStringTreeHelper(Lcom/google/javascript/rhino/Node;ILjava/lang/Appendable;)V:java/lang/Appendable.append(Ljava/lang/CharSequence;)Ljava/lang/Appendable;'
p246
I4
sS'com/google/common/base/Preconditions.checkArgument(ZLjava/lang/Object;)V:com/google/common/base/Preconditions.checkArgument(ZLjava/lang/Object;)V:com/google/common/base/Preconditions.checkArgument(ZLjava/lang/Object;)V:com/google/common/base/Preconditions.checkArgument(ZLjava/lang/Object;)V:com/google/javascript/rhino/JSDocInfo.getLicense()Ljava/lang/String;'
p247
I2
sS'com/google/common/base/Preconditions.checkArgument(ZLjava/lang/Object;)V:com/google/common/base/Preconditions.checkArgument(ZLjava/lang/Object;)V:com/google/common/base/Preconditions.checkArgument(ZLjava/lang/Object;)V:com/google/common/base/Preconditions.checkArgument(ZLjava/lang/Object;)V:com/google/javascript/rhino/Node.checkTreeEqualsImpl(Lcom/google/javascript/rhino/Node;Z)Lcom/google/javascript/rhino/Node$NodeMismatch;:com/google/javascript/rhino/Node.isEquivalentTo(Lcom/google/javascript/rhino/Node;ZZZ)Z:com/google/javascript/rhino/Node.getDeclaredTypeExpression()Lcom/google/javascript/rhino/Node$TypeDeclarationNode;:com/google/javascript/rhino/Node.getProp(I)Ljava/lang/Object;:com/google/javascript/rhino/Node.lookupProperty(I)Lcom/google/javascript/rhino/Node$PropListItem;:com/google/javascript/rhino/Node$PropListItem.getNext()Lcom/google/javascript/rhino/Node$PropListItem;'
p248
I1
sS'com/google/common/base/Preconditions.checkArgument(ZLjava/lang/Object;)V:com/google/common/base/Preconditions.checkArgument(ZLjava/lang/Object;)V:com/google/common/base/Preconditions.checkArgument(ZLjava/lang/Object;)V:com/google/common/base/Preconditions.checkArgument(ZLjava/lang/Object;)V:com/google/common/base/Preconditions.checkState(Z)V:com/google/common/base/Preconditions.checkState(Z)V:com/google/common/base/Preconditions.checkState(ZLjava/lang/Object;)V:com/google/common/base/Preconditions.checkState(ZLjava/lang/Object;)V:com/google/common/base/Preconditions.checkState(ZLjava/lang/Object;)V:com/google/common/base/Preconditions.checkArgument(ZLjava/lang/Object;)V:com/google/common/base/Preconditions.checkArgument(ZLjava/lang/Object;)V:com/google/common/base/Preconditions.checkArgument(ZLjava/lang/Object;)V:com/google/common/base/Preconditions.checkArgument(ZLjava/lang/Object;)V:com/google/javascript/rhino/Node.getLineno()I:com/google/javascript/rhino/Node.extractLineno(I)I'
p249
I1
sS'com/google/common/base/Preconditions.checkArgument(ZLjava/lang/Object;)V:com/google/common/base/Preconditions.checkArgument(ZLjava/lang/Object;)V:com/google/common/base/Preconditions.checkArgument(ZLjava/lang/Object;)V:com/google/common/base/Preconditions.checkArgument(ZLjava/lang/Object;)V:com/google/common/base/Preconditions.checkState(Z)V:com/google/common/base/Preconditions.checkState(Z)V:com/google/common/base/Preconditions.checkState(ZLjava/lang/Object;)V:com/google/common/base/Preconditions.checkState(ZLjava/lang/Object;)V:com/google/common/base/Preconditions.checkState(ZLjava/lang/Object;)V:com/google/common/base/Preconditions.checkArgument(ZLjava/lang/Object;)V:com/google/common/base/Preconditions.checkArgument(ZLjava/lang/Object;)V:com/google/common/base/Preconditions.checkArgument(ZLjava/lang/Object;)V:com/google/common/base/Preconditions.checkArgument(ZLjava/lang/Object;)V:com/google/javascript/rhino/Node.putProp(ILjava/lang/Object;)V:com/google/javascript/rhino/Node.createProp(ILjava/lang/Object;Lcom/google/javascript/rhino/Node$PropListItem;)Lcom/google/javascript/rhino/Node$PropListItem;'
p250
I1
sS'com/google/common/base/Preconditions.checkArgument(ZLjava/lang/Object;)V:com/google/common/base/Preconditions.checkArgument(ZLjava/lang/Object;)V:com/google/common/base/Preconditions.checkArgument(ZLjava/lang/Object;)V:com/google/common/base/Preconditions.checkArgument(ZLjava/lang/Object;)V:com/google/javascript/rhino/Node.isEquivalentTo(Lcom/google/javascript/rhino/Node;ZZZ)Z:com/google/javascript/rhino/Node.isEquivalentTo(Lcom/google/javascript/rhino/Node;ZZZ)Z:com/google/javascript/rhino/Node.getDeclaredTypeExpression()Lcom/google/javascript/rhino/Node$TypeDeclarationNode;:com/google/javascript/rhino/Node.getProp(I)Ljava/lang/Object;:com/google/javascript/rhino/Node.lookupProperty(I)Lcom/google/javascript/rhino/Node$PropListItem;:com/google/javascript/rhino/Node$PropListItem.getNext()Lcom/google/javascript/rhino/Node$PropListItem;'
p251
I1
sS'com/google/common/base/Preconditions.checkArgument(ZLjava/lang/Object;)V:com/google/common/base/Preconditions.checkArgument(ZLjava/lang/Object;)V:com/google/common/base/Preconditions.checkArgument(ZLjava/lang/Object;)V:com/google/common/base/Preconditions.checkArgument(ZLjava/lang/Object;)V:com/google/common/base/Preconditions.checkState(Z)V:com/google/common/base/Preconditions.checkState(Z)V:com/google/javascript/rhino/Node.getIntProp(I)I'
p252
I3
sS'com/google/common/base/Preconditions.checkArgument(ZLjava/lang/Object;)V:com/google/common/base/Preconditions.checkArgument(ZLjava/lang/Object;)V:com/google/common/base/Preconditions.checkArgument(ZLjava/lang/Object;)V:com/google/common/base/Preconditions.checkArgument(ZLjava/lang/Object;)V:com/google/javascript/rhino/Node.setJSDocInfo(Lcom/google/javascript/rhino/JSDocInfo;)Lcom/google/javascript/rhino/Node;:com/google/javascript/rhino/Node.putProp(ILjava/lang/Object;)V:com/google/javascript/rhino/Node.removeProp(I)V:com/google/javascript/rhino/Node.removeProp(Lcom/google/javascript/rhino/Node$PropListItem;I)Lcom/google/javascript/rhino/Node$PropListItem;:com/google/javascript/rhino/Node$PropListItem.getNext()Lcom/google/javascript/rhino/Node$PropListItem;'
p253
I1
sS'com/google/common/base/Preconditions.checkArgument(ZLjava/lang/Object;)V:com/google/common/base/Preconditions.checkArgument(ZLjava/lang/Object;)V:com/google/common/base/Preconditions.checkArgument(ZLjava/lang/Object;)V:com/google/common/base/Preconditions.checkArgument(ZLjava/lang/Object;)V:com/google/javascript/rhino/Node.toStringTree()Ljava/lang/String;:com/google/javascript/rhino/Node.toStringTreeImpl()Ljava/lang/String;:com/google/javascript/rhino/Node.appendStringTree(Ljava/lang/Appendable;)V:com/google/javascript/rhino/Node.toStringTreeHelper(Lcom/google/javascript/rhino/Node;ILjava/lang/Appendable;)V:com/google/javascript/rhino/Node.toString()Ljava/lang/String;:com/google/javascript/rhino/Node.toString(ZZZ)Ljava/lang/String;:com/google/javascript/rhino/Node.toString(Ljava/lang/StringBuilder;ZZZ)V:java/lang/StringBuilder.append(Ljava/lang/String;)Ljava/lang/StringBuilder;'
p254
I4
sS'com/google/common/base/Preconditions.checkArgument(ZLjava/lang/Object;)V:com/google/common/base/Preconditions.checkArgument(ZLjava/lang/Object;)V:com/google/common/base/Preconditions.checkArgument(ZLjava/lang/Object;)V:com/google/common/base/Preconditions.checkArgument(ZLjava/lang/Object;)V:com/google/javascript/rhino/Node.toStringTree()Ljava/lang/String;:com/google/javascript/rhino/Node.toStringTreeImpl()Ljava/lang/String;:com/google/javascript/rhino/Node.appendStringTree(Ljava/lang/Appendable;)V:com/google/javascript/rhino/Node.toStringTreeHelper(Lcom/google/javascript/rhino/Node;ILjava/lang/Appendable;)V:java/lang/Appendable.append(C)Ljava/lang/Appendable;'
p255
I4
sS'com/google/common/base/Preconditions.checkArgument(ZLjava/lang/Object;)V'
p256
I1
sS'com/google/common/base/Preconditions.checkArgument(ZLjava/lang/Object;)V:com/google/common/base/Preconditions.checkArgument(ZLjava/lang/Object;)V:com/google/common/base/Preconditions.checkArgument(ZLjava/lang/Object;)V:com/google/common/base/Preconditions.checkArgument(ZLjava/lang/Object;)V:com/google/common/base/Preconditions.checkState(Z)V:com/google/common/base/Preconditions.checkState(Z)V:com/google/common/base/Preconditions.checkState(ZLjava/lang/Object;)V:com/google/common/base/Preconditions.checkState(ZLjava/lang/Object;)V:com/google/javascript/rhino/Node.removeProp(I)V'
p257
I2
sS'com/google/common/base/Preconditions.checkArgument(ZLjava/lang/Object;)V:com/google/common/base/Preconditions.checkArgument(ZLjava/lang/Object;)V:com/google/common/base/Preconditions.checkArgument(ZLjava/lang/Object;)V:com/google/common/base/Preconditions.checkArgument(ZLjava/lang/Object;)V:com/google/javascript/rhino/Node.checkTreeEqualsImpl(Lcom/google/javascript/rhino/Node;Z)Lcom/google/javascript/rhino/Node$NodeMismatch;:com/google/javascript/rhino/Node.isEquivalentTo(Lcom/google/javascript/rhino/Node;ZZZ)Z'
p258
I1
sS'com/google/common/base/Preconditions.checkArgument(ZLjava/lang/Object;)V:com/google/common/base/Preconditions.checkArgument(ZLjava/lang/Object;)V:com/google/common/base/Preconditions.checkArgument(ZLjava/lang/Object;)V:com/google/common/base/Preconditions.checkArgument(ZLjava/lang/Object;)V:com/google/common/base/Preconditions.checkState(Z)V:com/google/common/base/Preconditions.checkState(Z)V:com/google/common/base/Preconditions.checkState(ZLjava/lang/Object;)V:com/google/common/base/Preconditions.checkState(ZLjava/lang/Object;)V'
p259
I1
sS'com/google/common/base/Preconditions.checkArgument(ZLjava/lang/Object;)V:com/google/common/base/Preconditions.checkArgument(ZLjava/lang/Object;)V:com/google/common/base/Preconditions.checkArgument(ZLjava/lang/Object;)V:com/google/common/base/Preconditions.checkArgument(ZLjava/lang/Object;)V:com/google/common/base/Preconditions.checkState(Z)V:com/google/common/base/Preconditions.checkState(Z)V:com/google/javascript/rhino/Node.getIntProp(I)I:com/google/javascript/rhino/Node$PropListItem.getIntValue()I'
p260
I2
sS'com/google/common/base/Preconditions.checkArgument(ZLjava/lang/Object;)V:com/google/common/base/Preconditions.checkArgument(ZLjava/lang/Object;)V:com/google/common/base/Preconditions.checkArgument(ZLjava/lang/Object;)V:com/google/common/base/Preconditions.checkArgument(ZLjava/lang/Object;)V:com/google/common/base/Preconditions.checkState(Z)V:com/google/common/base/Preconditions.checkState(Z)V:com/google/common/base/Preconditions.checkState(ZLjava/lang/Object;)V:com/google/javascript/rhino/Node$StringNode.<init>(ILjava/lang/String;)V'
p261
I1
sS'com/google/common/base/Preconditions.checkArgument(ZLjava/lang/Object;)V:com/google/common/base/Preconditions.checkArgument(ZLjava/lang/Object;)V:com/google/common/base/Preconditions.checkArgument(ZLjava/lang/Object;)V:com/google/common/base/Preconditions.checkArgument(ZLjava/lang/Object;)V:com/google/common/base/Preconditions.checkState(Z)V:com/google/common/base/Preconditions.checkState(Z)V:com/google/common/base/Preconditions.checkState(ZLjava/lang/Object;)V:com/google/common/base/Preconditions.checkState(ZLjava/lang/Object;)V:com/google/common/base/Preconditions.checkState(ZLjava/lang/Object;)V:com/google/common/base/Preconditions.checkArgument(ZLjava/lang/Object;)V:com/google/common/base/Preconditions.checkArgument(ZLjava/lang/Object;)V:com/google/common/base/Preconditions.checkArgument(ZLjava/lang/Object;)V:com/google/common/base/Preconditions.checkArgument(ZLjava/lang/Object;)V:com/google/javascript/rhino/Node$StringNode.<init>(ILjava/lang/String;)V:com/google/javascript/rhino/Node.<init>(I)V'
p262
I1
sS'com/google/common/base/Preconditions.checkArgument(ZLjava/lang/Object;)V:com/google/common/base/Preconditions.checkArgument(ZLjava/lang/Object;)V:com/google/common/base/Preconditions.checkArgument(ZLjava/lang/Object;)V:com/google/common/base/Preconditions.checkArgument(ZLjava/lang/Object;)V:com/google/common/base/Preconditions.checkState(Z)V:com/google/common/base/Preconditions.checkState(Z)V:com/google/javascript/rhino/Node.matchesQualifiedName(Ljava/lang/String;I)Z:com/google/javascript/rhino/Node.getType()I'
p263
I7
sS'com/google/common/base/Preconditions.checkArgument(ZLjava/lang/Object;)V:com/google/common/base/Preconditions.checkArgument(ZLjava/lang/Object;)V:com/google/common/base/Preconditions.checkArgument(ZLjava/lang/Object;)V:com/google/common/base/Preconditions.checkArgument(ZLjava/lang/Object;)V:com/google/common/base/Preconditions.checkState(Z)V:com/google/common/base/Preconditions.checkState(Z)V:com/google/common/base/Preconditions.checkState(ZLjava/lang/Object;)V:com/google/common/base/Preconditions.checkState(ZLjava/lang/Object;)V:com/google/common/base/Preconditions.checkState(ZLjava/lang/Object;)V:com/google/javascript/rhino/Node.putIntProp(II)V:com/google/javascript/rhino/Node.removeProp(I)V:com/google/javascript/rhino/Node.removeProp(Lcom/google/javascript/rhino/Node$PropListItem;I)Lcom/google/javascript/rhino/Node$PropListItem;:com/google/javascript/rhino/Node$PropListItem.getType()I'
p264
I1
sS'com/google/common/base/Preconditions.checkArgument(ZLjava/lang/Object;)V:com/google/common/base/Preconditions.checkArgument(ZLjava/lang/Object;)V:com/google/common/base/Preconditions.checkArgument(ZLjava/lang/Object;)V:com/google/common/base/Preconditions.checkArgument(ZLjava/lang/Object;)V:com/google/common/base/Preconditions.checkState(Z)V:com/google/common/base/Preconditions.checkState(Z)V:com/google/common/base/Preconditions.checkState(ZLjava/lang/Object;)V:com/google/common/base/Preconditions.checkState(ZLjava/lang/Object;)V:java/lang/Object.<init>()V'
p265
I1
sS'com/google/common/base/Preconditions.checkArgument(ZLjava/lang/Object;)V:com/google/common/base/Preconditions.checkArgument(ZLjava/lang/Object;)V:com/google/common/base/Preconditions.checkArgument(ZLjava/lang/Object;)V:com/google/common/base/Preconditions.checkArgument(ZLjava/lang/Object;)V:com/google/common/base/Preconditions.checkState(Z)V:com/google/common/base/Preconditions.checkState(Z)V:com/google/common/base/Preconditions.checkState(ZLjava/lang/Object;)V:com/google/common/base/Preconditions.checkState(ZLjava/lang/Object;)V:com/google/common/base/Preconditions.checkState(ZLjava/lang/Object;)V:com/google/common/base/Preconditions.checkArgument(ZLjava/lang/Object;)V:com/google/javascript/rhino/Node$StringNode.<init>(ILjava/lang/String;)V'
p266
I2
sS'com/google/common/base/Preconditions.checkArgument(ZLjava/lang/Object;)V:com/google/common/base/Preconditions.checkArgument(ZLjava/lang/Object;)V:com/google/common/base/Preconditions.checkArgument(ZLjava/lang/Object;)V:com/google/common/base/Preconditions.checkArgument(ZLjava/lang/Object;)V:com/google/common/base/Preconditions.checkState(Z)V:com/google/common/base/Preconditions.checkState(Z)V:com/google/javascript/rhino/Node$StringNode.<init>(ILjava/lang/String;)V:com/google/javascript/rhino/Node.<init>(I)V'
p267
I2
sS'com/google/common/base/Preconditions.checkArgument(ZLjava/lang/Object;)V:com/google/common/base/Preconditions.checkArgument(ZLjava/lang/Object;)V:com/google/common/base/Preconditions.checkArgument(ZLjava/lang/Object;)V:com/google/common/base/Preconditions.checkArgument(ZLjava/lang/Object;)V:com/google/javascript/rhino/Node$StringNode.<init>(ILjava/lang/String;)V'
p268
I4
sS'com/google/common/base/Preconditions.checkArgument(ZLjava/lang/Object;)V:com/google/common/base/Preconditions.checkArgument(ZLjava/lang/Object;)V:com/google/common/base/Preconditions.checkArgument(ZLjava/lang/Object;)V:com/google/common/base/Preconditions.checkArgument(ZLjava/lang/Object;)V:com/google/common/base/Preconditions.checkState(Z)V:com/google/common/base/Preconditions.checkState(Z)V:com/google/common/base/Preconditions.checkState(ZLjava/lang/Object;)V:com/google/common/base/Preconditions.checkState(ZLjava/lang/Object;)V:com/google/common/base/Preconditions.checkState(ZLjava/lang/Object;)V:com/google/common/base/Preconditions.checkArgument(ZLjava/lang/Object;)V:com/google/common/base/Preconditions.checkArgument(ZLjava/lang/Object;)V:com/google/common/base/Preconditions.checkArgument(ZLjava/lang/Object;)V:com/google/common/base/Preconditions.checkArgument(ZLjava/lang/Object;)V:com/google/javascript/rhino/Node.getStaticSourceFile()Lcom/google/javascript/rhino/StaticSourceFile;:com/google/javascript/rhino/Node.getProp(I)Ljava/lang/Object;'
p269
I2
sS'com/google/common/base/Preconditions.checkArgument(ZLjava/lang/Object;)V:com/google/common/base/Preconditions.checkArgument(ZLjava/lang/Object;)V:com/google/common/base/Preconditions.checkArgument(ZLjava/lang/Object;)V:com/google/common/base/Preconditions.checkArgument(ZLjava/lang/Object;)V:com/google/common/base/Preconditions.checkState(Z)V:com/google/common/base/Preconditions.checkState(Z)V:com/google/common/base/Preconditions.checkState(ZLjava/lang/Object;)V:com/google/common/base/Preconditions.checkState(ZLjava/lang/Object;)V:com/google/common/base/Preconditions.checkState(ZLjava/lang/Object;)V:com/google/common/base/Preconditions.checkArgument(ZLjava/lang/Object;)V'
p270
I1
sS'com/google/common/base/Preconditions.checkArgument(ZLjava/lang/Object;)V:com/google/common/base/Preconditions.checkArgument(ZLjava/lang/Object;)V:com/google/common/base/Preconditions.checkArgument(ZLjava/lang/Object;)V:com/google/common/base/Preconditions.checkArgument(ZLjava/lang/Object;)V:com/google/javascript/rhino/Node.toStringTree()Ljava/lang/String;'
p271
I4
sS'com/google/common/base/Preconditions.checkArgument(ZLjava/lang/Object;)V:com/google/common/base/Preconditions.checkArgument(ZLjava/lang/Object;)V:com/google/common/base/Preconditions.checkArgument(ZLjava/lang/Object;)V:com/google/common/base/Preconditions.checkArgument(ZLjava/lang/Object;)V:com/google/common/base/Preconditions.checkState(Z)V:com/google/common/base/Preconditions.checkState(Z)V:com/google/common/base/Preconditions.checkState(ZLjava/lang/Object;)V:com/google/common/base/Preconditions.checkState(ZLjava/lang/Object;)V:com/google/common/base/Preconditions.checkState(ZLjava/lang/Object;)V:com/google/common/base/Preconditions.checkArgument(ZLjava/lang/Object;)V:com/google/common/base/Preconditions.checkArgument(ZLjava/lang/Object;)V:com/google/common/base/Preconditions.checkArgument(ZLjava/lang/Object;)V:com/google/common/base/Preconditions.checkArgument(ZLjava/lang/Object;)V:com/google/javascript/rhino/Node.newString(Ljava/lang/String;)Lcom/google/javascript/rhino/Node;:com/google/javascript/rhino/Node$StringNode.<init>(ILjava/lang/String;)V:com/google/javascript/rhino/Node.<init>(I)V'
p272
I1
sS'com/google/common/base/Preconditions.checkArgument(ZLjava/lang/Object;)V:com/google/common/base/Preconditions.checkArgument(ZLjava/lang/Object;)V:com/google/common/base/Preconditions.checkArgument(ZLjava/lang/Object;)V:com/google/common/base/Preconditions.checkArgument(ZLjava/lang/Object;)V:com/google/common/base/Preconditions.checkState(Z)V:com/google/common/base/Preconditions.checkState(Z)V:com/google/common/base/Preconditions.checkState(ZLjava/lang/Object;)V:com/google/common/base/Preconditions.checkState(ZLjava/lang/Object;)V:com/google/common/base/Preconditions.checkState(ZLjava/lang/Object;)V:com/google/common/base/Preconditions.checkArgument(ZLjava/lang/Object;)V:com/google/common/base/Preconditions.checkArgument(ZLjava/lang/Object;)V:com/google/common/base/Preconditions.checkArgument(ZLjava/lang/Object;)V:com/google/common/base/Preconditions.checkArgument(ZLjava/lang/Object;)V:com/google/common/base/Preconditions.checkState(Z)V'
p273
I1
sS'com/google/common/base/Preconditions.checkArgument(ZLjava/lang/Object;)V:com/google/common/base/Preconditions.checkArgument(ZLjava/lang/Object;)V:com/google/common/base/Preconditions.checkArgument(ZLjava/lang/Object;)V:com/google/common/base/Preconditions.checkArgument(ZLjava/lang/Object;)V:com/google/common/base/Preconditions.checkState(Z)V:com/google/common/base/Preconditions.checkState(Z)V'
p274
I1
sS'com/google/common/base/Preconditions.checkArgument(ZLjava/lang/Object;)V:com/google/common/base/Preconditions.checkArgument(ZLjava/lang/Object;)V:com/google/common/base/Preconditions.checkArgument(ZLjava/lang/Object;)V:com/google/common/base/Preconditions.checkArgument(ZLjava/lang/Object;)V:com/google/common/base/Preconditions.checkState(Z)V:com/google/common/base/Preconditions.checkState(Z)V:com/google/common/base/Preconditions.checkState(ZLjava/lang/Object;)V:com/google/common/base/Preconditions.checkState(ZLjava/lang/Object;)V:com/google/common/base/Preconditions.checkState(ZLjava/lang/Object;)V:com/google/common/base/Preconditions.checkArgument(ZLjava/lang/Object;)V:com/google/common/base/Preconditions.checkArgument(ZLjava/lang/Object;)V:com/google/common/base/Preconditions.checkArgument(ZLjava/lang/Object;)V:com/google/common/base/Preconditions.checkArgument(ZLjava/lang/Object;)V:com/google/javascript/rhino/Node.newString(Ljava/lang/String;)Lcom/google/javascript/rhino/Node;:com/google/javascript/rhino/Node$StringNode.<init>(ILjava/lang/String;)V'
p275
I1
sS'com/google/common/base/Preconditions.checkArgument(ZLjava/lang/Object;)V:com/google/common/base/Preconditions.checkArgument(ZLjava/lang/Object;)V:com/google/common/base/Preconditions.checkArgument(ZLjava/lang/Object;)V:com/google/common/base/Preconditions.checkArgument(ZLjava/lang/Object;)V:com/google/common/base/Preconditions.checkState(Z)V:com/google/common/base/Preconditions.checkState(Z)V:com/google/common/base/Preconditions.checkState(ZLjava/lang/Object;)V:com/google/common/base/Preconditions.checkState(ZLjava/lang/Object;)V:com/google/common/base/Preconditions.checkState(ZLjava/lang/Object;)V:com/google/common/base/Preconditions.checkArgument(ZLjava/lang/Object;)V:com/google/common/base/Preconditions.checkArgument(ZLjava/lang/Object;)V:com/google/common/base/Preconditions.checkArgument(ZLjava/lang/Object;)V:java/lang/Object.<init>()V'
p276
I1
sS'com/google/common/base/Preconditions.checkArgument(ZLjava/lang/Object;)V:com/google/common/base/Preconditions.checkArgument(ZLjava/lang/Object;)V:com/google/common/base/Preconditions.checkArgument(ZLjava/lang/Object;)V:com/google/common/base/Preconditions.checkArgument(ZLjava/lang/Object;)V:com/google/javascript/rhino/Node.setJSDocInfo(Lcom/google/javascript/rhino/JSDocInfo;)Lcom/google/javascript/rhino/Node;:com/google/javascript/rhino/Node.putProp(ILjava/lang/Object;)V:com/google/javascript/rhino/Node.removeProp(I)V:com/google/javascript/rhino/Node.removeProp(Lcom/google/javascript/rhino/Node$PropListItem;I)Lcom/google/javascript/rhino/Node$PropListItem;'
p277
I2
sS'com/google/common/base/Preconditions.checkArgument(ZLjava/lang/Object;)V:com/google/common/base/Preconditions.checkArgument(ZLjava/lang/Object;)V:com/google/common/base/Preconditions.checkArgument(ZLjava/lang/Object;)V:com/google/common/base/Preconditions.checkArgument(ZLjava/lang/Object;)V:com/google/common/base/Preconditions.checkState(Z)V:com/google/common/base/Preconditions.checkState(Z)V:com/google/common/base/Preconditions.checkState(ZLjava/lang/Object;)V:com/google/common/base/Preconditions.checkState(ZLjava/lang/Object;)V:com/google/common/base/Preconditions.checkState(ZLjava/lang/Object;)V:com/google/javascript/rhino/Node$PropListItem.getType()I'
p278
I1
sS'com/google/common/base/Preconditions.checkArgument(ZLjava/lang/Object;)V:com/google/common/base/Preconditions.checkArgument(ZLjava/lang/Object;)V:com/google/common/base/Preconditions.checkArgument(ZLjava/lang/Object;)V:com/google/common/base/Preconditions.checkArgument(ZLjava/lang/Object;)V:com/google/javascript/rhino/Node.putBooleanProp(IZ)V'
p279
I2
sS'com/google/common/base/Preconditions.checkArgument(ZLjava/lang/Object;)V:com/google/common/base/Preconditions.checkArgument(ZLjava/lang/Object;)V:com/google/common/base/Preconditions.checkArgument(ZLjava/lang/Object;)V:com/google/common/base/Preconditions.checkArgument(ZLjava/lang/Object;)V:com/google/javascript/rhino/Node.newString(ILjava/lang/String;)Lcom/google/javascript/rhino/Node;:com/google/javascript/rhino/Node$StringNode.<init>(ILjava/lang/String;)V:com/google/javascript/rhino/Node.<init>(I)V'
p280
I4
sS'com/google/common/base/Preconditions.checkArgument(ZLjava/lang/Object;)V:com/google/common/base/Preconditions.checkArgument(ZLjava/lang/Object;)V:com/google/common/base/Preconditions.checkArgument(ZLjava/lang/Object;)V:com/google/common/base/Preconditions.checkArgument(ZLjava/lang/Object;)V:com/google/javascript/rhino/Node.setJSDocInfo(Lcom/google/javascript/rhino/JSDocInfo;)Lcom/google/javascript/rhino/Node;:com/google/javascript/rhino/Node.putProp(ILjava/lang/Object;)V:com/google/javascript/rhino/Node.createProp(ILjava/lang/Object;Lcom/google/javascript/rhino/Node$PropListItem;)Lcom/google/javascript/rhino/Node$PropListItem;:com/google/javascript/rhino/Node$ObjectPropListItem.<init>(ILjava/lang/Object;Lcom/google/javascript/rhino/Node$PropListItem;)V:com/google/javascript/rhino/Node$AbstractPropListItem.<init>(ILcom/google/javascript/rhino/Node$PropListItem;)V:java/lang/Object.<init>()V'
p281
I2
sS'com/google/common/base/Preconditions.checkArgument(ZLjava/lang/Object;)V:com/google/common/base/Preconditions.checkArgument(ZLjava/lang/Object;)V:com/google/common/base/Preconditions.checkArgument(ZLjava/lang/Object;)V:com/google/common/base/Preconditions.checkArgument(ZLjava/lang/Object;)V:com/google/common/base/Preconditions.checkState(Z)V:com/google/common/base/Preconditions.checkState(Z)V:com/google/common/base/Preconditions.checkState(ZLjava/lang/Object;)V:com/google/javascript/rhino/Node.removeProp(I)V'
p282
I1
sS'com/google/common/base/Preconditions.checkArgument(ZLjava/lang/Object;)V:com/google/common/base/Preconditions.checkArgument(ZLjava/lang/Object;)V:com/google/common/base/Preconditions.checkArgument(ZLjava/lang/Object;)V:com/google/common/base/Preconditions.checkArgument(ZLjava/lang/Object;)V:com/google/javascript/rhino/Node.toStringTree()Ljava/lang/String;:com/google/javascript/rhino/Node.toStringTreeImpl()Ljava/lang/String;:com/google/javascript/rhino/Node.appendStringTree(Ljava/lang/Appendable;)V:com/google/javascript/rhino/Node.toStringTreeHelper(Lcom/google/javascript/rhino/Node;ILjava/lang/Appendable;)V:com/google/javascript/rhino/Node.toString()Ljava/lang/String;:com/google/javascript/rhino/Node.toString(ZZZ)Ljava/lang/String;:java/lang/StringBuilder.<init>()V'
p283
I4
sS'com/google/common/base/Preconditions.checkArgument(ZLjava/lang/Object;)V:com/google/common/base/Preconditions.checkArgument(ZLjava/lang/Object;)V:com/google/common/base/Preconditions.checkArgument(ZLjava/lang/Object;)V:com/google/common/base/Preconditions.checkArgument(ZLjava/lang/Object;)V:com/google/javascript/rhino/IR.mayBeExpression(Lcom/google/javascript/rhino/Node;)Z'
p284
I1
sS'com/google/common/base/Preconditions.checkArgument(ZLjava/lang/Object;)V:com/google/common/base/Preconditions.checkArgument(ZLjava/lang/Object;)V:com/google/common/base/Preconditions.checkArgument(ZLjava/lang/Object;)V:com/google/common/base/Preconditions.checkArgument(ZLjava/lang/Object;)V:com/google/javascript/rhino/Node.isEquivalentTo(Lcom/google/javascript/rhino/Node;ZZZ)Z:com/google/javascript/rhino/Node.isEquivalentTo(Lcom/google/javascript/rhino/Node;ZZZ)Z:com/google/javascript/rhino/Node.getJSDocInfo()Lcom/google/javascript/rhino/JSDocInfo;'
p285
I2
sS'com/google/common/base/Preconditions.checkArgument(ZLjava/lang/Object;)V:com/google/common/base/Preconditions.checkArgument(ZLjava/lang/Object;)V'
p286
I1
sS'com/google/common/base/Preconditions.checkArgument(ZLjava/lang/Object;)V:com/google/common/base/Preconditions.checkArgument(ZLjava/lang/Object;)V:com/google/common/base/Preconditions.checkArgument(ZLjava/lang/Object;)V:com/google/common/base/Preconditions.checkArgument(ZLjava/lang/Object;)V:com/google/javascript/rhino/Node.getJSDocInfo()Lcom/google/javascript/rhino/JSDocInfo;'
p287
I2
sS'com/google/common/base/Preconditions.checkArgument(ZLjava/lang/Object;)V:com/google/common/base/Preconditions.checkArgument(ZLjava/lang/Object;)V:com/google/common/base/Preconditions.checkArgument(ZLjava/lang/Object;)V:com/google/common/base/Preconditions.checkArgument(ZLjava/lang/Object;)V:com/google/common/base/Preconditions.checkState(Z)V:com/google/common/base/Preconditions.checkState(Z)V:com/google/javascript/rhino/Node.matchesQualifiedName(Ljava/lang/String;I)Z:java/lang/String.startsWith(Ljava/lang/String;)Z'
p288
I1
sS'com/google/common/base/Preconditions.checkArgument(ZLjava/lang/Object;)V:com/google/common/base/Preconditions.checkArgument(ZLjava/lang/Object;)V:com/google/common/base/Preconditions.checkArgument(ZLjava/lang/Object;)V:com/google/common/base/Preconditions.checkArgument(ZLjava/lang/Object;)V:com/google/common/base/Preconditions.checkState(Z)V:com/google/common/base/Preconditions.checkState(Z)V:com/google/common/base/Preconditions.checkState(ZLjava/lang/Object;)V:com/google/common/base/Preconditions.checkState(ZLjava/lang/Object;)V:com/google/common/base/Preconditions.checkState(ZLjava/lang/Object;)V:com/google/common/base/Preconditions.checkArgument(ZLjava/lang/Object;)V:com/google/common/base/Preconditions.checkArgument(ZLjava/lang/Object;)V:com/google/common/base/Preconditions.checkArgument(ZLjava/lang/Object;)V:com/google/common/base/Preconditions.checkArgument(ZLjava/lang/Object;)V:java/lang/String.isEmpty()Z'
p289
I2
sS'com/google/common/base/Preconditions.checkArgument(ZLjava/lang/Object;)V:com/google/common/base/Preconditions.checkArgument(ZLjava/lang/Object;)V:com/google/common/base/Preconditions.checkArgument(ZLjava/lang/Object;)V:com/google/common/base/Preconditions.checkArgument(ZLjava/lang/Object;)V:com/google/javascript/rhino/Node.isEquivalentTo(Lcom/google/javascript/rhino/Node;ZZZ)Z:com/google/javascript/rhino/Node.isEquivalentTo(Lcom/google/javascript/rhino/Node;ZZZ)Z:com/google/javascript/rhino/Node.getJSDocInfo()Lcom/google/javascript/rhino/JSDocInfo;:com/google/javascript/rhino/Node.getProp(I)Ljava/lang/Object;:com/google/javascript/rhino/Node.lookupProperty(I)Lcom/google/javascript/rhino/Node$PropListItem;'
p290
I2
sS'com/google/common/base/Preconditions.checkArgument(ZLjava/lang/Object;)V:com/google/common/base/Preconditions.checkArgument(ZLjava/lang/Object;)V:com/google/common/base/Preconditions.checkArgument(ZLjava/lang/Object;)V:com/google/common/base/Preconditions.checkArgument(ZLjava/lang/Object;)V:java/lang/String.isEmpty()Z'
p291
I3
sS'com/google/common/base/Preconditions.checkArgument(ZLjava/lang/Object;)V:com/google/common/base/Preconditions.checkArgument(ZLjava/lang/Object;)V:com/google/common/base/Preconditions.checkArgument(ZLjava/lang/Object;)V:com/google/common/base/Preconditions.checkArgument(ZLjava/lang/Object;)V:com/google/common/base/Preconditions.checkState(Z)V:com/google/common/base/Preconditions.checkState(Z)V:com/google/common/base/Preconditions.checkState(ZLjava/lang/Object;)V'
p292
I1
sS'com/google/common/base/Preconditions.checkArgument(ZLjava/lang/Object;)V:com/google/common/base/Preconditions.checkArgument(ZLjava/lang/Object;)V:com/google/common/base/Preconditions.checkArgument(ZLjava/lang/Object;)V:com/google/common/base/Preconditions.checkArgument(ZLjava/lang/Object;)V:com/google/common/base/Preconditions.checkState(Z)V:com/google/common/base/Preconditions.checkState(Z)V:com/google/common/base/Preconditions.checkState(ZLjava/lang/Object;)V:com/google/common/base/Preconditions.checkState(ZLjava/lang/Object;)V:com/google/common/base/Preconditions.checkState(ZLjava/lang/Object;)V:com/google/common/base/Preconditions.checkArgument(ZLjava/lang/Object;)V:com/google/common/base/Preconditions.checkArgument(ZLjava/lang/Object;)V:com/google/common/base/Preconditions.checkArgument(ZLjava/lang/Object;)V:com/google/common/base/Preconditions.checkArgument(ZLjava/lang/Object;)V:com/google/javascript/rhino/Node.newString(ILjava/lang/String;)Lcom/google/javascript/rhino/Node;:com/google/javascript/rhino/Node$StringNode.<init>(ILjava/lang/String;)V'
p293
I3
sS'com/google/common/base/Preconditions.checkArgument(ZLjava/lang/Object;)V:com/google/common/base/Preconditions.checkArgument(ZLjava/lang/Object;)V:com/google/common/base/Preconditions.checkArgument(ZLjava/lang/Object;)V:com/google/common/base/Preconditions.checkArgument(ZLjava/lang/Object;)V:com/google/javascript/rhino/Node.isEquivalentTo(Lcom/google/javascript/rhino/Node;ZZZ)Z:com/google/javascript/rhino/Node.isEquivalentTo(Lcom/google/javascript/rhino/Node;ZZZ)Z:com/google/javascript/rhino/Node.getChildCount()I'
p294
I4
sS'com/google/common/base/Preconditions.checkArgument(ZLjava/lang/Object;)V:com/google/common/base/Preconditions.checkArgument(ZLjava/lang/Object;)V:com/google/common/base/Preconditions.checkArgument(ZLjava/lang/Object;)V:com/google/common/base/Preconditions.checkArgument(ZLjava/lang/Object;)V:com/google/javascript/rhino/Node.isEquivalentTo(Lcom/google/javascript/rhino/Node;ZZZ)Z:com/google/javascript/rhino/Node.getDeclaredTypeExpression()Lcom/google/javascript/rhino/Node$TypeDeclarationNode;:com/google/javascript/rhino/Node.getProp(I)Ljava/lang/Object;'
p295
I2
s.