(dp0
S'com/google/common/base/Preconditions.checkArgument(Z)V:com/google/common/base/Preconditions.checkArgument(ZLjava/lang/Object;)V:com/google/javascript/rhino/Node.<init>(I)V'
p1
I2
sS'com/google/common/base/Preconditions.checkArgument(Z)V:com/google/common/base/Preconditions.checkArgument(ZLjava/lang/Object;)V:com/google/common/base/Preconditions.checkState(Z)V'
p2
I1
sS'com/google/common/base/Preconditions.checkArgument(Z)V:com/google/common/base/Preconditions.checkArgument(ZLjava/lang/Object;)V:com/google/common/base/Preconditions.checkState(Z)V:com/google/javascript/rhino/Node$StringNode.<init>(ILjava/lang/String;)V:com/google/javascript/rhino/Node.<init>(I)V'
p3
I1
sS'com/google/common/base/Preconditions.checkArgument(Z)V:com/google/javascript/rhino/Node$StringNode.<init>(ILjava/lang/String;)V'
p4
I1
sS'java/lang/Object.<init>()V'
p5
I3
sS'com/google/javascript/jscomp/CompilerOptions$LanguageMode.<init>(Ljava/lang/String;I)V:java/lang/Enum.<init>(Ljava/lang/String;I)V'
p6
I7
sS'com/google/common/base/Preconditions.checkArgument(Z)V:com/google/common/base/Preconditions.checkArgument(ZLjava/lang/Object;)V:com/google/common/base/Preconditions.checkState(Z)V:com/google/javascript/rhino/Node.newString(ILjava/lang/String;)Lcom/google/javascript/rhino/Node;:com/google/javascript/rhino/Node$StringNode.<init>(ILjava/lang/String;)V'
p7
I2
sS'com/google/common/base/Preconditions.checkArgument(Z)V:com/google/javascript/rhino/Node$StringNode.<init>(ILjava/lang/String;)V:com/google/javascript/rhino/Node.<init>(I)V'
p8
I1
sS'com/google/javascript/jscomp/CompilerOptions$LanguageMode.<init>(Ljava/lang/String;I)V'
p9
I7
sS'com/google/javascript/rhino/Node$StringNode.<init>(ILjava/lang/String;)V'
p10
I2
sS'com/google/common/base/Preconditions.checkArgument(Z)V:com/google/common/base/Preconditions.checkArgument(ZLjava/lang/Object;)V:com/google/javascript/rhino/Node.newString(ILjava/lang/String;)Lcom/google/javascript/rhino/Node;:com/google/javascript/rhino/Node$StringNode.<init>(ILjava/lang/String;)V:com/google/javascript/rhino/Node.<init>(I)V:java/lang/Object.<init>()V'
p11
I1
sS'com/google/common/base/Preconditions.checkArgument(Z)V:com/google/common/base/Preconditions.checkArgument(ZLjava/lang/Object;)V:com/google/javascript/rhino/Node.<init>(I)V:java/lang/Object.<init>()V'
p12
I2
sS'com/google/common/base/Preconditions.checkArgument(Z)V:com/google/common/base/Preconditions.checkArgument(ZLjava/lang/Object;)V:com/google/common/base/Preconditions.checkState(Z)V:com/google/javascript/rhino/Node$StringNode.<init>(ILjava/lang/String;)V'
p13
I1
sS'com/google/common/base/Preconditions.checkArgument(Z)V:com/google/common/base/Preconditions.checkArgument(ZLjava/lang/Object;)V'
p14
I1
sS'com/google/common/base/Preconditions.checkArgument(Z)V:com/google/common/base/Preconditions.checkArgument(ZLjava/lang/Object;)V:com/google/common/base/Preconditions.checkState(Z)V:com/google/javascript/rhino/Node.isName()Z:com/google/javascript/rhino/Node.getType()I'
p15
I1
sS'com/google/common/base/Preconditions.checkArgument(Z)V:com/google/common/base/Preconditions.checkArgument(ZLjava/lang/Object;)V:com/google/javascript/rhino/Node$StringNode.<init>(ILjava/lang/String;)V:com/google/javascript/rhino/Node.<init>(I)V:java/lang/Object.<init>()V'
p16
I1
sS'com/google/common/base/Preconditions.checkArgument(Z)V:com/google/common/base/Preconditions.checkArgument(ZLjava/lang/Object;)V:com/google/common/base/Preconditions.checkState(Z)V:com/google/javascript/rhino/Node.newString(ILjava/lang/String;)Lcom/google/javascript/rhino/Node;:com/google/javascript/rhino/Node$StringNode.<init>(ILjava/lang/String;)V:com/google/javascript/rhino/Node.<init>(I)V'
p17
I2
sS'com/google/javascript/rhino/Node$StringNode.<init>(ILjava/lang/String;)V:com/google/javascript/rhino/Node.<init>(I)V'
p18
I2
sS'com/google/common/base/Preconditions.checkArgument(Z)V:com/google/common/base/Preconditions.checkArgument(ZLjava/lang/Object;)V:com/google/javascript/rhino/Node.isName()Z:com/google/javascript/rhino/Node.getType()I'
p19
I1
sS'com/google/common/base/Preconditions.checkArgument(Z)V:com/google/common/base/Preconditions.checkArgument(ZLjava/lang/Object;)V:com/google/javascript/rhino/Node$StringNode.<init>(ILjava/lang/String;)V'
p20
I1
sS'com/google/common/base/Preconditions.checkArgument(Z)V:com/google/common/base/Preconditions.checkArgument(ZLjava/lang/Object;)V:com/google/javascript/rhino/Node.isName()Z'
p21
I1
sS'com/google/common/base/Preconditions.checkArgument(Z)V'
p22
I1
sS'com/google/common/base/Preconditions.checkArgument(Z)V:com/google/common/base/Preconditions.checkArgument(ZLjava/lang/Object;)V:com/google/javascript/rhino/Node.newString(ILjava/lang/String;)Lcom/google/javascript/rhino/Node;:com/google/javascript/rhino/Node$StringNode.<init>(ILjava/lang/String;)V'
p23
I1
sS'com/google/common/base/Preconditions.checkArgument(Z)V:java/lang/Object.<init>()V'
p24
I1
sS'com/google/common/base/Preconditions.checkArgument(Z)V:com/google/common/base/Preconditions.checkArgument(ZLjava/lang/Object;)V:com/google/common/base/Preconditions.checkState(Z)V:com/google/javascript/rhino/Node.isName()Z'
p25
I1
sS'com/google/common/base/Preconditions.checkArgument(Z)V:com/google/common/base/Preconditions.checkArgument(ZLjava/lang/Object;)V:com/google/common/base/Preconditions.checkState(Z)V:com/google/common/base/Preconditions.checkState(Z)V'
p26
I1
sS'com/google/common/base/Preconditions.checkArgument(Z)V:com/google/common/base/Preconditions.checkArgument(ZLjava/lang/Object;)V:com/google/javascript/rhino/Node.newString(ILjava/lang/String;)Lcom/google/javascript/rhino/Node;:com/google/javascript/rhino/Node$StringNode.<init>(ILjava/lang/String;)V:com/google/javascript/rhino/Node.<init>(I)V'
p27
I1
sS'com/google/javascript/rhino/Node$StringNode.<init>(ILjava/lang/String;)V:com/google/javascript/rhino/Node.<init>(I)V:java/lang/Object.<init>()V'
p28
I2
sS'com/google/common/base/Preconditions.checkArgument(Z)V:com/google/common/base/Preconditions.checkArgument(ZLjava/lang/Object;)V:com/google/javascript/rhino/Node.newString(ILjava/lang/String;)Lcom/google/javascript/rhino/Node;'
p29
I1
sS'com/google/common/base/Preconditions.checkArgument(Z)V:com/google/common/base/Preconditions.checkArgument(ZLjava/lang/Object;)V:com/google/common/base/Preconditions.checkState(Z)V:com/google/javascript/rhino/Node.newString(ILjava/lang/String;)Lcom/google/javascript/rhino/Node;:com/google/javascript/rhino/Node$StringNode.<init>(ILjava/lang/String;)V:com/google/javascript/rhino/Node.<init>(I)V:java/lang/Object.<init>()V'
p30
I2
sS'com/google/common/base/Preconditions.checkArgument(Z)V:com/google/common/base/Preconditions.checkArgument(ZLjava/lang/Object;)V:com/google/common/base/Preconditions.checkState(Z)V:com/google/javascript/rhino/Node.newString(ILjava/lang/String;)Lcom/google/javascript/rhino/Node;'
p31
I2
sS'com/google/common/base/Preconditions.checkArgument(Z)V:com/google/common/base/Preconditions.checkArgument(ZLjava/lang/Object;)V:com/google/javascript/rhino/Node$StringNode.<init>(ILjava/lang/String;)V:com/google/javascript/rhino/Node.<init>(I)V'
p32
I1
sS'com/google/common/base/Preconditions.checkArgument(Z)V:com/google/javascript/rhino/Node$StringNode.<init>(ILjava/lang/String;)V:com/google/javascript/rhino/Node.<init>(I)V:java/lang/Object.<init>()V'
p33
I1
sS'com/google/common/base/Preconditions.checkArgument(Z)V:com/google/common/base/Preconditions.checkArgument(ZLjava/lang/Object;)V:com/google/common/base/Preconditions.checkState(Z)V:com/google/javascript/rhino/Node$StringNode.<init>(ILjava/lang/String;)V:com/google/javascript/rhino/Node.<init>(I)V:java/lang/Object.<init>()V'
p34
I1
s.