(dp0
S'com/google/javascript/jscomp/CompilationLevel.values()[Lcom/google/javascript/jscomp/CompilationLevel;:com/google/javascript/jscomp/CompilationLevel.<init>(Ljava/lang/String;I)V'
p1
I3
sS'com/google/javascript/jscomp/CompilationLevel.values()[Lcom/google/javascript/jscomp/CompilationLevel;'
p2
I1
sS'com/google/javascript/jscomp/CompilationLevel.values()[Lcom/google/javascript/jscomp/CompilationLevel;:com/google/javascript/jscomp/CompilationLevel.<init>(Ljava/lang/String;I)V:java/lang/Enum.<init>(Ljava/lang/String;I)V'
p3
I3
sS'com/google/javascript/jscomp/CompilationLevel.ordinal()I'
p4
I3
sS'com/google/javascript/jscomp/CompilationLevel.values()[Lcom/google/javascript/jscomp/CompilationLevel;:[Lcom/google/javascript/jscomp/CompilationLevel;.clone()Ljava/lang/Object;'
p5
I1
s.