(dp0
S'com/google/javascript/jscomp/CompilerOptions$Reach.values()[Lcom/google/javascript/jscomp/CompilerOptions$Reach;'
p1
I1
sS'com/google/javascript/jscomp/CompilerOptions$Reach.ordinal()I'
p2
I3
sS'com/google/javascript/jscomp/CompilerOptions$LanguageMode.values()[Lcom/google/javascript/jscomp/CompilerOptions$LanguageMode;:com/google/javascript/jscomp/CompilerOptions$LanguageMode.<init>(Ljava/lang/String;I)V'
p3
I7
sS'com/google/javascript/jscomp/CompilerOptions$LanguageMode.ordinal()I'
p4
I4
sS'com/google/javascript/jscomp/CompilerOptions$Reach.values()[Lcom/google/javascript/jscomp/CompilerOptions$Reach;:[Lcom/google/javascript/jscomp/CompilerOptions$Reach;.clone()Ljava/lang/Object;'
p5
I1
sS'com/google/javascript/jscomp/CompilerOptions$LanguageMode.values()[Lcom/google/javascript/jscomp/CompilerOptions$LanguageMode;:[Lcom/google/javascript/jscomp/CompilerOptions$LanguageMode;.clone()Ljava/lang/Object;'
p6
I1
sS'com/google/javascript/jscomp/CompilerOptions$Reach.values()[Lcom/google/javascript/jscomp/CompilerOptions$Reach;:com/google/javascript/jscomp/CompilerOptions$Reach.<init>(Ljava/lang/String;I)V:java/lang/Enum.<init>(Ljava/lang/String;I)V'
p7
I3
sS'com/google/javascript/jscomp/CompilerOptions$LanguageMode.values()[Lcom/google/javascript/jscomp/CompilerOptions$LanguageMode;:com/google/javascript/jscomp/CompilerOptions$LanguageMode.<init>(Ljava/lang/String;I)V:java/lang/Enum.<init>(Ljava/lang/String;I)V'
p8
I7
sS'com/google/javascript/jscomp/CompilerOptions$LanguageMode.values()[Lcom/google/javascript/jscomp/CompilerOptions$LanguageMode;'
p9
I1
sS'com/google/javascript/jscomp/CompilerOptions$Reach.values()[Lcom/google/javascript/jscomp/CompilerOptions$Reach;:com/google/javascript/jscomp/CompilerOptions$Reach.<init>(Ljava/lang/String;I)V'
p10
I3
s.