(dp0
S'com/google/javascript/jscomp/graph/LinkedDirectedGraph.<init>(ZZ)V'
p1
I4
sS'com/google/javascript/jscomp/graph/LinkedDirectedGraph.<init>(ZZ)V:com/google/javascript/jscomp/graph/DiGraph.<init>()V'
p2
I4
sS'com/google/javascript/jscomp/graph/LinkedDirectedGraph.createDirectedGraphNode(Ljava/lang/Object;)Lcom/google/javascript/jscomp/graph/LinkedDirectedGraph$LinkedDirectedGraphNode;:java/util/Map.get(Ljava/lang/Object;)Ljava/lang/Object;'
p3
I24
sS'com/google/javascript/jscomp/graph/LinkedDirectedGraph.createDirectedGraphNode(Ljava/lang/Object;)Lcom/google/javascript/jscomp/graph/LinkedDirectedGraph$LinkedDirectedGraphNode;:com/google/javascript/jscomp/graph/LinkedDirectedGraph$AnnotatedLinkedDirectedGraphNode.<init>(Ljava/lang/Object;)V:com/google/javascript/jscomp/graph/LinkedDirectedGraph$LinkedDirectedGraphNode.<init>(Ljava/lang/Object;)V:java/lang/Object.<init>()V'
p4
I20
sS'com/google/javascript/jscomp/ControlFlowGraph.createDirectedGraphNode(Ljava/lang/Object;)Lcom/google/javascript/jscomp/graph/LinkedDirectedGraph$LinkedDirectedGraphNode;:com/google/javascript/jscomp/graph/LinkedDirectedGraph$AnnotatedLinkedDirectedGraphNode.<init>(Ljava/lang/Object;)V'
p5
I8
sS'com/google/javascript/jscomp/graph/LinkedDirectedGraph.createDirectedGraphNode(Ljava/lang/Object;)Lcom/google/javascript/jscomp/graph/LinkedDirectedGraph$LinkedDirectedGraphNode;:com/google/javascript/jscomp/graph/LinkedDirectedGraph$AnnotatedLinkedDirectedGraphNode.<init>(Ljava/lang/Object;)V'
p6
I20
sS'com/google/javascript/jscomp/graph/LinkedDirectedGraph.createDirectedGraphNode(Ljava/lang/Object;)Lcom/google/javascript/jscomp/graph/LinkedDirectedGraph$LinkedDirectedGraphNode;:java/util/Map.put(Ljava/lang/Object;Ljava/lang/Object;)Ljava/lang/Object;'
p7
I20
sS'com/google/javascript/jscomp/graph/LinkedDirectedGraph.<init>(ZZ)V:java/util/HashMap.<init>()V'
p8
I4
sS'com/google/javascript/jscomp/ControlFlowGraph$Branch.<init>(Ljava/lang/String;I)V'
p9
I5
sS'com/google/javascript/jscomp/graph/LinkedDirectedGraph.<init>(ZZ)V:com/google/javascript/jscomp/graph/DiGraph.<init>()V:com/google/javascript/jscomp/graph/Graph.<init>()V:java/lang/Object.<init>()V'
p10
I4
sS'com/google/javascript/jscomp/graph/LinkedDirectedGraph.createDirectedGraphNode(Ljava/lang/Object;)Lcom/google/javascript/jscomp/graph/LinkedDirectedGraph$LinkedDirectedGraphNode;:com/google/javascript/jscomp/graph/LinkedDirectedGraph$AnnotatedLinkedDirectedGraphNode.<init>(Ljava/lang/Object;)V:com/google/javascript/jscomp/graph/LinkedDirectedGraph$LinkedDirectedGraphNode.<init>(Ljava/lang/Object;)V:java/util/ArrayList.<init>()V'
p11
I40
sS'com/google/javascript/jscomp/ControlFlowGraph.createDirectedGraphNode(Ljava/lang/Object;)Lcom/google/javascript/jscomp/graph/LinkedDirectedGraph$LinkedDirectedGraphNode;:java/util/Map.get(Ljava/lang/Object;)Ljava/lang/Object;'
p12
I8
sS'com/google/javascript/jscomp/graph/LinkedDirectedGraph.createDirectedGraphNode(Ljava/lang/Object;)Lcom/google/javascript/jscomp/graph/LinkedDirectedGraph$LinkedDirectedGraphNode;:com/google/javascript/jscomp/graph/LinkedDirectedGraph$AnnotatedLinkedDirectedGraphNode.<init>(Ljava/lang/Object;)V:com/google/javascript/jscomp/graph/LinkedDirectedGraph$LinkedDirectedGraphNode.<init>(Ljava/lang/Object;)V'
p13
I20
sS'com/google/javascript/jscomp/graph/LinkedDirectedGraph.getNodeOrFail(Ljava/lang/Object;)Lcom/google/javascript/jscomp/graph/GraphNode;:com/google/javascript/jscomp/graph/Graph.getNode(Ljava/lang/Object;)Lcom/google/javascript/jscomp/graph/GraphNode;:com/google/javascript/jscomp/graph/LinkedDirectedGraph.getDirectedGraphNode(Ljava/lang/Object;)Lcom/google/javascript/jscomp/graph/DiGraph$DiGraphNode;:java/util/Map.get(Ljava/lang/Object;)Ljava/lang/Object;'
p14
I46
sS'com/google/javascript/jscomp/ControlFlowGraph.createDirectedGraphNode(Ljava/lang/Object;)Lcom/google/javascript/jscomp/graph/LinkedDirectedGraph$LinkedDirectedGraphNode;:com/google/javascript/jscomp/graph/LinkedDirectedGraph$AnnotatedLinkedDirectedGraphNode.<init>(Ljava/lang/Object;)V:com/google/javascript/jscomp/graph/LinkedDirectedGraph$LinkedDirectedGraphNode.<init>(Ljava/lang/Object;)V'
p15
I8
sS'com/google/javascript/jscomp/ControlFlowGraph$Branch.<init>(Ljava/lang/String;I)V:java/lang/Enum.<init>(Ljava/lang/String;I)V'
p16
I5
sS'com/google/javascript/jscomp/ControlFlowGraph.createDirectedGraphNode(Ljava/lang/Object;)Lcom/google/javascript/jscomp/graph/LinkedDirectedGraph$LinkedDirectedGraphNode;:java/util/Map.put(Ljava/lang/Object;Ljava/lang/Object;)Ljava/lang/Object;'
p17
I8
sS'com/google/javascript/jscomp/graph/LinkedDirectedGraph$AnnotatedLinkedDirectedGraphEdge.<init>(Lcom/google/javascript/jscomp/graph/DiGraph$DiGraphNode;Ljava/lang/Object;Lcom/google/javascript/jscomp/graph/DiGraph$DiGraphNode;)V'
p18
I23
sS'com/google/javascript/jscomp/graph/LinkedDirectedGraph$LinkedDirectedGraphNode.getOutEdges()Ljava/util/List;'
p19
I23
sS'com/google/javascript/jscomp/graph/LinkedDirectedGraph.createDirectedGraphNode(Ljava/lang/Object;)Lcom/google/javascript/jscomp/graph/LinkedDirectedGraph$LinkedDirectedGraphNode;'
p20
I24
sS'com/google/javascript/jscomp/graph/LinkedDirectedGraph$AnnotatedLinkedDirectedGraphEdge.<init>(Lcom/google/javascript/jscomp/graph/DiGraph$DiGraphNode;Ljava/lang/Object;Lcom/google/javascript/jscomp/graph/DiGraph$DiGraphNode;)V:com/google/javascript/jscomp/graph/LinkedDirectedGraph$LinkedDirectedGraphEdge.<init>(Lcom/google/javascript/jscomp/graph/DiGraph$DiGraphNode;Ljava/lang/Object;Lcom/google/javascript/jscomp/graph/DiGraph$DiGraphNode;)V'
p21
I23
sS'com/google/javascript/jscomp/graph/LinkedDirectedGraph$AnnotatedLinkedDirectedGraphEdge.<init>(Lcom/google/javascript/jscomp/graph/DiGraph$DiGraphNode;Ljava/lang/Object;Lcom/google/javascript/jscomp/graph/DiGraph$DiGraphNode;)V:com/google/javascript/jscomp/graph/LinkedDirectedGraph$LinkedDirectedGraphEdge.<init>(Lcom/google/javascript/jscomp/graph/DiGraph$DiGraphNode;Ljava/lang/Object;Lcom/google/javascript/jscomp/graph/DiGraph$DiGraphNode;)V:java/lang/Object.<init>()V'
p22
I23
sS'com/google/javascript/jscomp/graph/LinkedDirectedGraph.getNodeOrFail(Ljava/lang/Object;)Lcom/google/javascript/jscomp/graph/GraphNode;'
p23
I46
sS'com/google/javascript/jscomp/graph/LinkedDirectedGraph.getNodeOrFail(Ljava/lang/Object;)Lcom/google/javascript/jscomp/graph/GraphNode;:com/google/javascript/jscomp/graph/Graph.getNode(Ljava/lang/Object;)Lcom/google/javascript/jscomp/graph/GraphNode;'
p24
I46
sS'com/google/javascript/jscomp/graph/LinkedDirectedGraph.getNodeOrFail(Ljava/lang/Object;)Lcom/google/javascript/jscomp/graph/GraphNode;:com/google/javascript/jscomp/graph/Graph.getNode(Ljava/lang/Object;)Lcom/google/javascript/jscomp/graph/GraphNode;:com/google/javascript/jscomp/graph/LinkedDirectedGraph.getDirectedGraphNode(Ljava/lang/Object;)Lcom/google/javascript/jscomp/graph/DiGraph$DiGraphNode;'
p25
I46
sS'com/google/javascript/jscomp/ControlFlowGraph.createDirectedGraphNode(Ljava/lang/Object;)Lcom/google/javascript/jscomp/graph/LinkedDirectedGraph$LinkedDirectedGraphNode;:com/google/javascript/jscomp/graph/LinkedDirectedGraph$AnnotatedLinkedDirectedGraphNode.<init>(Ljava/lang/Object;)V:com/google/javascript/jscomp/graph/LinkedDirectedGraph$LinkedDirectedGraphNode.<init>(Ljava/lang/Object;)V:java/lang/Object.<init>()V'
p26
I8
sS'com/google/javascript/jscomp/graph/LinkedDirectedGraph$LinkedDirectedGraphNode.getInEdges()Ljava/util/List;'
p27
I23
sS'com/google/javascript/jscomp/ControlFlowGraph.createDirectedGraphNode(Ljava/lang/Object;)Lcom/google/javascript/jscomp/graph/LinkedDirectedGraph$LinkedDirectedGraphNode;:com/google/javascript/jscomp/graph/LinkedDirectedGraph$AnnotatedLinkedDirectedGraphNode.<init>(Ljava/lang/Object;)V:com/google/javascript/jscomp/graph/LinkedDirectedGraph$LinkedDirectedGraphNode.<init>(Ljava/lang/Object;)V:java/util/ArrayList.<init>()V'
p28
I16
sS'java/util/List.add(Ljava/lang/Object;)Z'
p29
I46
sS'com/google/javascript/jscomp/ControlFlowGraph.createDirectedGraphNode(Ljava/lang/Object;)Lcom/google/javascript/jscomp/graph/LinkedDirectedGraph$LinkedDirectedGraphNode;'
p30
I8
sS'com/google/javascript/jscomp/graph/LinkedDirectedGraph.<init>(ZZ)V:com/google/javascript/jscomp/graph/DiGraph.<init>()V:com/google/javascript/jscomp/graph/Graph.<init>()V'
p31
I4
s.