(dp0
S'com/google/common/base/Preconditions.checkArgument(ZLjava/lang/Object;)V:com/google/javascript/jscomp/SourceFile$Builder.buildFromCode(Ljava/lang/String;Ljava/lang/String;)Lcom/google/javascript/jscomp/SourceFile;'
p1
I6
sS'java/lang/String.startsWith(Ljava/lang/String;)Z'
p2
I1
sS'com/google/common/base/Preconditions.checkArgument(ZLjava/lang/Object;)V:com/google/javascript/jscomp/SourceFile$Builder.buildFromCode(Ljava/lang/String;Ljava/lang/String;)Lcom/google/javascript/jscomp/SourceFile;:com/google/javascript/jscomp/SourceFile$Preloaded.<init>(Ljava/lang/String;Ljava/lang/String;Ljava/lang/String;)V'
p3
I6
sS'com/google/common/base/Preconditions.checkArgument(ZLjava/lang/Object;)V:com/google/javascript/jscomp/SourceFile$Builder.buildFromCode(Ljava/lang/String;Ljava/lang/String;)Lcom/google/javascript/jscomp/SourceFile;:com/google/javascript/jscomp/SourceFile$Preloaded.<init>(Ljava/lang/String;Ljava/lang/String;Ljava/lang/String;)V:com/google/javascript/jscomp/SourceFile.<init>(Ljava/lang/String;)V:java/lang/String.isEmpty()Z'
p4
I6
sS'com/google/common/base/Preconditions.checkArgument(ZLjava/lang/Object;)V:com/google/javascript/jscomp/SourceFile.builder()Lcom/google/javascript/jscomp/SourceFile$Builder;:com/google/javascript/jscomp/SourceFile$Builder.<init>()V:java/lang/Object.<init>()V'
p5
I6
sS'java/lang/Object.<init>()V'
p6
I1
sS'com/google/common/base/Preconditions.checkArgument(ZLjava/lang/Object;)V:com/google/javascript/rhino/StaticSourceFile.getName()Ljava/lang/String;'
p7
I6
sS'com/google/javascript/jscomp/CodingConventions$DefaultCodingConvention.<init>(Lcom/google/javascript/jscomp/CodingConventions$1;)V:com/google/javascript/jscomp/CodingConventions$DefaultCodingConvention.<init>()V:java/lang/Object.<init>()V'
p8
I18
sS'com/google/javascript/jscomp/CodingConventions$DefaultCodingConvention.<init>(Lcom/google/javascript/jscomp/CodingConventions$1;)V'
p9
I18
sS'com/google/common/base/Preconditions.checkArgument(ZLjava/lang/Object;)V:com/google/javascript/jscomp/SourceFile$Builder.buildFromCode(Ljava/lang/String;Ljava/lang/String;)Lcom/google/javascript/jscomp/SourceFile;:com/google/javascript/jscomp/SourceFile$Preloaded.<init>(Ljava/lang/String;Ljava/lang/String;Ljava/lang/String;)V:com/google/javascript/jscomp/SourceFile.access$000(Lcom/google/javascript/jscomp/SourceFile;Ljava/lang/String;)V:com/google/javascript/jscomp/SourceFile.setCode(Ljava/lang/String;)V'
p10
I6
sS'com/google/javascript/jscomp/CodingConventions$DefaultCodingConvention.isExported(Ljava/lang/String;Z)Z:java/lang/String.startsWith(Ljava/lang/String;)Z'
p11
I4
sS'com/google/javascript/rhino/Node$StringNode.<init>(ILjava/lang/String;)V'
p12
I2
sS'com/google/common/base/Preconditions.checkArgument(ZLjava/lang/Object;)V'
p13
I1
sS'com/google/common/base/Preconditions.checkArgument(ZLjava/lang/Object;)V:java/lang/String.lastIndexOf(I)I'
p14
I6
sS'com/google/javascript/rhino/Node$StringNode.<init>(ILjava/lang/String;)V:com/google/javascript/rhino/Node.<init>(I)V'
p15
I2
sS'com/google/common/base/Preconditions.checkArgument(ZLjava/lang/Object;)V:com/google/javascript/jscomp/SourceFile$Builder.buildFromCode(Ljava/lang/String;Ljava/lang/String;)Lcom/google/javascript/jscomp/SourceFile;:com/google/javascript/jscomp/SourceFile$Preloaded.<init>(Ljava/lang/String;Ljava/lang/String;Ljava/lang/String;)V:com/google/javascript/jscomp/SourceFile.<init>(Ljava/lang/String;)V:java/lang/Object.<init>()V'
p16
I6
sS'com/google/common/base/Preconditions.checkArgument(ZLjava/lang/Object;)V:com/google/javascript/jscomp/SourceFile.builder()Lcom/google/javascript/jscomp/SourceFile$Builder;'
p17
I6
sS'com/google/common/base/Preconditions.checkArgument(ZLjava/lang/Object;)V:java/lang/String.substring(II)Ljava/lang/String;'
p18
I5
sS'com/google/javascript/jscomp/CodingConventions$DefaultCodingConvention.<init>(Lcom/google/javascript/jscomp/CodingConventions$1;)V:com/google/javascript/jscomp/CodingConventions$DefaultCodingConvention.<init>()V'
p19
I18
sS'com/google/common/base/Preconditions.checkArgument(ZLjava/lang/Object;)V:com/google/javascript/jscomp/SourceFile$Builder.buildFromCode(Ljava/lang/String;Ljava/lang/String;)Lcom/google/javascript/jscomp/SourceFile;:com/google/javascript/jscomp/SourceFile$Preloaded.<init>(Ljava/lang/String;Ljava/lang/String;Ljava/lang/String;)V:com/google/javascript/jscomp/SourceFile.access$000(Lcom/google/javascript/jscomp/SourceFile;Ljava/lang/String;)V'
p20
I6
sS'com/google/javascript/rhino/Node$StringNode.<init>(ILjava/lang/String;)V:com/google/javascript/rhino/Node.<init>(I)V:java/lang/Object.<init>()V'
p21
I2
sS'com/google/javascript/jscomp/CodingConventions$DefaultCodingConvention.isExported(Ljava/lang/String;Z)Z'
p22
I8
sS'com/google/common/base/Preconditions.checkArgument(ZLjava/lang/Object;)V:com/google/javascript/jscomp/SourceFile.builder()Lcom/google/javascript/jscomp/SourceFile$Builder;:com/google/javascript/jscomp/SourceFile$Builder.<init>()V'
p23
I6
sS'com/google/common/base/Preconditions.checkArgument(ZLjava/lang/Object;)V:com/google/javascript/jscomp/SourceFile$Builder.buildFromCode(Ljava/lang/String;Ljava/lang/String;)Lcom/google/javascript/jscomp/SourceFile;:com/google/javascript/jscomp/SourceFile$Preloaded.<init>(Ljava/lang/String;Ljava/lang/String;Ljava/lang/String;)V:com/google/javascript/jscomp/SourceFile.<init>(Ljava/lang/String;)V'
p24
I6
sS'java/lang/String.length()I'
p25
I6
sS'com/google/common/base/Preconditions.checkArgument(ZLjava/lang/Object;)V:com/google/javascript/jscomp/SourceFile$Builder.buildFromCode(Ljava/lang/String;Ljava/lang/String;)Lcom/google/javascript/jscomp/SourceFile;:com/google/javascript/jscomp/SourceFile$Preloaded.<init>(Ljava/lang/String;Ljava/lang/String;Ljava/lang/String;)V:com/google/javascript/jscomp/SourceFile.setOriginalPath(Ljava/lang/String;)V'
p26
I6
s.