(dp0
S'com/google/javascript/jscomp/AbstractMessageFormatter$Color.<init>(Ljava/lang/String;ILjava/lang/String;)V'
p1
I5
sS'com/google/javascript/jscomp/AbstractMessageFormatter$Color.<init>(Ljava/lang/String;ILjava/lang/String;)V:java/lang/Enum.<init>(Ljava/lang/String;I)V'
p2
I5
s.