(dp0
S'com/google/common/io/CharSource.wrap(Ljava/lang/CharSequence;)Lcom/google/common/io/CharSource;:com/google/common/io/CharSource.wrap(Ljava/lang/CharSequence;)Lcom/google/common/io/CharSource;:com/google/common/io/CharSource.wrap(Ljava/lang/CharSequence;)Lcom/google/common/io/CharSource;:com/google/common/io/CharSource.wrap(Ljava/lang/CharSequence;)Lcom/google/common/io/CharSource;:com/google/common/io/CharSource.wrap(Ljava/lang/CharSequence;)Lcom/google/common/io/CharSource;:com/google/common/io/CharSource.wrap(Ljava/lang/CharSequence;)Lcom/google/common/io/CharSource;'
p1
I1
sS'com/google/common/io/CharSource.wrap(Ljava/lang/CharSequence;)Lcom/google/common/io/CharSource;:com/google/common/io/CharSource.wrap(Ljava/lang/CharSequence;)Lcom/google/common/io/CharSource;'
p2
I1
sS'com/google/common/io/CharSource.wrap(Ljava/lang/CharSequence;)Lcom/google/common/io/CharSource;:com/google/common/io/CharSource.wrap(Ljava/lang/CharSequence;)Lcom/google/common/io/CharSource;:com/google/common/io/CharSource.wrap(Ljava/lang/CharSequence;)Lcom/google/common/io/CharSource;:com/google/common/io/CharSource.wrap(Ljava/lang/CharSequence;)Lcom/google/common/io/CharSource;:com/google/common/io/CharSource.wrap(Ljava/lang/CharSequence;)Lcom/google/common/io/CharSource;:java/lang/Object.<init>()V'
p3
I1
sS'com/google/common/io/CharSource.wrap(Ljava/lang/CharSequence;)Lcom/google/common/io/CharSource;:com/google/common/io/CharSource.wrap(Ljava/lang/CharSequence;)Lcom/google/common/io/CharSource;:com/google/common/io/CharSource.wrap(Ljava/lang/CharSequence;)Lcom/google/common/io/CharSource;:java/lang/Object.<init>()V'
p4
I1
sS'com/google/common/io/CharSource.wrap(Ljava/lang/CharSequence;)Lcom/google/common/io/CharSource;:java/lang/Object.<init>()V'
p5
I1
sS'com/google/common/io/CharSource.wrap(Ljava/lang/CharSequence;)Lcom/google/common/io/CharSource;:com/google/common/io/CharSource.wrap(Ljava/lang/CharSequence;)Lcom/google/common/io/CharSource;:com/google/common/io/CharSource.wrap(Ljava/lang/CharSequence;)Lcom/google/common/io/CharSource;:com/google/common/io/CharSource.wrap(Ljava/lang/CharSequence;)Lcom/google/common/io/CharSource;'
p6
I1
sS'com/google/common/io/CharSource.wrap(Ljava/lang/CharSequence;)Lcom/google/common/io/CharSource;'
p7
I1
sS'com/google/common/io/CharSource.wrap(Ljava/lang/CharSequence;)Lcom/google/common/io/CharSource;:com/google/common/io/CharSource.wrap(Ljava/lang/CharSequence;)Lcom/google/common/io/CharSource;:com/google/common/io/CharSource.wrap(Ljava/lang/CharSequence;)Lcom/google/common/io/CharSource;:com/google/common/io/CharSource.wrap(Ljava/lang/CharSequence;)Lcom/google/common/io/CharSource;:java/lang/Object.<init>()V'
p8
I1
sS'com/google/common/io/CharSource.wrap(Ljava/lang/CharSequence;)Lcom/google/common/io/CharSource;:com/google/common/io/CharSource.wrap(Ljava/lang/CharSequence;)Lcom/google/common/io/CharSource;:java/lang/Object.<init>()V'
p9
I1
sS'com/google/common/io/CharSource.wrap(Ljava/lang/CharSequence;)Lcom/google/common/io/CharSource;:com/google/common/io/CharSource.wrap(Ljava/lang/CharSequence;)Lcom/google/common/io/CharSource;:com/google/common/io/CharSource.wrap(Ljava/lang/CharSequence;)Lcom/google/common/io/CharSource;:com/google/common/io/CharSource.wrap(Ljava/lang/CharSequence;)Lcom/google/common/io/CharSource;:com/google/common/io/CharSource.wrap(Ljava/lang/CharSequence;)Lcom/google/common/io/CharSource;:com/google/common/io/CharSource.wrap(Ljava/lang/CharSequence;)Lcom/google/common/io/CharSource;:java/lang/Object.<init>()V'
p10
I1
sS'com/google/common/io/CharSource.wrap(Ljava/lang/CharSequence;)Lcom/google/common/io/CharSource;:com/google/common/io/CharSource.wrap(Ljava/lang/CharSequence;)Lcom/google/common/io/CharSource;:com/google/common/io/CharSource.wrap(Ljava/lang/CharSequence;)Lcom/google/common/io/CharSource;:com/google/common/io/CharSource.wrap(Ljava/lang/CharSequence;)Lcom/google/common/io/CharSource;:com/google/common/io/CharSource.wrap(Ljava/lang/CharSequence;)Lcom/google/common/io/CharSource;:com/google/common/io/CharSource.wrap(Ljava/lang/CharSequence;)Lcom/google/common/io/CharSource;:com/google/common/io/CharSource.wrap(Ljava/lang/CharSequence;)Lcom/google/common/io/CharSource;:java/lang/Object.<init>()V'
p11
I1
sS'java/lang/Object.<init>()V'
p12
I3
sS'com/google/common/io/CharSource.wrap(Ljava/lang/CharSequence;)Lcom/google/common/io/CharSource;:com/google/common/io/CharSource.wrap(Ljava/lang/CharSequence;)Lcom/google/common/io/CharSource;:com/google/common/io/CharSource.wrap(Ljava/lang/CharSequence;)Lcom/google/common/io/CharSource;:com/google/common/io/CharSource.wrap(Ljava/lang/CharSequence;)Lcom/google/common/io/CharSource;:com/google/common/io/CharSource.wrap(Ljava/lang/CharSequence;)Lcom/google/common/io/CharSource;:com/google/common/io/CharSource.wrap(Ljava/lang/CharSequence;)Lcom/google/common/io/CharSource;:com/google/common/io/CharSource.wrap(Ljava/lang/CharSequence;)Lcom/google/common/io/CharSource;:com/google/common/io/CharSource.wrap(Ljava/lang/CharSequence;)Lcom/google/common/io/CharSource;'
p13
I1
sS'com/google/common/io/CharSource.wrap(Ljava/lang/CharSequence;)Lcom/google/common/io/CharSource;:com/google/common/io/CharSource.wrap(Ljava/lang/CharSequence;)Lcom/google/common/io/CharSource;:com/google/common/io/CharSource.wrap(Ljava/lang/CharSequence;)Lcom/google/common/io/CharSource;'
p14
I1
sS'com/google/common/io/CharSource.wrap(Ljava/lang/CharSequence;)Lcom/google/common/io/CharSource;:com/google/common/io/CharSource.wrap(Ljava/lang/CharSequence;)Lcom/google/common/io/CharSource;:com/google/common/io/CharSource.wrap(Ljava/lang/CharSequence;)Lcom/google/common/io/CharSource;:com/google/common/io/CharSource.wrap(Ljava/lang/CharSequence;)Lcom/google/common/io/CharSource;:com/google/common/io/CharSource.wrap(Ljava/lang/CharSequence;)Lcom/google/common/io/CharSource;:com/google/common/io/CharSource.wrap(Ljava/lang/CharSequence;)Lcom/google/common/io/CharSource;:com/google/common/io/CharSource.wrap(Ljava/lang/CharSequence;)Lcom/google/common/io/CharSource;'
p15
I1
sS'com/google/common/io/CharSource.wrap(Ljava/lang/CharSequence;)Lcom/google/common/io/CharSource;:com/google/common/io/CharSource.wrap(Ljava/lang/CharSequence;)Lcom/google/common/io/CharSource;:com/google/common/io/CharSource.wrap(Ljava/lang/CharSequence;)Lcom/google/common/io/CharSource;:com/google/common/io/CharSource.wrap(Ljava/lang/CharSequence;)Lcom/google/common/io/CharSource;:com/google/common/io/CharSource.wrap(Ljava/lang/CharSequence;)Lcom/google/common/io/CharSource;'
p16
I1
s.