(dp0
S'com/google/javascript/jscomp/FunctionInjector$CanInlineResult.<init>(Ljava/lang/String;I)V'
p1
I3
sS'com/google/javascript/jscomp/FunctionInjector$InliningMode.<init>(Ljava/lang/String;I)V:java/lang/Enum.<init>(Ljava/lang/String;I)V'
p2
I2
sS'com/google/javascript/jscomp/FunctionInjector$CanInlineResult.<init>(Ljava/lang/String;I)V:java/lang/Enum.<init>(Ljava/lang/String;I)V'
p3
I3
sS'com/google/javascript/jscomp/FunctionInjector$InliningMode.<init>(Ljava/lang/String;I)V'
p4
I2
s.