(dp0
S'java/lang/Integer.valueOf(I)Ljava/lang/Integer;'
p1
I5
sS'com/google/common/collect/ImmutableSet.of(Ljava/lang/Object;Ljava/lang/Object;Ljava/lang/Object;Ljava/lang/Object;Ljava/lang/Object;)Lcom/google/common/collect/ImmutableSet;'
p2
I1
s.