(dp0
S'com/google/common/base/Preconditions.checkArgument(Z)V:com/google/common/base/Preconditions.checkArgument(Z)V:com/google/common/base/Preconditions.checkArgument(Z)V'
p1
I1
sS'com/google/common/base/Preconditions.checkArgument(Z)V:com/google/common/base/Preconditions.checkArgument(Z)V:com/google/common/base/Preconditions.checkArgument(Z)V:java/lang/Object.<init>()V'
p2
I1
sS'java/lang/Object.<init>()V'
p3
I1
sS'com/google/common/base/Preconditions.checkArgument(Z)V:com/google/javascript/rhino/Node$StringNode.<init>(ILjava/lang/String;)V:com/google/javascript/rhino/Node.<init>(I)V'
p4
I2
sS'com/google/common/base/Preconditions.checkArgument(Z)V:com/google/common/base/Preconditions.checkArgument(Z)V:com/google/common/base/Preconditions.checkArgument(Z)V:com/google/common/base/Preconditions.checkArgument(Z)V:com/google/javascript/rhino/Node$StringNode.<init>(ILjava/lang/String;)V:com/google/javascript/rhino/Node.<init>(I)V:java/lang/Object.<init>()V'
p5
I1
sS'com/google/common/base/Preconditions.checkArgument(Z)V:com/google/common/base/Preconditions.checkArgument(Z)V:com/google/common/base/Preconditions.checkArgument(Z)V:com/google/common/base/Preconditions.checkArgument(Z)V:com/google/javascript/rhino/Node$StringNode.<init>(ILjava/lang/String;)V'
p6
I1
sS'com/google/common/base/Preconditions.checkArgument(Z)V:com/google/common/base/Preconditions.checkArgument(Z)V:com/google/common/base/Preconditions.checkArgument(Z)V:com/google/common/base/Preconditions.checkArgument(Z)V'
p7
I1
sS'com/google/common/base/Preconditions.checkArgument(Z)V:com/google/common/base/Preconditions.checkArgument(Z)V:com/google/common/base/Preconditions.checkArgument(Z)V:com/google/javascript/rhino/Node$StringNode.<init>(ILjava/lang/String;)V'
p8
I1
sS'com/google/javascript/rhino/Node$StringNode.<init>(ILjava/lang/String;)V'
p9
I2
sS'com/google/common/base/Preconditions.checkArgument(Z)V:com/google/common/base/Preconditions.checkArgument(Z)V:java/lang/Object.<init>()V'
p10
I2
sS'com/google/common/base/Preconditions.checkArgument(Z)V:com/google/common/base/Preconditions.checkArgument(Z)V:com/google/common/base/Preconditions.checkArgument(Z)V:com/google/common/base/Preconditions.checkArgument(Z)V:com/google/javascript/rhino/Node$StringNode.<init>(ILjava/lang/String;)V:com/google/javascript/rhino/Node.<init>(I)V'
p11
I1
sS'com/google/common/base/Preconditions.checkArgument(Z)V:com/google/common/base/Preconditions.checkArgument(Z)V:com/google/common/base/Preconditions.checkArgument(Z)V:com/google/javascript/rhino/Node$StringNode.<init>(ILjava/lang/String;)V:com/google/javascript/rhino/Node.<init>(I)V:java/lang/Object.<init>()V'
p12
I1
sS'com/google/common/base/Preconditions.checkArgument(Z)V:com/google/common/base/Preconditions.checkArgument(Z)V'
p13
I1
sS'com/google/common/base/Preconditions.checkArgument(Z)V:com/google/common/base/Preconditions.checkArgument(Z)V:com/google/common/base/Preconditions.checkArgument(Z)V:com/google/common/base/Preconditions.checkArgument(Z)V:com/google/common/base/Preconditions.checkArgument(Z)V'
p14
I1
sS'com/google/javascript/rhino/Node$StringNode.<init>(ILjava/lang/String;)V:com/google/javascript/rhino/Node.<init>(I)V'
p15
I2
sS'com/google/common/base/Preconditions.checkArgument(Z)V:com/google/javascript/rhino/Node$StringNode.<init>(ILjava/lang/String;)V'
p16
I2
sS'com/google/common/base/Preconditions.checkArgument(Z)V:com/google/common/base/Preconditions.checkArgument(Z)V:com/google/javascript/rhino/Node$StringNode.<init>(ILjava/lang/String;)V'
p17
I1
sS'com/google/common/base/Preconditions.checkArgument(Z)V'
p18
I1
sS'com/google/common/base/Preconditions.checkArgument(Z)V:java/lang/Object.<init>()V'
p19
I2
sS'com/google/common/base/Preconditions.checkArgument(Z)V:com/google/common/base/Preconditions.checkArgument(Z)V:com/google/javascript/rhino/Node$StringNode.<init>(ILjava/lang/String;)V:com/google/javascript/rhino/Node.<init>(I)V:java/lang/Object.<init>()V'
p20
I1
sS'com/google/javascript/rhino/Node$StringNode.<init>(ILjava/lang/String;)V:com/google/javascript/rhino/Node.<init>(I)V:java/lang/Object.<init>()V'
p21
I2
sS'com/google/common/base/Preconditions.checkArgument(Z)V:com/google/javascript/rhino/Node$StringNode.<init>(ILjava/lang/String;)V:com/google/javascript/rhino/Node.<init>(I)V:java/lang/Object.<init>()V'
p22
I2
sS'com/google/common/base/Preconditions.checkArgument(Z)V:com/google/common/base/Preconditions.checkArgument(Z)V:com/google/common/base/Preconditions.checkArgument(Z)V:com/google/javascript/rhino/Node$StringNode.<init>(ILjava/lang/String;)V:com/google/javascript/rhino/Node.<init>(I)V'
p23
I1
sS'com/google/common/base/Preconditions.checkArgument(Z)V:com/google/common/base/Preconditions.checkArgument(Z)V:com/google/common/base/Preconditions.checkArgument(Z)V:com/google/common/base/Preconditions.checkArgument(Z)V:java/lang/Object.<init>()V'
p24
I2
sS'com/google/common/base/Preconditions.checkArgument(Z)V:com/google/common/base/Preconditions.checkArgument(Z)V:com/google/javascript/rhino/Node$StringNode.<init>(ILjava/lang/String;)V:com/google/javascript/rhino/Node.<init>(I)V'
p25
I1
s.