(dp0
S'com/google/javascript/jscomp/GlobalNamespace$Name$Type.<init>(Ljava/lang/String;I)V'
p1
I5
sS'com/google/javascript/jscomp/GlobalNamespace$Name$Type.<init>(Ljava/lang/String;I)V:java/lang/Enum.<init>(Ljava/lang/String;I)V'
p2
I5
s.