(dp0
S'com/google/javascript/jscomp/CompilerInput.<init>(Lcom/google/javascript/jscomp/SourceAst;Z)V:com/google/javascript/jscomp/CompilerInput.<init>(Lcom/google/javascript/jscomp/SourceAst;Lcom/google/javascript/rhino/InputId;Z)V:com/google/common/collect/Sets.newHashSet()Ljava/util/HashSet;:com/google/javascript/jscomp/CompilerInput.<init>(Lcom/google/javascript/jscomp/SourceAst;Z)V:com/google/javascript/jscomp/CompilerInput.<init>(Lcom/google/javascript/jscomp/SourceAst;Lcom/google/javascript/rhino/InputId;Z)V:com/google/common/collect/Sets.newHashSet()Ljava/util/HashSet;:com/google/javascript/jscomp/CompilerInput.<init>(Lcom/google/javascript/jscomp/SourceAst;Z)V:com/google/javascript/jscomp/CompilerInput.<init>(Lcom/google/javascript/jscomp/SourceAst;Lcom/google/javascript/rhino/InputId;Z)V:com/google/common/collect/Sets.newHashSet()Ljava/util/HashSet;:com/google/javascript/jscomp/SourceFile.builder()Lcom/google/javascript/jscomp/SourceFile$Builder;'
p1
I1
sS'java/util/logging/Logger.getLogger(Ljava/lang/String;)Ljava/util/logging/Logger;'
p2
I1
sS'com/google/javascript/jscomp/CompilerInput.<init>(Lcom/google/javascript/jscomp/SourceAst;Z)V:com/google/javascript/jscomp/CompilerInput.<init>(Lcom/google/javascript/jscomp/SourceAst;Lcom/google/javascript/rhino/InputId;Z)V:com/google/common/collect/Sets.newHashSet()Ljava/util/HashSet;:com/google/javascript/jscomp/CompilerInput.<init>(Lcom/google/javascript/jscomp/SourceAst;Z)V:com/google/javascript/jscomp/CompilerInput.<init>(Lcom/google/javascript/jscomp/SourceAst;Lcom/google/javascript/rhino/InputId;Z)V:com/google/common/collect/Sets.newHashSet()Ljava/util/HashSet;:com/google/javascript/jscomp/JsAst.<init>(Lcom/google/javascript/jscomp/SourceFile;)V'
p3
I1
sS'com/google/javascript/jscomp/CompilerInput.<init>(Lcom/google/javascript/jscomp/SourceAst;Z)V:com/google/javascript/jscomp/CompilerInput.<init>(Lcom/google/javascript/jscomp/SourceAst;Lcom/google/javascript/rhino/InputId;Z)V:com/google/common/collect/Sets.newHashSet()Ljava/util/HashSet;:com/google/javascript/jscomp/SourceFile$Builder.buildFromCode(Ljava/lang/String;Ljava/lang/String;)Lcom/google/javascript/jscomp/SourceFile;:com/google/javascript/jscomp/SourceFile$Preloaded.<init>(Ljava/lang/String;Ljava/lang/String;Ljava/lang/String;)V:com/google/javascript/jscomp/SourceFile.<init>(Ljava/lang/String;)V:java/lang/String.isEmpty()Z'
p4
I1
sS'com/google/javascript/jscomp/CompilerInput.<init>(Lcom/google/javascript/jscomp/SourceAst;Z)V:com/google/javascript/jscomp/CompilerInput.<init>(Lcom/google/javascript/jscomp/SourceAst;Lcom/google/javascript/rhino/InputId;Z)V:com/google/common/collect/Sets.newHashSet()Ljava/util/HashSet;:com/google/javascript/jscomp/CompilerInput.<init>(Lcom/google/javascript/jscomp/SourceAst;Z)V:com/google/javascript/jscomp/CompilerInput.<init>(Lcom/google/javascript/jscomp/SourceAst;Lcom/google/javascript/rhino/InputId;Z)V:com/google/common/collect/Sets.newHashSet()Ljava/util/HashSet;:com/google/javascript/jscomp/SourceFile$Builder.buildFromCode(Ljava/lang/String;Ljava/lang/String;)Lcom/google/javascript/jscomp/SourceFile;:com/google/javascript/jscomp/SourceFile$Preloaded.<init>(Ljava/lang/String;Ljava/lang/String;Ljava/lang/String;)V:com/google/javascript/jscomp/SourceFile.setOriginalPath(Ljava/lang/String;)V'
p5
I1
sS'com/google/javascript/jscomp/CompilerInput.<init>(Lcom/google/javascript/jscomp/SourceAst;Z)V:com/google/javascript/jscomp/CompilerInput.<init>(Lcom/google/javascript/jscomp/SourceAst;Lcom/google/javascript/rhino/InputId;Z)V:com/google/common/collect/Sets.newHashSet()Ljava/util/HashSet;:com/google/javascript/jscomp/CompilerInput.<init>(Lcom/google/javascript/jscomp/SourceAst;Z)V:com/google/javascript/jscomp/CompilerInput.<init>(Lcom/google/javascript/jscomp/SourceAst;Lcom/google/javascript/rhino/InputId;Z)V:com/google/common/collect/Sets.newHashSet()Ljava/util/HashSet;:com/google/javascript/jscomp/CompilerInput.<init>(Lcom/google/javascript/jscomp/SourceAst;Z)V:com/google/javascript/jscomp/CompilerInput.<init>(Lcom/google/javascript/jscomp/SourceAst;Lcom/google/javascript/rhino/InputId;Z)V:java/lang/Object.<init>()V'
p6
I1
sS'com/google/javascript/jscomp/SourceFile$Builder.buildFromCode(Ljava/lang/String;Ljava/lang/String;)Lcom/google/javascript/jscomp/SourceFile;:com/google/javascript/jscomp/SourceFile$Preloaded.<init>(Ljava/lang/String;Ljava/lang/String;Ljava/lang/String;)V:com/google/javascript/jscomp/SourceFile.<init>(Ljava/lang/String;)V'
p7
I1
sS'com/google/javascript/jscomp/SourceFile$Builder.buildFromCode(Ljava/lang/String;Ljava/lang/String;)Lcom/google/javascript/jscomp/SourceFile;:com/google/javascript/jscomp/SourceFile$Preloaded.<init>(Ljava/lang/String;Ljava/lang/String;Ljava/lang/String;)V:com/google/javascript/jscomp/SourceFile.<init>(Ljava/lang/String;)V:java/lang/String.isEmpty()Z'
p8
I1
sS'com/google/javascript/jscomp/CompilerInput.<init>(Lcom/google/javascript/jscomp/SourceAst;Z)V:com/google/javascript/jscomp/CompilerInput.<init>(Lcom/google/javascript/jscomp/SourceAst;Lcom/google/javascript/rhino/InputId;Z)V:com/google/common/collect/Sets.newHashSet()Ljava/util/HashSet;:com/google/javascript/jscomp/SourceFile$Builder.buildFromCode(Ljava/lang/String;Ljava/lang/String;)Lcom/google/javascript/jscomp/SourceFile;:com/google/javascript/jscomp/SourceFile$Preloaded.<init>(Ljava/lang/String;Ljava/lang/String;Ljava/lang/String;)V:com/google/javascript/jscomp/SourceFile.setOriginalPath(Ljava/lang/String;)V'
p9
I1
sS'com/google/javascript/jscomp/CompilerInput.<init>(Lcom/google/javascript/jscomp/SourceAst;Z)V:com/google/javascript/jscomp/CompilerInput.<init>(Lcom/google/javascript/jscomp/SourceAst;Lcom/google/javascript/rhino/InputId;Z)V:com/google/common/collect/Sets.newHashSet()Ljava/util/HashSet;:com/google/javascript/jscomp/CompilerInput.<init>(Lcom/google/javascript/jscomp/SourceAst;Z)V:com/google/javascript/jscomp/CompilerInput.<init>(Lcom/google/javascript/jscomp/SourceAst;Lcom/google/javascript/rhino/InputId;Z)V:com/google/common/collect/Sets.newHashSet()Ljava/util/HashSet;:com/google/javascript/jscomp/CompilerInput.<init>(Lcom/google/javascript/jscomp/SourceAst;Z)V:com/google/javascript/jscomp/CompilerInput.<init>(Lcom/google/javascript/jscomp/SourceAst;Lcom/google/javascript/rhino/InputId;Z)V:com/google/common/collect/Sets.newHashSet()Ljava/util/HashSet;:com/google/javascript/jscomp/SourceFile$Builder.buildFromCode(Ljava/lang/String;Ljava/lang/String;)Lcom/google/javascript/jscomp/SourceFile;'
p10
I1
sS'com/google/javascript/jscomp/CompilerInput.<init>(Lcom/google/javascript/jscomp/SourceAst;Z)V:com/google/javascript/jscomp/CompilerInput.<init>(Lcom/google/javascript/jscomp/SourceAst;Lcom/google/javascript/rhino/InputId;Z)V:com/google/common/collect/Sets.newHashSet()Ljava/util/HashSet;:com/google/javascript/jscomp/CompilerInput.<init>(Lcom/google/javascript/jscomp/SourceAst;Z)V:com/google/javascript/jscomp/CompilerInput.<init>(Lcom/google/javascript/jscomp/SourceAst;Lcom/google/javascript/rhino/InputId;Z)V:com/google/common/collect/Sets.newHashSet()Ljava/util/HashSet;:com/google/javascript/jscomp/SourceFile$Builder.buildFromCode(Ljava/lang/String;Ljava/lang/String;)Lcom/google/javascript/jscomp/SourceFile;:com/google/javascript/jscomp/SourceFile$Preloaded.<init>(Ljava/lang/String;Ljava/lang/String;Ljava/lang/String;)V:com/google/javascript/jscomp/SourceFile.<init>(Ljava/lang/String;)V:java/lang/String.isEmpty()Z'
p11
I1
sS'com/google/javascript/jscomp/CompilerInput.<init>(Lcom/google/javascript/jscomp/SourceAst;Z)V:com/google/javascript/jscomp/CompilerInput.<init>(Lcom/google/javascript/jscomp/SourceAst;Lcom/google/javascript/rhino/InputId;Z)V:com/google/common/collect/Sets.newHashSet()Ljava/util/HashSet;:com/google/javascript/jscomp/SourceFile$Builder.buildFromCode(Ljava/lang/String;Ljava/lang/String;)Lcom/google/javascript/jscomp/SourceFile;'
p12
I1
sS'com/google/javascript/jscomp/CompilerInput.<init>(Lcom/google/javascript/jscomp/SourceAst;Z)V:com/google/javascript/jscomp/CompilerInput.<init>(Lcom/google/javascript/jscomp/SourceAst;Lcom/google/javascript/rhino/InputId;Z)V:com/google/common/collect/Sets.newHashSet()Ljava/util/HashSet;:com/google/javascript/jscomp/CompilerInput.<init>(Lcom/google/javascript/jscomp/SourceAst;Z)V:com/google/javascript/jscomp/CompilerInput.<init>(Lcom/google/javascript/jscomp/SourceAst;Lcom/google/javascript/rhino/InputId;Z)V:com/google/common/collect/Sets.newHashSet()Ljava/util/HashSet;:com/google/javascript/jscomp/CompilerInput.<init>(Lcom/google/javascript/jscomp/SourceAst;Z)V'
p13
I1
sS'com/google/javascript/jscomp/CompilerInput.<init>(Lcom/google/javascript/jscomp/SourceAst;Z)V:com/google/javascript/jscomp/CompilerInput.<init>(Lcom/google/javascript/jscomp/SourceAst;Lcom/google/javascript/rhino/InputId;Z)V:com/google/common/collect/Sets.newHashSet()Ljava/util/HashSet;:com/google/javascript/jscomp/CompilerInput.<init>(Lcom/google/javascript/jscomp/SourceAst;Z)V:com/google/javascript/jscomp/CompilerInput.<init>(Lcom/google/javascript/jscomp/SourceAst;Lcom/google/javascript/rhino/InputId;Z)V:com/google/common/collect/Sets.newHashSet()Ljava/util/HashSet;:com/google/javascript/jscomp/CompilerInput.<init>(Lcom/google/javascript/jscomp/SourceAst;Z)V:com/google/javascript/jscomp/CompilerInput.<init>(Lcom/google/javascript/jscomp/SourceAst;Lcom/google/javascript/rhino/InputId;Z)V:com/google/common/collect/Sets.newHashSet()Ljava/util/HashSet;:com/google/javascript/jscomp/CompilerInput.<init>(Lcom/google/javascript/jscomp/SourceAst;Z)V:com/google/javascript/jscomp/SourceAst.getInputId()Lcom/google/javascript/rhino/InputId;'
p14
I1
sS'com/google/javascript/jscomp/SourceFile.builder()Lcom/google/javascript/jscomp/SourceFile$Builder;:com/google/javascript/jscomp/SourceFile$Builder.<init>()V'
p15
I1
sS'com/google/javascript/jscomp/CompilerInput.<init>(Lcom/google/javascript/jscomp/SourceAst;Z)V:com/google/javascript/jscomp/CompilerInput.<init>(Lcom/google/javascript/jscomp/SourceAst;Lcom/google/javascript/rhino/InputId;Z)V:java/lang/Object.<init>()V'
p16
I1
sS'com/google/javascript/jscomp/CompilerInput.<init>(Lcom/google/javascript/jscomp/SourceAst;Z)V:com/google/javascript/jscomp/CompilerInput.<init>(Lcom/google/javascript/jscomp/SourceAst;Lcom/google/javascript/rhino/InputId;Z)V:com/google/common/collect/Sets.newHashSet()Ljava/util/HashSet;:com/google/javascript/jscomp/CompilerInput.<init>(Lcom/google/javascript/jscomp/SourceAst;Z)V:com/google/javascript/jscomp/CompilerInput.<init>(Lcom/google/javascript/jscomp/SourceAst;Lcom/google/javascript/rhino/InputId;Z)V:com/google/common/collect/Sets.newHashSet()Ljava/util/HashSet;:com/google/javascript/jscomp/CompilerInput.<init>(Lcom/google/javascript/jscomp/SourceAst;Z)V:com/google/javascript/jscomp/CompilerInput.<init>(Lcom/google/javascript/jscomp/SourceAst;Lcom/google/javascript/rhino/InputId;Z)V:com/google/common/collect/Sets.newHashSet()Ljava/util/HashSet;:com/google/javascript/jscomp/SourceFile.builder()Lcom/google/javascript/jscomp/SourceFile$Builder;:com/google/javascript/jscomp/SourceFile$Builder.<init>()V'
p17
I1
sS'com/google/javascript/jscomp/CompilerInput.<init>(Lcom/google/javascript/jscomp/SourceAst;Z)V:com/google/javascript/jscomp/CompilerInput.<init>(Lcom/google/javascript/jscomp/SourceAst;Lcom/google/javascript/rhino/InputId;Z)V:com/google/common/collect/Sets.newHashSet()Ljava/util/HashSet;:com/google/javascript/jscomp/CompilerInput.<init>(Lcom/google/javascript/jscomp/SourceAst;Z)V:com/google/javascript/jscomp/CompilerInput.<init>(Lcom/google/javascript/jscomp/SourceAst;Lcom/google/javascript/rhino/InputId;Z)V:com/google/common/collect/Sets.newHashSet()Ljava/util/HashSet;:com/google/javascript/jscomp/CompilerInput.<init>(Lcom/google/javascript/jscomp/SourceAst;Z)V:com/google/javascript/jscomp/CompilerInput.<init>(Lcom/google/javascript/jscomp/SourceAst;Lcom/google/javascript/rhino/InputId;Z)V:com/google/common/collect/Sets.newHashSet()Ljava/util/HashSet;:com/google/javascript/jscomp/SourceFile$Builder.buildFromCode(Ljava/lang/String;Ljava/lang/String;)Lcom/google/javascript/jscomp/SourceFile;:com/google/javascript/jscomp/SourceFile$Preloaded.<init>(Ljava/lang/String;Ljava/lang/String;Ljava/lang/String;)V:com/google/javascript/jscomp/SourceFile.setOriginalPath(Ljava/lang/String;)V'
p18
I1
sS'com/google/javascript/jscomp/CompilerInput.<init>(Lcom/google/javascript/jscomp/SourceAst;Z)V:com/google/javascript/jscomp/CompilerInput.<init>(Lcom/google/javascript/jscomp/SourceAst;Lcom/google/javascript/rhino/InputId;Z)V:com/google/common/collect/Sets.newHashSet()Ljava/util/HashSet;:com/google/javascript/jscomp/CompilerInput.<init>(Lcom/google/javascript/jscomp/SourceAst;Z)V:com/google/javascript/jscomp/CompilerInput.<init>(Lcom/google/javascript/jscomp/SourceAst;Lcom/google/javascript/rhino/InputId;Z)V:com/google/common/collect/Sets.newHashSet()Ljava/util/HashSet;:com/google/javascript/jscomp/CompilerInput.<init>(Lcom/google/javascript/jscomp/SourceAst;Z)V:com/google/javascript/jscomp/CompilerInput.<init>(Lcom/google/javascript/jscomp/SourceAst;Lcom/google/javascript/rhino/InputId;Z)V:com/google/common/collect/Sets.newHashSet()Ljava/util/HashSet;:com/google/javascript/jscomp/CompilerInput.<init>(Lcom/google/javascript/jscomp/SourceAst;Z)V:com/google/javascript/jscomp/CompilerInput.<init>(Lcom/google/javascript/jscomp/SourceAst;Lcom/google/javascript/rhino/InputId;Z)V:com/google/common/collect/Sets.newHashSet()Ljava/util/HashSet;:com/google/javascript/jscomp/CompilerInput.<init>(Lcom/google/javascript/jscomp/SourceAst;Z)V:com/google/javascript/jscomp/CompilerInput.<init>(Lcom/google/javascript/jscomp/SourceAst;Lcom/google/javascript/rhino/InputId;Z)V'
p19
I1
sS'com/google/javascript/jscomp/CompilerInput.<init>(Lcom/google/javascript/jscomp/SourceAst;Z)V:com/google/javascript/jscomp/CompilerInput.<init>(Lcom/google/javascript/jscomp/SourceAst;Lcom/google/javascript/rhino/InputId;Z)V:com/google/common/collect/Sets.newHashSet()Ljava/util/HashSet;:com/google/javascript/jscomp/CompilerInput.<init>(Lcom/google/javascript/jscomp/SourceAst;Z)V:com/google/javascript/jscomp/CompilerInput.<init>(Lcom/google/javascript/jscomp/SourceAst;Lcom/google/javascript/rhino/InputId;Z)V:com/google/common/collect/Sets.newHashSet()Ljava/util/HashSet;:com/google/javascript/jscomp/CompilerInput.<init>(Lcom/google/javascript/jscomp/SourceAst;Z)V:com/google/javascript/jscomp/CompilerInput.<init>(Lcom/google/javascript/jscomp/SourceAst;Lcom/google/javascript/rhino/InputId;Z)V:com/google/common/collect/Sets.newHashSet()Ljava/util/HashSet;:com/google/javascript/jscomp/CompilerInput.<init>(Lcom/google/javascript/jscomp/SourceAst;Z)V:com/google/javascript/jscomp/CompilerInput.<init>(Lcom/google/javascript/jscomp/SourceAst;Lcom/google/javascript/rhino/InputId;Z)V:com/google/common/collect/Sets.newHashSet()Ljava/util/HashSet;:com/google/javascript/jscomp/SourceFile$Builder.buildFromCode(Ljava/lang/String;Ljava/lang/String;)Lcom/google/javascript/jscomp/SourceFile;:com/google/javascript/jscomp/SourceFile$Preloaded.<init>(Ljava/lang/String;Ljava/lang/String;Ljava/lang/String;)V:com/google/javascript/jscomp/SourceFile.access$000(Lcom/google/javascript/jscomp/SourceFile;Ljava/lang/String;)V'
p20
I1
sS'com/google/javascript/jscomp/CompilerInput.<init>(Lcom/google/javascript/jscomp/SourceAst;Z)V:com/google/javascript/jscomp/CompilerInput.<init>(Lcom/google/javascript/jscomp/SourceAst;Lcom/google/javascript/rhino/InputId;Z)V:com/google/common/collect/Sets.newHashSet()Ljava/util/HashSet;:com/google/javascript/jscomp/SourceFile$Builder.buildFromCode(Ljava/lang/String;Ljava/lang/String;)Lcom/google/javascript/jscomp/SourceFile;:com/google/javascript/jscomp/SourceFile$Preloaded.<init>(Ljava/lang/String;Ljava/lang/String;Ljava/lang/String;)V:com/google/javascript/jscomp/SourceFile.<init>(Ljava/lang/String;)V'
p21
I1
sS'com/google/javascript/jscomp/CompilerInput.<init>(Lcom/google/javascript/jscomp/SourceAst;Z)V:com/google/javascript/jscomp/CompilerInput.<init>(Lcom/google/javascript/jscomp/SourceAst;Lcom/google/javascript/rhino/InputId;Z)V:com/google/common/collect/Sets.newHashSet()Ljava/util/HashSet;:com/google/javascript/jscomp/CompilerInput.<init>(Lcom/google/javascript/jscomp/SourceAst;Z)V:com/google/javascript/jscomp/CompilerInput.<init>(Lcom/google/javascript/jscomp/SourceAst;Lcom/google/javascript/rhino/InputId;Z)V:com/google/common/collect/Sets.newHashSet()Ljava/util/HashSet;:com/google/javascript/jscomp/CompilerInput.<init>(Lcom/google/javascript/jscomp/SourceAst;Z)V:com/google/javascript/jscomp/CompilerInput.<init>(Lcom/google/javascript/jscomp/SourceAst;Lcom/google/javascript/rhino/InputId;Z)V:com/google/common/collect/Sets.newHashSet()Ljava/util/HashSet;:com/google/javascript/jscomp/JsAst.<init>(Lcom/google/javascript/jscomp/SourceFile;)V:com/google/javascript/rhino/InputId.<init>(Ljava/lang/String;)V:java/lang/Object.<init>()V'
p22
I1
sS'com/google/javascript/jscomp/SourceFile$Builder.buildFromCode(Ljava/lang/String;Ljava/lang/String;)Lcom/google/javascript/jscomp/SourceFile;:com/google/javascript/jscomp/SourceFile$Preloaded.<init>(Ljava/lang/String;Ljava/lang/String;Ljava/lang/String;)V:com/google/javascript/jscomp/SourceFile.access$000(Lcom/google/javascript/jscomp/SourceFile;Ljava/lang/String;)V'
p23
I1
sS'com/google/javascript/jscomp/CompilerInput.<init>(Lcom/google/javascript/jscomp/SourceAst;Z)V:com/google/javascript/jscomp/CompilerInput.<init>(Lcom/google/javascript/jscomp/SourceAst;Lcom/google/javascript/rhino/InputId;Z)V:com/google/common/collect/Sets.newHashSet()Ljava/util/HashSet;:com/google/javascript/jscomp/SourceFile$Builder.buildFromCode(Ljava/lang/String;Ljava/lang/String;)Lcom/google/javascript/jscomp/SourceFile;:com/google/javascript/jscomp/SourceFile$Preloaded.<init>(Ljava/lang/String;Ljava/lang/String;Ljava/lang/String;)V:com/google/javascript/jscomp/SourceFile.access$000(Lcom/google/javascript/jscomp/SourceFile;Ljava/lang/String;)V'
p24
I1
sS'com/google/javascript/jscomp/SourceFile.builder()Lcom/google/javascript/jscomp/SourceFile$Builder;'
p25
I1
sS'com/google/javascript/jscomp/CompilerInput.<init>(Lcom/google/javascript/jscomp/SourceAst;Z)V:com/google/javascript/jscomp/CompilerInput.<init>(Lcom/google/javascript/jscomp/SourceAst;Lcom/google/javascript/rhino/InputId;Z)V:com/google/common/collect/Sets.newHashSet()Ljava/util/HashSet;:com/google/javascript/jscomp/CompilerInput.<init>(Lcom/google/javascript/jscomp/SourceAst;Z)V:com/google/javascript/jscomp/CompilerInput.<init>(Lcom/google/javascript/jscomp/SourceAst;Lcom/google/javascript/rhino/InputId;Z)V:com/google/common/collect/Sets.newHashSet()Ljava/util/HashSet;:com/google/javascript/jscomp/CompilerInput.<init>(Lcom/google/javascript/jscomp/SourceAst;Z)V:com/google/javascript/jscomp/CompilerInput.<init>(Lcom/google/javascript/jscomp/SourceAst;Lcom/google/javascript/rhino/InputId;Z)V:com/google/common/collect/Sets.newHashSet()Ljava/util/HashSet;:com/google/javascript/jscomp/CompilerInput.<init>(Lcom/google/javascript/jscomp/SourceAst;Z)V:com/google/javascript/jscomp/CompilerInput.<init>(Lcom/google/javascript/jscomp/SourceAst;Lcom/google/javascript/rhino/InputId;Z)V:com/google/common/collect/Sets.newHashSet()Ljava/util/HashSet;:com/google/javascript/jscomp/SourceFile$Builder.buildFromCode(Ljava/lang/String;Ljava/lang/String;)Lcom/google/javascript/jscomp/SourceFile;:com/google/javascript/jscomp/SourceFile$Preloaded.<init>(Ljava/lang/String;Ljava/lang/String;Ljava/lang/String;)V:com/google/javascript/jscomp/SourceFile.setOriginalPath(Ljava/lang/String;)V'
p26
I1
sS'com/google/javascript/jscomp/CompilerInput.<init>(Lcom/google/javascript/jscomp/SourceAst;Z)V:com/google/javascript/jscomp/CompilerInput.<init>(Lcom/google/javascript/jscomp/SourceAst;Lcom/google/javascript/rhino/InputId;Z)V:com/google/common/collect/Sets.newHashSet()Ljava/util/HashSet;:com/google/javascript/jscomp/CompilerInput.<init>(Lcom/google/javascript/jscomp/SourceAst;Z)V:com/google/javascript/jscomp/CompilerInput.<init>(Lcom/google/javascript/jscomp/SourceAst;Lcom/google/javascript/rhino/InputId;Z)V:com/google/common/collect/Sets.newHashSet()Ljava/util/HashSet;:com/google/javascript/jscomp/SourceFile$Builder.buildFromCode(Ljava/lang/String;Ljava/lang/String;)Lcom/google/javascript/jscomp/SourceFile;:com/google/javascript/jscomp/SourceFile$Preloaded.<init>(Ljava/lang/String;Ljava/lang/String;Ljava/lang/String;)V:com/google/javascript/jscomp/SourceFile.<init>(Ljava/lang/String;)V'
p27
I1
sS'com/google/javascript/jscomp/JsAst.<init>(Lcom/google/javascript/jscomp/SourceFile;)V:com/google/javascript/rhino/InputId.<init>(Ljava/lang/String;)V:java/lang/Object.<init>()V'
p28
I1
sS'com/google/javascript/jscomp/CompilerInput.<init>(Lcom/google/javascript/jscomp/SourceAst;Z)V:com/google/javascript/jscomp/CompilerInput.<init>(Lcom/google/javascript/jscomp/SourceAst;Lcom/google/javascript/rhino/InputId;Z)V:com/google/common/collect/Sets.newHashSet()Ljava/util/HashSet;:com/google/javascript/jscomp/SourceFile$Builder.buildFromCode(Ljava/lang/String;Ljava/lang/String;)Lcom/google/javascript/jscomp/SourceFile;:com/google/javascript/jscomp/SourceFile$Preloaded.<init>(Ljava/lang/String;Ljava/lang/String;Ljava/lang/String;)V'
p29
I1
sS'com/google/javascript/jscomp/CompilerInput.<init>(Lcom/google/javascript/jscomp/SourceAst;Z)V:com/google/javascript/jscomp/CompilerInput.<init>(Lcom/google/javascript/jscomp/SourceAst;Lcom/google/javascript/rhino/InputId;Z)V:com/google/common/collect/Sets.newHashSet()Ljava/util/HashSet;:com/google/javascript/jscomp/CompilerInput.<init>(Lcom/google/javascript/jscomp/SourceAst;Z)V'
p30
I1
sS'com/google/javascript/jscomp/CompilerInput.<init>(Lcom/google/javascript/jscomp/SourceAst;Z)V:com/google/javascript/jscomp/CompilerInput.<init>(Lcom/google/javascript/jscomp/SourceAst;Lcom/google/javascript/rhino/InputId;Z)V:com/google/common/collect/Sets.newHashSet()Ljava/util/HashSet;:com/google/javascript/jscomp/CompilerInput.<init>(Lcom/google/javascript/jscomp/SourceAst;Z)V:com/google/javascript/jscomp/CompilerInput.<init>(Lcom/google/javascript/jscomp/SourceAst;Lcom/google/javascript/rhino/InputId;Z)V:com/google/common/collect/Sets.newHashSet()Ljava/util/HashSet;:com/google/javascript/jscomp/CompilerInput.<init>(Lcom/google/javascript/jscomp/SourceAst;Z)V:com/google/javascript/jscomp/CompilerInput.<init>(Lcom/google/javascript/jscomp/SourceAst;Lcom/google/javascript/rhino/InputId;Z)V:com/google/common/collect/Sets.newHashSet()Ljava/util/HashSet;:com/google/javascript/jscomp/CompilerInput.<init>(Lcom/google/javascript/jscomp/SourceAst;Z)V:com/google/javascript/jscomp/CompilerInput.<init>(Lcom/google/javascript/jscomp/SourceAst;Lcom/google/javascript/rhino/InputId;Z)V:com/google/common/collect/Sets.newHashSet()Ljava/util/HashSet;:com/google/javascript/jscomp/JsAst.<init>(Lcom/google/javascript/jscomp/SourceFile;)V:com/google/javascript/jscomp/SourceFile.getName()Ljava/lang/String;'
p31
I2
sS'com/google/javascript/jscomp/CompilerInput.<init>(Lcom/google/javascript/jscomp/SourceAst;Z)V:com/google/javascript/jscomp/CompilerInput.<init>(Lcom/google/javascript/jscomp/SourceAst;Lcom/google/javascript/rhino/InputId;Z)V:com/google/common/collect/Sets.newHashSet()Ljava/util/HashSet;:com/google/javascript/jscomp/CompilerInput.<init>(Lcom/google/javascript/jscomp/SourceAst;Z)V:com/google/javascript/jscomp/SourceAst.getInputId()Lcom/google/javascript/rhino/InputId;'
p32
I1
sS'com/google/javascript/jscomp/CompilerInput.<init>(Lcom/google/javascript/jscomp/SourceAst;Z)V:com/google/javascript/jscomp/CompilerInput.<init>(Lcom/google/javascript/jscomp/SourceAst;Lcom/google/javascript/rhino/InputId;Z)V:com/google/common/collect/Sets.newHashSet()Ljava/util/HashSet;:com/google/javascript/jscomp/CompilerInput.<init>(Lcom/google/javascript/jscomp/SourceAst;Z)V:com/google/javascript/jscomp/CompilerInput.<init>(Lcom/google/javascript/jscomp/SourceAst;Lcom/google/javascript/rhino/InputId;Z)V:com/google/common/collect/Sets.newHashSet()Ljava/util/HashSet;:com/google/javascript/jscomp/CompilerInput.<init>(Lcom/google/javascript/jscomp/SourceAst;Z)V:com/google/javascript/jscomp/CompilerInput.<init>(Lcom/google/javascript/jscomp/SourceAst;Lcom/google/javascript/rhino/InputId;Z)V:com/google/common/collect/Sets.newHashSet()Ljava/util/HashSet;:com/google/javascript/jscomp/CompilerInput.<init>(Lcom/google/javascript/jscomp/SourceAst;Z)V:com/google/javascript/jscomp/CompilerInput.<init>(Lcom/google/javascript/jscomp/SourceAst;Lcom/google/javascript/rhino/InputId;Z)V:java/lang/Object.<init>()V'
p33
I1
sS'com/google/javascript/jscomp/CompilerInput.<init>(Lcom/google/javascript/jscomp/SourceAst;Z)V:com/google/javascript/jscomp/CompilerInput.<init>(Lcom/google/javascript/jscomp/SourceAst;Lcom/google/javascript/rhino/InputId;Z)V:com/google/common/collect/Sets.newHashSet()Ljava/util/HashSet;:com/google/javascript/jscomp/CompilerInput.<init>(Lcom/google/javascript/jscomp/SourceAst;Z)V:com/google/javascript/jscomp/CompilerInput.<init>(Lcom/google/javascript/jscomp/SourceAst;Lcom/google/javascript/rhino/InputId;Z)V:com/google/common/collect/Sets.newHashSet()Ljava/util/HashSet;:com/google/javascript/jscomp/SourceFile$Builder.buildFromCode(Ljava/lang/String;Ljava/lang/String;)Lcom/google/javascript/jscomp/SourceFile;:com/google/javascript/jscomp/SourceFile$Preloaded.<init>(Ljava/lang/String;Ljava/lang/String;Ljava/lang/String;)V:com/google/javascript/jscomp/SourceFile.<init>(Ljava/lang/String;)V:java/lang/Object.<init>()V'
p34
I1
sS'com/google/javascript/jscomp/JsAst.<init>(Lcom/google/javascript/jscomp/SourceFile;)V'
p35
I1
sS'com/google/javascript/jscomp/SourceFile$Builder.buildFromCode(Ljava/lang/String;Ljava/lang/String;)Lcom/google/javascript/jscomp/SourceFile;:com/google/javascript/jscomp/SourceFile$Preloaded.<init>(Ljava/lang/String;Ljava/lang/String;Ljava/lang/String;)V:com/google/javascript/jscomp/SourceFile.setOriginalPath(Ljava/lang/String;)V'
p36
I1
sS'com/google/javascript/jscomp/CompilerInput.<init>(Lcom/google/javascript/jscomp/SourceAst;Z)V:com/google/javascript/jscomp/CompilerInput.<init>(Lcom/google/javascript/jscomp/SourceAst;Lcom/google/javascript/rhino/InputId;Z)V:com/google/common/collect/Sets.newHashSet()Ljava/util/HashSet;:com/google/javascript/jscomp/SourceFile.builder()Lcom/google/javascript/jscomp/SourceFile$Builder;'
p37
I1
sS'com/google/javascript/jscomp/CompilerInput.<init>(Lcom/google/javascript/jscomp/SourceAst;Z)V:com/google/javascript/jscomp/CompilerInput.<init>(Lcom/google/javascript/jscomp/SourceAst;Lcom/google/javascript/rhino/InputId;Z)V:com/google/common/collect/Sets.newHashSet()Ljava/util/HashSet;:com/google/javascript/jscomp/CompilerInput.<init>(Lcom/google/javascript/jscomp/SourceAst;Z)V:com/google/javascript/jscomp/CompilerInput.<init>(Lcom/google/javascript/jscomp/SourceAst;Lcom/google/javascript/rhino/InputId;Z)V:com/google/common/collect/Sets.newHashSet()Ljava/util/HashSet;:com/google/javascript/jscomp/CompilerInput.<init>(Lcom/google/javascript/jscomp/SourceAst;Z)V:com/google/javascript/jscomp/CompilerInput.<init>(Lcom/google/javascript/jscomp/SourceAst;Lcom/google/javascript/rhino/InputId;Z)V:com/google/common/collect/Sets.newHashSet()Ljava/util/HashSet;:com/google/javascript/jscomp/SourceFile$Builder.buildFromCode(Ljava/lang/String;Ljava/lang/String;)Lcom/google/javascript/jscomp/SourceFile;:com/google/javascript/jscomp/SourceFile$Preloaded.<init>(Ljava/lang/String;Ljava/lang/String;Ljava/lang/String;)V'
p38
I1
sS'com/google/javascript/jscomp/CompilerInput.<init>(Lcom/google/javascript/jscomp/SourceAst;Z)V:com/google/javascript/jscomp/CompilerInput.<init>(Lcom/google/javascript/jscomp/SourceAst;Lcom/google/javascript/rhino/InputId;Z)V:com/google/common/collect/Sets.newHashSet()Ljava/util/HashSet;:com/google/javascript/jscomp/CompilerInput.<init>(Lcom/google/javascript/jscomp/SourceAst;Z)V:com/google/javascript/jscomp/CompilerInput.<init>(Lcom/google/javascript/jscomp/SourceAst;Lcom/google/javascript/rhino/InputId;Z)V:com/google/common/collect/Sets.newHashSet()Ljava/util/HashSet;:com/google/javascript/jscomp/CompilerInput.<init>(Lcom/google/javascript/jscomp/SourceAst;Z)V:com/google/javascript/jscomp/CompilerInput.<init>(Lcom/google/javascript/jscomp/SourceAst;Lcom/google/javascript/rhino/InputId;Z)V:com/google/common/collect/Sets.newHashSet()Ljava/util/HashSet;:com/google/javascript/jscomp/JsAst.<init>(Lcom/google/javascript/jscomp/SourceFile;)V'
p39
I1
sS'com/google/javascript/jscomp/CompilerInput.<init>(Lcom/google/javascript/jscomp/SourceAst;Z)V:com/google/javascript/jscomp/CompilerInput.<init>(Lcom/google/javascript/jscomp/SourceAst;Lcom/google/javascript/rhino/InputId;Z)V:com/google/common/collect/Sets.newHashSet()Ljava/util/HashSet;:com/google/javascript/jscomp/CompilerInput.<init>(Lcom/google/javascript/jscomp/SourceAst;Z)V:com/google/javascript/jscomp/CompilerInput.<init>(Lcom/google/javascript/jscomp/SourceAst;Lcom/google/javascript/rhino/InputId;Z)V:com/google/common/collect/Sets.newHashSet()Ljava/util/HashSet;:com/google/javascript/jscomp/CompilerInput.<init>(Lcom/google/javascript/jscomp/SourceAst;Z)V:com/google/javascript/jscomp/CompilerInput.<init>(Lcom/google/javascript/jscomp/SourceAst;Lcom/google/javascript/rhino/InputId;Z)V:com/google/common/collect/Sets.newHashSet()Ljava/util/HashSet;:com/google/javascript/jscomp/SourceFile$Builder.buildFromCode(Ljava/lang/String;Ljava/lang/String;)Lcom/google/javascript/jscomp/SourceFile;:com/google/javascript/jscomp/SourceFile$Preloaded.<init>(Ljava/lang/String;Ljava/lang/String;Ljava/lang/String;)V:com/google/javascript/jscomp/SourceFile.<init>(Ljava/lang/String;)V'
p40
I1
sS'com/google/javascript/jscomp/CompilerInput.<init>(Lcom/google/javascript/jscomp/SourceAst;Z)V:com/google/javascript/jscomp/CompilerInput.<init>(Lcom/google/javascript/jscomp/SourceAst;Lcom/google/javascript/rhino/InputId;Z)V:com/google/common/collect/Sets.newHashSet()Ljava/util/HashSet;:com/google/javascript/jscomp/JsAst.<init>(Lcom/google/javascript/jscomp/SourceFile;)V:com/google/javascript/rhino/InputId.<init>(Ljava/lang/String;)V'
p41
I1
sS'com/google/javascript/jscomp/CompilerInput.<init>(Lcom/google/javascript/jscomp/SourceAst;Z)V:com/google/javascript/jscomp/CompilerInput.<init>(Lcom/google/javascript/jscomp/SourceAst;Lcom/google/javascript/rhino/InputId;Z)V:com/google/common/collect/Sets.newHashSet()Ljava/util/HashSet;:com/google/javascript/jscomp/CompilerInput.<init>(Lcom/google/javascript/jscomp/SourceAst;Z)V:com/google/javascript/jscomp/CompilerInput.<init>(Lcom/google/javascript/jscomp/SourceAst;Lcom/google/javascript/rhino/InputId;Z)V:com/google/common/collect/Sets.newHashSet()Ljava/util/HashSet;:com/google/javascript/jscomp/JsAst.<init>(Lcom/google/javascript/jscomp/SourceFile;)V:com/google/javascript/rhino/InputId.<init>(Ljava/lang/String;)V'
p42
I1
sS'com/google/javascript/jscomp/CompilerInput.<init>(Lcom/google/javascript/jscomp/SourceAst;Z)V:com/google/javascript/jscomp/CompilerInput.<init>(Lcom/google/javascript/jscomp/SourceAst;Lcom/google/javascript/rhino/InputId;Z)V:com/google/common/collect/Sets.newHashSet()Ljava/util/HashSet;:com/google/javascript/jscomp/CompilerInput.<init>(Lcom/google/javascript/jscomp/SourceAst;Z)V:com/google/javascript/jscomp/CompilerInput.<init>(Lcom/google/javascript/jscomp/SourceAst;Lcom/google/javascript/rhino/InputId;Z)V:com/google/common/collect/Sets.newHashSet()Ljava/util/HashSet;:com/google/javascript/jscomp/JsAst.<init>(Lcom/google/javascript/jscomp/SourceFile;)V:com/google/javascript/rhino/InputId.<init>(Ljava/lang/String;)V:java/lang/Object.<init>()V'
p43
I1
sS'com/google/javascript/jscomp/CompilerInput.<init>(Lcom/google/javascript/jscomp/SourceAst;Z)V:com/google/javascript/jscomp/CompilerInput.<init>(Lcom/google/javascript/jscomp/SourceAst;Lcom/google/javascript/rhino/InputId;Z)V:com/google/common/collect/Sets.newHashSet()Ljava/util/HashSet;:com/google/javascript/jscomp/CompilerInput.<init>(Lcom/google/javascript/jscomp/SourceAst;Z)V:com/google/javascript/jscomp/CompilerInput.<init>(Lcom/google/javascript/jscomp/SourceAst;Lcom/google/javascript/rhino/InputId;Z)V:com/google/common/collect/Sets.newHashSet()Ljava/util/HashSet;:com/google/javascript/jscomp/CompilerInput.<init>(Lcom/google/javascript/jscomp/SourceAst;Z)V:com/google/javascript/jscomp/CompilerInput.<init>(Lcom/google/javascript/jscomp/SourceAst;Lcom/google/javascript/rhino/InputId;Z)V:com/google/common/collect/Sets.newHashSet()Ljava/util/HashSet;:com/google/javascript/jscomp/CompilerInput.<init>(Lcom/google/javascript/jscomp/SourceAst;Z)V:com/google/javascript/jscomp/CompilerInput.<init>(Lcom/google/javascript/jscomp/SourceAst;Lcom/google/javascript/rhino/InputId;Z)V:com/google/common/collect/Sets.newHashSet()Ljava/util/HashSet;:com/google/javascript/jscomp/JsAst.<init>(Lcom/google/javascript/jscomp/SourceFile;)V'
p44
I1
sS'com/google/javascript/jscomp/CompilerInput.<init>(Lcom/google/javascript/jscomp/SourceAst;Z)V:com/google/javascript/jscomp/CompilerInput.<init>(Lcom/google/javascript/jscomp/SourceAst;Lcom/google/javascript/rhino/InputId;Z)V:com/google/common/collect/Sets.newHashSet()Ljava/util/HashSet;:com/google/javascript/jscomp/SourceFile.builder()Lcom/google/javascript/jscomp/SourceFile$Builder;:com/google/javascript/jscomp/SourceFile$Builder.<init>()V'
p45
I1
sS'com/google/javascript/jscomp/CompilerInput.<init>(Lcom/google/javascript/jscomp/SourceAst;Z)V:com/google/javascript/jscomp/CompilerInput.<init>(Lcom/google/javascript/jscomp/SourceAst;Lcom/google/javascript/rhino/InputId;Z)V:com/google/common/collect/Sets.newHashSet()Ljava/util/HashSet;:com/google/javascript/jscomp/CompilerInput.<init>(Lcom/google/javascript/jscomp/SourceAst;Z)V:com/google/javascript/jscomp/CompilerInput.<init>(Lcom/google/javascript/jscomp/SourceAst;Lcom/google/javascript/rhino/InputId;Z)V:com/google/common/collect/Sets.newHashSet()Ljava/util/HashSet;:com/google/javascript/jscomp/CompilerInput.<init>(Lcom/google/javascript/jscomp/SourceAst;Z)V:com/google/javascript/jscomp/CompilerInput.<init>(Lcom/google/javascript/jscomp/SourceAst;Lcom/google/javascript/rhino/InputId;Z)V:com/google/common/collect/Sets.newHashSet()Ljava/util/HashSet;:com/google/javascript/jscomp/CompilerInput.<init>(Lcom/google/javascript/jscomp/SourceAst;Z)V:com/google/javascript/jscomp/CompilerInput.<init>(Lcom/google/javascript/jscomp/SourceAst;Lcom/google/javascript/rhino/InputId;Z)V:com/google/common/collect/Sets.newHashSet()Ljava/util/HashSet;:com/google/javascript/jscomp/JsAst.<init>(Lcom/google/javascript/jscomp/SourceFile;)V:java/lang/Object.<init>()V'
p46
I1
sS'com/google/javascript/jscomp/CompilerInput.<init>(Lcom/google/javascript/jscomp/SourceAst;Z)V:com/google/javascript/jscomp/CompilerInput.<init>(Lcom/google/javascript/jscomp/SourceAst;Lcom/google/javascript/rhino/InputId;Z)V:com/google/common/collect/Sets.newHashSet()Ljava/util/HashSet;:com/google/javascript/jscomp/CompilerInput.<init>(Lcom/google/javascript/jscomp/SourceAst;Z)V:com/google/javascript/jscomp/CompilerInput.<init>(Lcom/google/javascript/jscomp/SourceAst;Lcom/google/javascript/rhino/InputId;Z)V:com/google/common/collect/Sets.newHashSet()Ljava/util/HashSet;:com/google/javascript/jscomp/CompilerInput.<init>(Lcom/google/javascript/jscomp/SourceAst;Z)V:com/google/javascript/jscomp/CompilerInput.<init>(Lcom/google/javascript/jscomp/SourceAst;Lcom/google/javascript/rhino/InputId;Z)V:com/google/common/collect/Sets.newHashSet()Ljava/util/HashSet;:com/google/javascript/jscomp/CompilerInput.<init>(Lcom/google/javascript/jscomp/SourceAst;Z)V:com/google/javascript/jscomp/CompilerInput.<init>(Lcom/google/javascript/jscomp/SourceAst;Lcom/google/javascript/rhino/InputId;Z)V:com/google/common/collect/Sets.newHashSet()Ljava/util/HashSet;:com/google/javascript/jscomp/SourceFile$Builder.buildFromCode(Ljava/lang/String;Ljava/lang/String;)Lcom/google/javascript/jscomp/SourceFile;'
p47
I1
sS'com/google/javascript/jscomp/CompilerInput.<init>(Lcom/google/javascript/jscomp/SourceAst;Z)V:com/google/javascript/jscomp/CompilerInput.<init>(Lcom/google/javascript/jscomp/SourceAst;Lcom/google/javascript/rhino/InputId;Z)V:com/google/common/collect/Sets.newHashSet()Ljava/util/HashSet;:com/google/javascript/jscomp/CompilerInput.<init>(Lcom/google/javascript/jscomp/SourceAst;Z)V:com/google/javascript/jscomp/CompilerInput.<init>(Lcom/google/javascript/jscomp/SourceAst;Lcom/google/javascript/rhino/InputId;Z)V:com/google/common/collect/Sets.newHashSet()Ljava/util/HashSet;:com/google/javascript/jscomp/CompilerInput.<init>(Lcom/google/javascript/jscomp/SourceAst;Z)V:com/google/javascript/jscomp/CompilerInput.<init>(Lcom/google/javascript/jscomp/SourceAst;Lcom/google/javascript/rhino/InputId;Z)V:com/google/common/collect/Sets.newHashSet()Ljava/util/HashSet;:com/google/javascript/jscomp/CompilerInput.<init>(Lcom/google/javascript/jscomp/SourceAst;Z)V:com/google/javascript/jscomp/CompilerInput.<init>(Lcom/google/javascript/jscomp/SourceAst;Lcom/google/javascript/rhino/InputId;Z)V:com/google/common/collect/Sets.newHashSet()Ljava/util/HashSet;:com/google/javascript/jscomp/SourceFile.builder()Lcom/google/javascript/jscomp/SourceFile$Builder;:com/google/javascript/jscomp/SourceFile$Builder.<init>()V:java/lang/Object.<init>()V'
p48
I1
sS'com/google/javascript/jscomp/CompilerInput.<init>(Lcom/google/javascript/jscomp/SourceAst;Z)V:com/google/javascript/jscomp/CompilerInput.<init>(Lcom/google/javascript/jscomp/SourceAst;Lcom/google/javascript/rhino/InputId;Z)V:com/google/common/collect/Sets.newHashSet()Ljava/util/HashSet;:com/google/javascript/jscomp/CompilerInput.<init>(Lcom/google/javascript/jscomp/SourceAst;Z)V:com/google/javascript/jscomp/CompilerInput.<init>(Lcom/google/javascript/jscomp/SourceAst;Lcom/google/javascript/rhino/InputId;Z)V:com/google/common/collect/Sets.newHashSet()Ljava/util/HashSet;:com/google/javascript/jscomp/CompilerInput.<init>(Lcom/google/javascript/jscomp/SourceAst;Z)V:com/google/javascript/jscomp/CompilerInput.<init>(Lcom/google/javascript/jscomp/SourceAst;Lcom/google/javascript/rhino/InputId;Z)V:com/google/common/collect/Sets.newHashSet()Ljava/util/HashSet;:com/google/javascript/jscomp/CompilerInput.<init>(Lcom/google/javascript/jscomp/SourceAst;Z)V:com/google/javascript/jscomp/CompilerInput.<init>(Lcom/google/javascript/jscomp/SourceAst;Lcom/google/javascript/rhino/InputId;Z)V:com/google/common/collect/Sets.newHashSet()Ljava/util/HashSet;:com/google/javascript/jscomp/CompilerInput.<init>(Lcom/google/javascript/jscomp/SourceAst;Z)V:com/google/javascript/jscomp/CompilerInput.<init>(Lcom/google/javascript/jscomp/SourceAst;Lcom/google/javascript/rhino/InputId;Z)V:com/google/common/collect/Sets.newHashSet()Ljava/util/HashSet;'
p49
I1
sS'com/google/javascript/jscomp/CompilerInput.<init>(Lcom/google/javascript/jscomp/SourceAst;Z)V:com/google/javascript/jscomp/CompilerInput.<init>(Lcom/google/javascript/jscomp/SourceAst;Lcom/google/javascript/rhino/InputId;Z)V:com/google/common/collect/Sets.newHashSet()Ljava/util/HashSet;:com/google/javascript/jscomp/SourceFile$Builder.buildFromCode(Ljava/lang/String;Ljava/lang/String;)Lcom/google/javascript/jscomp/SourceFile;:com/google/javascript/jscomp/SourceFile$Preloaded.<init>(Ljava/lang/String;Ljava/lang/String;Ljava/lang/String;)V:com/google/javascript/jscomp/SourceFile.access$000(Lcom/google/javascript/jscomp/SourceFile;Ljava/lang/String;)V:com/google/javascript/jscomp/SourceFile.setCode(Ljava/lang/String;)V'
p50
I1
sS'com/google/javascript/jscomp/CompilerInput.<init>(Lcom/google/javascript/jscomp/SourceAst;Z)V:com/google/javascript/jscomp/CompilerInput.<init>(Lcom/google/javascript/jscomp/SourceAst;Lcom/google/javascript/rhino/InputId;Z)V:com/google/common/collect/Sets.newHashSet()Ljava/util/HashSet;:com/google/javascript/jscomp/CompilerInput.<init>(Lcom/google/javascript/jscomp/SourceAst;Z)V:com/google/javascript/jscomp/CompilerInput.<init>(Lcom/google/javascript/jscomp/SourceAst;Lcom/google/javascript/rhino/InputId;Z)V:com/google/common/collect/Sets.newHashSet()Ljava/util/HashSet;:com/google/javascript/jscomp/CompilerInput.<init>(Lcom/google/javascript/jscomp/SourceAst;Z)V:com/google/javascript/jscomp/CompilerInput.<init>(Lcom/google/javascript/jscomp/SourceAst;Lcom/google/javascript/rhino/InputId;Z)V:com/google/common/collect/Sets.newHashSet()Ljava/util/HashSet;:com/google/javascript/jscomp/CompilerInput.<init>(Lcom/google/javascript/jscomp/SourceAst;Z)V:com/google/javascript/jscomp/CompilerInput.<init>(Lcom/google/javascript/jscomp/SourceAst;Lcom/google/javascript/rhino/InputId;Z)V:com/google/common/collect/Sets.newHashSet()Ljava/util/HashSet;:com/google/javascript/jscomp/SourceFile$Builder.buildFromCode(Ljava/lang/String;Ljava/lang/String;)Lcom/google/javascript/jscomp/SourceFile;:com/google/javascript/jscomp/SourceFile$Preloaded.<init>(Ljava/lang/String;Ljava/lang/String;Ljava/lang/String;)V'
p51
I1
sS'com/google/javascript/jscomp/CompilerInput.<init>(Lcom/google/javascript/jscomp/SourceAst;Z)V'
p52
I1
sS'com/google/javascript/jscomp/CompilerInput.<init>(Lcom/google/javascript/jscomp/SourceAst;Z)V:com/google/javascript/jscomp/CompilerInput.<init>(Lcom/google/javascript/jscomp/SourceAst;Lcom/google/javascript/rhino/InputId;Z)V:com/google/common/collect/Sets.newHashSet()Ljava/util/HashSet;:com/google/javascript/jscomp/CompilerInput.<init>(Lcom/google/javascript/jscomp/SourceAst;Z)V:com/google/javascript/jscomp/CompilerInput.<init>(Lcom/google/javascript/jscomp/SourceAst;Lcom/google/javascript/rhino/InputId;Z)V:com/google/common/collect/Sets.newHashSet()Ljava/util/HashSet;:com/google/javascript/jscomp/CompilerInput.<init>(Lcom/google/javascript/jscomp/SourceAst;Z)V:com/google/javascript/jscomp/CompilerInput.<init>(Lcom/google/javascript/jscomp/SourceAst;Lcom/google/javascript/rhino/InputId;Z)V:com/google/common/collect/Sets.newHashSet()Ljava/util/HashSet;:com/google/javascript/jscomp/CompilerInput.<init>(Lcom/google/javascript/jscomp/SourceAst;Z)V:com/google/javascript/jscomp/CompilerInput.<init>(Lcom/google/javascript/jscomp/SourceAst;Lcom/google/javascript/rhino/InputId;Z)V:com/google/common/collect/Sets.newHashSet()Ljava/util/HashSet;:com/google/javascript/jscomp/CompilerInput.<init>(Lcom/google/javascript/jscomp/SourceAst;Z)V:com/google/javascript/jscomp/SourceAst.getInputId()Lcom/google/javascript/rhino/InputId;'
p53
I1
sS'com/google/javascript/jscomp/CompilerInput.<init>(Lcom/google/javascript/jscomp/SourceAst;Z)V:com/google/javascript/jscomp/CompilerInput.<init>(Lcom/google/javascript/jscomp/SourceAst;Lcom/google/javascript/rhino/InputId;Z)V:com/google/common/collect/Sets.newHashSet()Ljava/util/HashSet;:com/google/javascript/jscomp/CompilerInput.<init>(Lcom/google/javascript/jscomp/SourceAst;Z)V:com/google/javascript/jscomp/CompilerInput.<init>(Lcom/google/javascript/jscomp/SourceAst;Lcom/google/javascript/rhino/InputId;Z)V:com/google/common/collect/Sets.newHashSet()Ljava/util/HashSet;:com/google/javascript/jscomp/CompilerInput.<init>(Lcom/google/javascript/jscomp/SourceAst;Z)V:com/google/javascript/jscomp/CompilerInput.<init>(Lcom/google/javascript/jscomp/SourceAst;Lcom/google/javascript/rhino/InputId;Z)V'
p54
I1
sS'com/google/javascript/jscomp/CompilerInput.<init>(Lcom/google/javascript/jscomp/SourceAst;Z)V:com/google/javascript/jscomp/CompilerInput.<init>(Lcom/google/javascript/jscomp/SourceAst;Lcom/google/javascript/rhino/InputId;Z)V:com/google/common/collect/Sets.newHashSet()Ljava/util/HashSet;:com/google/javascript/jscomp/CompilerInput.<init>(Lcom/google/javascript/jscomp/SourceAst;Z)V:com/google/javascript/jscomp/CompilerInput.<init>(Lcom/google/javascript/jscomp/SourceAst;Lcom/google/javascript/rhino/InputId;Z)V:com/google/common/collect/Sets.newHashSet()Ljava/util/HashSet;:com/google/javascript/jscomp/CompilerInput.<init>(Lcom/google/javascript/jscomp/SourceAst;Z)V:com/google/javascript/jscomp/CompilerInput.<init>(Lcom/google/javascript/jscomp/SourceAst;Lcom/google/javascript/rhino/InputId;Z)V:com/google/common/collect/Sets.newHashSet()Ljava/util/HashSet;:com/google/javascript/jscomp/JsAst.<init>(Lcom/google/javascript/jscomp/SourceFile;)V:com/google/javascript/rhino/InputId.<init>(Ljava/lang/String;)V'
p55
I1
sS'com/google/javascript/jscomp/CompilerInput.<init>(Lcom/google/javascript/jscomp/SourceAst;Z)V:com/google/javascript/jscomp/CompilerInput.<init>(Lcom/google/javascript/jscomp/SourceAst;Lcom/google/javascript/rhino/InputId;Z)V:com/google/common/collect/Sets.newHashSet()Ljava/util/HashSet;:com/google/javascript/jscomp/CompilerInput.<init>(Lcom/google/javascript/jscomp/SourceAst;Z)V:com/google/javascript/jscomp/CompilerInput.<init>(Lcom/google/javascript/jscomp/SourceAst;Lcom/google/javascript/rhino/InputId;Z)V:com/google/common/collect/Sets.newHashSet()Ljava/util/HashSet;:com/google/javascript/jscomp/CompilerInput.<init>(Lcom/google/javascript/jscomp/SourceAst;Z)V:com/google/javascript/jscomp/CompilerInput.<init>(Lcom/google/javascript/jscomp/SourceAst;Lcom/google/javascript/rhino/InputId;Z)V:com/google/common/collect/Sets.newHashSet()Ljava/util/HashSet;:com/google/javascript/jscomp/SourceFile$Builder.buildFromCode(Ljava/lang/String;Ljava/lang/String;)Lcom/google/javascript/jscomp/SourceFile;:com/google/javascript/jscomp/SourceFile$Preloaded.<init>(Ljava/lang/String;Ljava/lang/String;Ljava/lang/String;)V:com/google/javascript/jscomp/SourceFile.access$000(Lcom/google/javascript/jscomp/SourceFile;Ljava/lang/String;)V'
p56
I1
sS'com/google/javascript/jscomp/CompilerInput.<init>(Lcom/google/javascript/jscomp/SourceAst;Z)V:com/google/javascript/jscomp/CompilerInput.<init>(Lcom/google/javascript/jscomp/SourceAst;Lcom/google/javascript/rhino/InputId;Z)V:com/google/common/collect/Sets.newHashSet()Ljava/util/HashSet;:com/google/javascript/jscomp/CompilerInput.<init>(Lcom/google/javascript/jscomp/SourceAst;Z)V:com/google/javascript/jscomp/CompilerInput.<init>(Lcom/google/javascript/jscomp/SourceAst;Lcom/google/javascript/rhino/InputId;Z)V:com/google/common/collect/Sets.newHashSet()Ljava/util/HashSet;:com/google/javascript/jscomp/CompilerInput.<init>(Lcom/google/javascript/jscomp/SourceAst;Z)V:com/google/javascript/jscomp/CompilerInput.<init>(Lcom/google/javascript/jscomp/SourceAst;Lcom/google/javascript/rhino/InputId;Z)V:com/google/common/collect/Sets.newHashSet()Ljava/util/HashSet;:com/google/javascript/jscomp/CompilerInput.<init>(Lcom/google/javascript/jscomp/SourceAst;Z)V:com/google/javascript/jscomp/CompilerInput.<init>(Lcom/google/javascript/jscomp/SourceAst;Lcom/google/javascript/rhino/InputId;Z)V:com/google/common/collect/Sets.newHashSet()Ljava/util/HashSet;'
p57
I1
sS'com/google/javascript/jscomp/CompilerInput.<init>(Lcom/google/javascript/jscomp/SourceAst;Z)V:com/google/javascript/jscomp/CompilerInput.<init>(Lcom/google/javascript/jscomp/SourceAst;Lcom/google/javascript/rhino/InputId;Z)V:com/google/common/collect/Sets.newHashSet()Ljava/util/HashSet;:com/google/javascript/jscomp/CompilerInput.<init>(Lcom/google/javascript/jscomp/SourceAst;Z)V:com/google/javascript/jscomp/CompilerInput.<init>(Lcom/google/javascript/jscomp/SourceAst;Lcom/google/javascript/rhino/InputId;Z)V:com/google/common/collect/Sets.newHashSet()Ljava/util/HashSet;:com/google/javascript/jscomp/CompilerInput.<init>(Lcom/google/javascript/jscomp/SourceAst;Z)V:com/google/javascript/jscomp/CompilerInput.<init>(Lcom/google/javascript/jscomp/SourceAst;Lcom/google/javascript/rhino/InputId;Z)V:com/google/common/collect/Sets.newHashSet()Ljava/util/HashSet;:com/google/javascript/jscomp/CompilerInput.<init>(Lcom/google/javascript/jscomp/SourceAst;Z)V:com/google/javascript/jscomp/CompilerInput.<init>(Lcom/google/javascript/jscomp/SourceAst;Lcom/google/javascript/rhino/InputId;Z)V:com/google/common/collect/Sets.newHashSet()Ljava/util/HashSet;:com/google/javascript/jscomp/SourceFile.builder()Lcom/google/javascript/jscomp/SourceFile$Builder;:com/google/javascript/jscomp/SourceFile$Builder.<init>()V'
p58
I1
sS'com/google/javascript/jscomp/CompilerInput.<init>(Lcom/google/javascript/jscomp/SourceAst;Z)V:com/google/javascript/jscomp/CompilerInput.<init>(Lcom/google/javascript/jscomp/SourceAst;Lcom/google/javascript/rhino/InputId;Z)V:com/google/common/collect/Sets.newHashSet()Ljava/util/HashSet;:com/google/javascript/jscomp/CompilerInput.<init>(Lcom/google/javascript/jscomp/SourceAst;Z)V:com/google/javascript/jscomp/CompilerInput.<init>(Lcom/google/javascript/jscomp/SourceAst;Lcom/google/javascript/rhino/InputId;Z)V:com/google/common/collect/Sets.newHashSet()Ljava/util/HashSet;:com/google/javascript/jscomp/CompilerInput.<init>(Lcom/google/javascript/jscomp/SourceAst;Z)V:com/google/javascript/jscomp/CompilerInput.<init>(Lcom/google/javascript/jscomp/SourceAst;Lcom/google/javascript/rhino/InputId;Z)V:com/google/common/collect/Sets.newHashSet()Ljava/util/HashSet;:com/google/javascript/jscomp/CompilerInput.<init>(Lcom/google/javascript/jscomp/SourceAst;Z)V:com/google/javascript/jscomp/CompilerInput.<init>(Lcom/google/javascript/jscomp/SourceAst;Lcom/google/javascript/rhino/InputId;Z)V'
p59
I1
sS'com/google/javascript/jscomp/CompilerInput.<init>(Lcom/google/javascript/jscomp/SourceAst;Z)V:com/google/javascript/jscomp/CompilerInput.<init>(Lcom/google/javascript/jscomp/SourceAst;Lcom/google/javascript/rhino/InputId;Z)V:com/google/common/collect/Sets.newHashSet()Ljava/util/HashSet;:com/google/javascript/jscomp/JsAst.<init>(Lcom/google/javascript/jscomp/SourceFile;)V:com/google/javascript/rhino/InputId.<init>(Ljava/lang/String;)V:java/lang/Object.<init>()V'
p60
I1
sS'com/google/javascript/jscomp/CompilerInput.<init>(Lcom/google/javascript/jscomp/SourceAst;Z)V:com/google/javascript/jscomp/CompilerInput.<init>(Lcom/google/javascript/jscomp/SourceAst;Lcom/google/javascript/rhino/InputId;Z)V:com/google/common/collect/Sets.newHashSet()Ljava/util/HashSet;:com/google/javascript/jscomp/CompilerInput.<init>(Lcom/google/javascript/jscomp/SourceAst;Z)V:com/google/javascript/jscomp/CompilerInput.<init>(Lcom/google/javascript/jscomp/SourceAst;Lcom/google/javascript/rhino/InputId;Z)V:com/google/common/collect/Sets.newHashSet()Ljava/util/HashSet;:com/google/javascript/jscomp/CompilerInput.<init>(Lcom/google/javascript/jscomp/SourceAst;Z)V:com/google/javascript/jscomp/CompilerInput.<init>(Lcom/google/javascript/jscomp/SourceAst;Lcom/google/javascript/rhino/InputId;Z)V:com/google/common/collect/Sets.newHashSet()Ljava/util/HashSet;:com/google/javascript/jscomp/JsAst.<init>(Lcom/google/javascript/jscomp/SourceFile;)V:com/google/javascript/jscomp/SourceFile.getName()Ljava/lang/String;'
p61
I2
sS'com/google/javascript/jscomp/CompilerInput.<init>(Lcom/google/javascript/jscomp/SourceAst;Z)V:com/google/javascript/jscomp/CompilerInput.<init>(Lcom/google/javascript/jscomp/SourceAst;Lcom/google/javascript/rhino/InputId;Z)V:com/google/common/collect/Sets.newHashSet()Ljava/util/HashSet;:com/google/javascript/jscomp/CompilerInput.<init>(Lcom/google/javascript/jscomp/SourceAst;Z)V:com/google/javascript/jscomp/CompilerInput.<init>(Lcom/google/javascript/jscomp/SourceAst;Lcom/google/javascript/rhino/InputId;Z)V:com/google/common/collect/Sets.newHashSet()Ljava/util/HashSet;:com/google/javascript/jscomp/CompilerInput.<init>(Lcom/google/javascript/jscomp/SourceAst;Z)V:com/google/javascript/jscomp/CompilerInput.<init>(Lcom/google/javascript/jscomp/SourceAst;Lcom/google/javascript/rhino/InputId;Z)V:com/google/common/collect/Sets.newHashSet()Ljava/util/HashSet;:com/google/javascript/jscomp/CompilerInput.<init>(Lcom/google/javascript/jscomp/SourceAst;Z)V:com/google/javascript/jscomp/CompilerInput.<init>(Lcom/google/javascript/jscomp/SourceAst;Lcom/google/javascript/rhino/InputId;Z)V:com/google/common/collect/Sets.newHashSet()Ljava/util/HashSet;:com/google/javascript/jscomp/CompilerInput.<init>(Lcom/google/javascript/jscomp/SourceAst;Z)V'
p62
I1
sS'com/google/javascript/jscomp/SourceFile.builder()Lcom/google/javascript/jscomp/SourceFile$Builder;:com/google/javascript/jscomp/SourceFile$Builder.<init>()V:java/lang/Object.<init>()V'
p63
I1
sS'com/google/javascript/jscomp/CompilerInput.<init>(Lcom/google/javascript/jscomp/SourceAst;Z)V:com/google/javascript/jscomp/CompilerInput.<init>(Lcom/google/javascript/jscomp/SourceAst;Lcom/google/javascript/rhino/InputId;Z)V:com/google/common/collect/Sets.newHashSet()Ljava/util/HashSet;:com/google/javascript/jscomp/CompilerInput.<init>(Lcom/google/javascript/jscomp/SourceAst;Z)V:com/google/javascript/jscomp/CompilerInput.<init>(Lcom/google/javascript/jscomp/SourceAst;Lcom/google/javascript/rhino/InputId;Z)V:com/google/common/collect/Sets.newHashSet()Ljava/util/HashSet;:com/google/javascript/jscomp/JsAst.<init>(Lcom/google/javascript/jscomp/SourceFile;)V:java/lang/Object.<init>()V'
p64
I1
sS'com/google/javascript/jscomp/JsAst.<init>(Lcom/google/javascript/jscomp/SourceFile;)V:com/google/javascript/jscomp/SourceFile.getName()Ljava/lang/String;'
p65
I2
sS'com/google/javascript/jscomp/SourceFile$Builder.buildFromCode(Ljava/lang/String;Ljava/lang/String;)Lcom/google/javascript/jscomp/SourceFile;:com/google/javascript/jscomp/SourceFile$Preloaded.<init>(Ljava/lang/String;Ljava/lang/String;Ljava/lang/String;)V'
p66
I1
sS'com/google/javascript/jscomp/JsAst.<init>(Lcom/google/javascript/jscomp/SourceFile;)V:com/google/javascript/rhino/InputId.<init>(Ljava/lang/String;)V'
p67
I1
sS'com/google/javascript/jscomp/CompilerInput.<init>(Lcom/google/javascript/jscomp/SourceAst;Z)V:com/google/javascript/jscomp/CompilerInput.<init>(Lcom/google/javascript/jscomp/SourceAst;Lcom/google/javascript/rhino/InputId;Z)V:com/google/common/collect/Sets.newHashSet()Ljava/util/HashSet;:com/google/javascript/jscomp/CompilerInput.<init>(Lcom/google/javascript/jscomp/SourceAst;Z)V:com/google/javascript/jscomp/CompilerInput.<init>(Lcom/google/javascript/jscomp/SourceAst;Lcom/google/javascript/rhino/InputId;Z)V:com/google/common/collect/Sets.newHashSet()Ljava/util/HashSet;:com/google/javascript/jscomp/CompilerInput.<init>(Lcom/google/javascript/jscomp/SourceAst;Z)V:com/google/javascript/jscomp/CompilerInput.<init>(Lcom/google/javascript/jscomp/SourceAst;Lcom/google/javascript/rhino/InputId;Z)V:com/google/common/collect/Sets.newHashSet()Ljava/util/HashSet;:com/google/javascript/jscomp/SourceFile$Builder.buildFromCode(Ljava/lang/String;Ljava/lang/String;)Lcom/google/javascript/jscomp/SourceFile;:com/google/javascript/jscomp/SourceFile$Preloaded.<init>(Ljava/lang/String;Ljava/lang/String;Ljava/lang/String;)V:com/google/javascript/jscomp/SourceFile.<init>(Ljava/lang/String;)V:java/lang/String.isEmpty()Z'
p68
I1
sS'com/google/javascript/jscomp/SourceFile$Builder.buildFromCode(Ljava/lang/String;Ljava/lang/String;)Lcom/google/javascript/jscomp/SourceFile;:com/google/javascript/jscomp/SourceFile$Preloaded.<init>(Ljava/lang/String;Ljava/lang/String;Ljava/lang/String;)V:com/google/javascript/jscomp/SourceFile.<init>(Ljava/lang/String;)V:java/lang/Object.<init>()V'
p69
I1
sS'com/google/javascript/jscomp/CompilerInput.<init>(Lcom/google/javascript/jscomp/SourceAst;Z)V:com/google/javascript/jscomp/CompilerInput.<init>(Lcom/google/javascript/jscomp/SourceAst;Lcom/google/javascript/rhino/InputId;Z)V:com/google/common/collect/Sets.newHashSet()Ljava/util/HashSet;:com/google/javascript/jscomp/CompilerInput.<init>(Lcom/google/javascript/jscomp/SourceAst;Z)V:com/google/javascript/jscomp/CompilerInput.<init>(Lcom/google/javascript/jscomp/SourceAst;Lcom/google/javascript/rhino/InputId;Z)V:com/google/common/collect/Sets.newHashSet()Ljava/util/HashSet;:com/google/javascript/jscomp/CompilerInput.<init>(Lcom/google/javascript/jscomp/SourceAst;Z)V:com/google/javascript/jscomp/CompilerInput.<init>(Lcom/google/javascript/jscomp/SourceAst;Lcom/google/javascript/rhino/InputId;Z)V:com/google/common/collect/Sets.newHashSet()Ljava/util/HashSet;:com/google/javascript/jscomp/CompilerInput.<init>(Lcom/google/javascript/jscomp/SourceAst;Z)V'
p70
I1
sS'com/google/javascript/jscomp/CompilerInput.<init>(Lcom/google/javascript/jscomp/SourceAst;Z)V:com/google/javascript/jscomp/CompilerInput.<init>(Lcom/google/javascript/jscomp/SourceAst;Lcom/google/javascript/rhino/InputId;Z)V:com/google/common/collect/Sets.newHashSet()Ljava/util/HashSet;:com/google/javascript/jscomp/CompilerInput.<init>(Lcom/google/javascript/jscomp/SourceAst;Z)V:com/google/javascript/jscomp/CompilerInput.<init>(Lcom/google/javascript/jscomp/SourceAst;Lcom/google/javascript/rhino/InputId;Z)V:com/google/common/collect/Sets.newHashSet()Ljava/util/HashSet;:com/google/javascript/jscomp/CompilerInput.<init>(Lcom/google/javascript/jscomp/SourceAst;Z)V:com/google/javascript/jscomp/CompilerInput.<init>(Lcom/google/javascript/jscomp/SourceAst;Lcom/google/javascript/rhino/InputId;Z)V:com/google/common/collect/Sets.newHashSet()Ljava/util/HashSet;:com/google/javascript/jscomp/CompilerInput.<init>(Lcom/google/javascript/jscomp/SourceAst;Z)V:com/google/javascript/jscomp/CompilerInput.<init>(Lcom/google/javascript/jscomp/SourceAst;Lcom/google/javascript/rhino/InputId;Z)V:com/google/common/collect/Sets.newHashSet()Ljava/util/HashSet;:com/google/javascript/jscomp/JsAst.<init>(Lcom/google/javascript/jscomp/SourceFile;)V:com/google/javascript/rhino/InputId.<init>(Ljava/lang/String;)V'
p71
I1
sS'com/google/javascript/jscomp/CompilerInput.<init>(Lcom/google/javascript/jscomp/SourceAst;Z)V:com/google/javascript/jscomp/CompilerInput.<init>(Lcom/google/javascript/jscomp/SourceAst;Lcom/google/javascript/rhino/InputId;Z)V:com/google/common/collect/Sets.newHashSet()Ljava/util/HashSet;'
p72
I1
sS'com/google/javascript/jscomp/CompilerInput.<init>(Lcom/google/javascript/jscomp/SourceAst;Z)V:com/google/javascript/jscomp/CompilerInput.<init>(Lcom/google/javascript/jscomp/SourceAst;Lcom/google/javascript/rhino/InputId;Z)V:com/google/common/collect/Sets.newHashSet()Ljava/util/HashSet;:com/google/javascript/jscomp/CompilerInput.<init>(Lcom/google/javascript/jscomp/SourceAst;Z)V:com/google/javascript/jscomp/CompilerInput.<init>(Lcom/google/javascript/jscomp/SourceAst;Lcom/google/javascript/rhino/InputId;Z)V:com/google/common/collect/Sets.newHashSet()Ljava/util/HashSet;:com/google/javascript/jscomp/CompilerInput.<init>(Lcom/google/javascript/jscomp/SourceAst;Z)V:com/google/javascript/jscomp/CompilerInput.<init>(Lcom/google/javascript/jscomp/SourceAst;Lcom/google/javascript/rhino/InputId;Z)V:com/google/common/collect/Sets.newHashSet()Ljava/util/HashSet;:com/google/javascript/jscomp/CompilerInput.<init>(Lcom/google/javascript/jscomp/SourceAst;Z)V:com/google/javascript/jscomp/CompilerInput.<init>(Lcom/google/javascript/jscomp/SourceAst;Lcom/google/javascript/rhino/InputId;Z)V:com/google/common/collect/Sets.newHashSet()Ljava/util/HashSet;:com/google/javascript/jscomp/JsAst.<init>(Lcom/google/javascript/jscomp/SourceFile;)V:com/google/javascript/rhino/InputId.<init>(Ljava/lang/String;)V:java/lang/Object.<init>()V'
p73
I1
sS'com/google/javascript/jscomp/CompilerInput.<init>(Lcom/google/javascript/jscomp/SourceAst;Z)V:com/google/javascript/jscomp/CompilerInput.<init>(Lcom/google/javascript/jscomp/SourceAst;Lcom/google/javascript/rhino/InputId;Z)V:com/google/common/collect/Sets.newHashSet()Ljava/util/HashSet;:com/google/javascript/jscomp/CompilerInput.<init>(Lcom/google/javascript/jscomp/SourceAst;Z)V:com/google/javascript/jscomp/CompilerInput.<init>(Lcom/google/javascript/jscomp/SourceAst;Lcom/google/javascript/rhino/InputId;Z)V:java/lang/Object.<init>()V'
p74
I1
sS'com/google/javascript/jscomp/CompilerInput.<init>(Lcom/google/javascript/jscomp/SourceAst;Z)V:com/google/javascript/jscomp/CompilerInput.<init>(Lcom/google/javascript/jscomp/SourceAst;Lcom/google/javascript/rhino/InputId;Z)V:com/google/common/collect/Sets.newHashSet()Ljava/util/HashSet;:com/google/javascript/jscomp/JsAst.<init>(Lcom/google/javascript/jscomp/SourceFile;)V:java/lang/Object.<init>()V'
p75
I1
sS'com/google/javascript/jscomp/CompilerInput.<init>(Lcom/google/javascript/jscomp/SourceAst;Z)V:com/google/javascript/jscomp/CompilerInput.<init>(Lcom/google/javascript/jscomp/SourceAst;Lcom/google/javascript/rhino/InputId;Z)V:com/google/common/collect/Sets.newHashSet()Ljava/util/HashSet;:com/google/javascript/jscomp/CompilerInput.<init>(Lcom/google/javascript/jscomp/SourceAst;Z)V:com/google/javascript/jscomp/CompilerInput.<init>(Lcom/google/javascript/jscomp/SourceAst;Lcom/google/javascript/rhino/InputId;Z)V:com/google/common/collect/Sets.newHashSet()Ljava/util/HashSet;'
p76
I1
sS'com/google/javascript/jscomp/CompilerInput.<init>(Lcom/google/javascript/jscomp/SourceAst;Z)V:com/google/javascript/jscomp/CompilerInput.<init>(Lcom/google/javascript/jscomp/SourceAst;Lcom/google/javascript/rhino/InputId;Z)V:com/google/common/collect/Sets.newHashSet()Ljava/util/HashSet;:com/google/javascript/jscomp/CompilerInput.<init>(Lcom/google/javascript/jscomp/SourceAst;Z)V:com/google/javascript/jscomp/CompilerInput.<init>(Lcom/google/javascript/jscomp/SourceAst;Lcom/google/javascript/rhino/InputId;Z)V:com/google/common/collect/Sets.newHashSet()Ljava/util/HashSet;:com/google/javascript/jscomp/SourceFile$Builder.buildFromCode(Ljava/lang/String;Ljava/lang/String;)Lcom/google/javascript/jscomp/SourceFile;'
p77
I1
sS'com/google/javascript/jscomp/CompilerInput.<init>(Lcom/google/javascript/jscomp/SourceAst;Z)V:com/google/javascript/jscomp/CompilerInput.<init>(Lcom/google/javascript/jscomp/SourceAst;Lcom/google/javascript/rhino/InputId;Z)V:com/google/common/collect/Sets.newHashSet()Ljava/util/HashSet;:com/google/javascript/jscomp/CompilerInput.<init>(Lcom/google/javascript/jscomp/SourceAst;Z)V:com/google/javascript/jscomp/CompilerInput.<init>(Lcom/google/javascript/jscomp/SourceAst;Lcom/google/javascript/rhino/InputId;Z)V:com/google/common/collect/Sets.newHashSet()Ljava/util/HashSet;:com/google/javascript/jscomp/CompilerInput.<init>(Lcom/google/javascript/jscomp/SourceAst;Z)V:com/google/javascript/jscomp/CompilerInput.<init>(Lcom/google/javascript/jscomp/SourceAst;Lcom/google/javascript/rhino/InputId;Z)V:com/google/common/collect/Sets.newHashSet()Ljava/util/HashSet;:com/google/javascript/jscomp/CompilerInput.<init>(Lcom/google/javascript/jscomp/SourceAst;Z)V:com/google/javascript/jscomp/CompilerInput.<init>(Lcom/google/javascript/jscomp/SourceAst;Lcom/google/javascript/rhino/InputId;Z)V:com/google/common/collect/Sets.newHashSet()Ljava/util/HashSet;:com/google/javascript/jscomp/SourceFile$Builder.buildFromCode(Ljava/lang/String;Ljava/lang/String;)Lcom/google/javascript/jscomp/SourceFile;:com/google/javascript/jscomp/SourceFile$Preloaded.<init>(Ljava/lang/String;Ljava/lang/String;Ljava/lang/String;)V:com/google/javascript/jscomp/SourceFile.access$000(Lcom/google/javascript/jscomp/SourceFile;Ljava/lang/String;)V:com/google/javascript/jscomp/SourceFile.setCode(Ljava/lang/String;)V'
p78
I1
sS'com/google/javascript/jscomp/CompilerInput.<init>(Lcom/google/javascript/jscomp/SourceAst;Z)V:com/google/javascript/jscomp/CompilerInput.<init>(Lcom/google/javascript/jscomp/SourceAst;Lcom/google/javascript/rhino/InputId;Z)V:com/google/common/collect/Sets.newHashSet()Ljava/util/HashSet;:com/google/javascript/jscomp/CompilerInput.<init>(Lcom/google/javascript/jscomp/SourceAst;Z)V:com/google/javascript/jscomp/CompilerInput.<init>(Lcom/google/javascript/jscomp/SourceAst;Lcom/google/javascript/rhino/InputId;Z)V:com/google/common/collect/Sets.newHashSet()Ljava/util/HashSet;:com/google/javascript/jscomp/SourceFile$Builder.buildFromCode(Ljava/lang/String;Ljava/lang/String;)Lcom/google/javascript/jscomp/SourceFile;:com/google/javascript/jscomp/SourceFile$Preloaded.<init>(Ljava/lang/String;Ljava/lang/String;Ljava/lang/String;)V'
p79
I1
sS'com/google/javascript/jscomp/CompilerInput.<init>(Lcom/google/javascript/jscomp/SourceAst;Z)V:com/google/javascript/jscomp/CompilerInput.<init>(Lcom/google/javascript/jscomp/SourceAst;Lcom/google/javascript/rhino/InputId;Z)V:com/google/common/collect/Sets.newHashSet()Ljava/util/HashSet;:com/google/javascript/jscomp/CompilerInput.<init>(Lcom/google/javascript/jscomp/SourceAst;Z)V:com/google/javascript/jscomp/CompilerInput.<init>(Lcom/google/javascript/jscomp/SourceAst;Lcom/google/javascript/rhino/InputId;Z)V:com/google/common/collect/Sets.newHashSet()Ljava/util/HashSet;:com/google/javascript/jscomp/JsAst.<init>(Lcom/google/javascript/jscomp/SourceFile;)V:com/google/javascript/jscomp/SourceFile.getName()Ljava/lang/String;'
p80
I2
sS'com/google/javascript/jscomp/SourceFile$Builder.buildFromCode(Ljava/lang/String;Ljava/lang/String;)Lcom/google/javascript/jscomp/SourceFile;:com/google/javascript/jscomp/SourceFile$Preloaded.<init>(Ljava/lang/String;Ljava/lang/String;Ljava/lang/String;)V:com/google/javascript/jscomp/SourceFile.access$000(Lcom/google/javascript/jscomp/SourceFile;Ljava/lang/String;)V:com/google/javascript/jscomp/SourceFile.setCode(Ljava/lang/String;)V'
p81
I1
sS'com/google/javascript/jscomp/CompilerInput.<init>(Lcom/google/javascript/jscomp/SourceAst;Z)V:com/google/javascript/jscomp/CompilerInput.<init>(Lcom/google/javascript/jscomp/SourceAst;Lcom/google/javascript/rhino/InputId;Z)V:com/google/common/collect/Sets.newHashSet()Ljava/util/HashSet;:com/google/javascript/jscomp/JsAst.<init>(Lcom/google/javascript/jscomp/SourceFile;)V'
p82
I1
sS'com/google/javascript/jscomp/CompilerInput.<init>(Lcom/google/javascript/jscomp/SourceAst;Z)V:com/google/javascript/jscomp/CompilerInput.<init>(Lcom/google/javascript/jscomp/SourceAst;Lcom/google/javascript/rhino/InputId;Z)V:com/google/common/collect/Sets.newHashSet()Ljava/util/HashSet;:com/google/javascript/jscomp/CompilerInput.<init>(Lcom/google/javascript/jscomp/SourceAst;Z)V:com/google/javascript/jscomp/CompilerInput.<init>(Lcom/google/javascript/jscomp/SourceAst;Lcom/google/javascript/rhino/InputId;Z)V:com/google/common/collect/Sets.newHashSet()Ljava/util/HashSet;:com/google/javascript/jscomp/CompilerInput.<init>(Lcom/google/javascript/jscomp/SourceAst;Z)V:com/google/javascript/jscomp/CompilerInput.<init>(Lcom/google/javascript/jscomp/SourceAst;Lcom/google/javascript/rhino/InputId;Z)V:com/google/common/collect/Sets.newHashSet()Ljava/util/HashSet;:com/google/javascript/jscomp/JsAst.<init>(Lcom/google/javascript/jscomp/SourceFile;)V:java/lang/Object.<init>()V'
p83
I1
sS'com/google/javascript/jscomp/CompilerInput.<init>(Lcom/google/javascript/jscomp/SourceAst;Z)V:com/google/javascript/jscomp/CompilerInput.<init>(Lcom/google/javascript/jscomp/SourceAst;Lcom/google/javascript/rhino/InputId;Z)V:com/google/common/collect/Sets.newHashSet()Ljava/util/HashSet;:com/google/javascript/jscomp/SourceFile.builder()Lcom/google/javascript/jscomp/SourceFile$Builder;:com/google/javascript/jscomp/SourceFile$Builder.<init>()V:java/lang/Object.<init>()V'
p84
I1
sS'com/google/javascript/jscomp/JsAst.<init>(Lcom/google/javascript/jscomp/SourceFile;)V:java/lang/Object.<init>()V'
p85
I1
sS'com/google/javascript/jscomp/CompilerInput.<init>(Lcom/google/javascript/jscomp/SourceAst;Z)V:com/google/javascript/jscomp/SourceAst.getInputId()Lcom/google/javascript/rhino/InputId;'
p86
I1
sS'com/google/javascript/jscomp/CompilerInput.<init>(Lcom/google/javascript/jscomp/SourceAst;Z)V:com/google/javascript/jscomp/CompilerInput.<init>(Lcom/google/javascript/jscomp/SourceAst;Lcom/google/javascript/rhino/InputId;Z)V:com/google/common/collect/Sets.newHashSet()Ljava/util/HashSet;:com/google/javascript/jscomp/CompilerInput.<init>(Lcom/google/javascript/jscomp/SourceAst;Z)V:com/google/javascript/jscomp/CompilerInput.<init>(Lcom/google/javascript/jscomp/SourceAst;Lcom/google/javascript/rhino/InputId;Z)V:com/google/common/collect/Sets.newHashSet()Ljava/util/HashSet;:com/google/javascript/jscomp/SourceFile.builder()Lcom/google/javascript/jscomp/SourceFile$Builder;:com/google/javascript/jscomp/SourceFile$Builder.<init>()V'
p87
I1
sS'com/google/javascript/jscomp/CompilerInput.<init>(Lcom/google/javascript/jscomp/SourceAst;Z)V:com/google/javascript/jscomp/CompilerInput.<init>(Lcom/google/javascript/jscomp/SourceAst;Lcom/google/javascript/rhino/InputId;Z)V:com/google/common/collect/Sets.newHashSet()Ljava/util/HashSet;:com/google/javascript/jscomp/CompilerInput.<init>(Lcom/google/javascript/jscomp/SourceAst;Z)V:com/google/javascript/jscomp/CompilerInput.<init>(Lcom/google/javascript/jscomp/SourceAst;Lcom/google/javascript/rhino/InputId;Z)V:com/google/common/collect/Sets.newHashSet()Ljava/util/HashSet;:com/google/javascript/jscomp/CompilerInput.<init>(Lcom/google/javascript/jscomp/SourceAst;Z)V:com/google/javascript/jscomp/CompilerInput.<init>(Lcom/google/javascript/jscomp/SourceAst;Lcom/google/javascript/rhino/InputId;Z)V:com/google/common/collect/Sets.newHashSet()Ljava/util/HashSet;:com/google/javascript/jscomp/CompilerInput.<init>(Lcom/google/javascript/jscomp/SourceAst;Z)V:com/google/javascript/jscomp/CompilerInput.<init>(Lcom/google/javascript/jscomp/SourceAst;Lcom/google/javascript/rhino/InputId;Z)V:com/google/common/collect/Sets.newHashSet()Ljava/util/HashSet;:com/google/javascript/jscomp/SourceFile$Builder.buildFromCode(Ljava/lang/String;Ljava/lang/String;)Lcom/google/javascript/jscomp/SourceFile;:com/google/javascript/jscomp/SourceFile$Preloaded.<init>(Ljava/lang/String;Ljava/lang/String;Ljava/lang/String;)V:com/google/javascript/jscomp/SourceFile.<init>(Ljava/lang/String;)V:java/lang/String.isEmpty()Z'
p88
I1
sS'com/google/javascript/jscomp/CompilerInput.<init>(Lcom/google/javascript/jscomp/SourceAst;Z)V:com/google/javascript/jscomp/CompilerInput.<init>(Lcom/google/javascript/jscomp/SourceAst;Lcom/google/javascript/rhino/InputId;Z)V:com/google/common/collect/Sets.newHashSet()Ljava/util/HashSet;:com/google/javascript/jscomp/JsAst.<init>(Lcom/google/javascript/jscomp/SourceFile;)V:com/google/javascript/jscomp/SourceFile.getName()Ljava/lang/String;'
p89
I2
sS'com/google/javascript/jscomp/CompilerInput.<init>(Lcom/google/javascript/jscomp/SourceAst;Z)V:com/google/javascript/jscomp/CompilerInput.<init>(Lcom/google/javascript/jscomp/SourceAst;Lcom/google/javascript/rhino/InputId;Z)V:com/google/common/collect/Sets.newHashSet()Ljava/util/HashSet;:com/google/javascript/jscomp/CompilerInput.<init>(Lcom/google/javascript/jscomp/SourceAst;Z)V:com/google/javascript/jscomp/CompilerInput.<init>(Lcom/google/javascript/jscomp/SourceAst;Lcom/google/javascript/rhino/InputId;Z)V:com/google/common/collect/Sets.newHashSet()Ljava/util/HashSet;:com/google/javascript/jscomp/CompilerInput.<init>(Lcom/google/javascript/jscomp/SourceAst;Z)V:com/google/javascript/jscomp/CompilerInput.<init>(Lcom/google/javascript/jscomp/SourceAst;Lcom/google/javascript/rhino/InputId;Z)V:com/google/common/collect/Sets.newHashSet()Ljava/util/HashSet;'
p90
I1
sS'java/lang/Class.getName()Ljava/lang/String;'
p91
I1
sS'com/google/javascript/jscomp/CompilerInput.<init>(Lcom/google/javascript/jscomp/SourceAst;Z)V:com/google/javascript/jscomp/CompilerInput.<init>(Lcom/google/javascript/jscomp/SourceAst;Lcom/google/javascript/rhino/InputId;Z)V:com/google/common/collect/Sets.newHashSet()Ljava/util/HashSet;:com/google/javascript/jscomp/CompilerInput.<init>(Lcom/google/javascript/jscomp/SourceAst;Z)V:com/google/javascript/jscomp/CompilerInput.<init>(Lcom/google/javascript/jscomp/SourceAst;Lcom/google/javascript/rhino/InputId;Z)V'
p92
I1
sS'com/google/javascript/jscomp/CompilerInput.<init>(Lcom/google/javascript/jscomp/SourceAst;Z)V:com/google/javascript/jscomp/CompilerInput.<init>(Lcom/google/javascript/jscomp/SourceAst;Lcom/google/javascript/rhino/InputId;Z)V:com/google/common/collect/Sets.newHashSet()Ljava/util/HashSet;:com/google/javascript/jscomp/CompilerInput.<init>(Lcom/google/javascript/jscomp/SourceAst;Z)V:com/google/javascript/jscomp/CompilerInput.<init>(Lcom/google/javascript/jscomp/SourceAst;Lcom/google/javascript/rhino/InputId;Z)V:com/google/common/collect/Sets.newHashSet()Ljava/util/HashSet;:com/google/javascript/jscomp/SourceFile.builder()Lcom/google/javascript/jscomp/SourceFile$Builder;:com/google/javascript/jscomp/SourceFile$Builder.<init>()V:java/lang/Object.<init>()V'
p93
I1
sS'com/google/javascript/jscomp/CompilerInput.<init>(Lcom/google/javascript/jscomp/SourceAst;Z)V:com/google/javascript/jscomp/CompilerInput.<init>(Lcom/google/javascript/jscomp/SourceAst;Lcom/google/javascript/rhino/InputId;Z)V:com/google/common/collect/Sets.newHashSet()Ljava/util/HashSet;:com/google/javascript/jscomp/SourceFile$Builder.buildFromCode(Ljava/lang/String;Ljava/lang/String;)Lcom/google/javascript/jscomp/SourceFile;:com/google/javascript/jscomp/SourceFile$Preloaded.<init>(Ljava/lang/String;Ljava/lang/String;Ljava/lang/String;)V:com/google/javascript/jscomp/SourceFile.<init>(Ljava/lang/String;)V:java/lang/Object.<init>()V'
p94
I1
sS'com/google/javascript/jscomp/CompilerInput.<init>(Lcom/google/javascript/jscomp/SourceAst;Z)V:com/google/javascript/jscomp/CompilerInput.<init>(Lcom/google/javascript/jscomp/SourceAst;Lcom/google/javascript/rhino/InputId;Z)V:com/google/common/collect/Sets.newHashSet()Ljava/util/HashSet;:com/google/javascript/jscomp/CompilerInput.<init>(Lcom/google/javascript/jscomp/SourceAst;Z)V:com/google/javascript/jscomp/CompilerInput.<init>(Lcom/google/javascript/jscomp/SourceAst;Lcom/google/javascript/rhino/InputId;Z)V:com/google/common/collect/Sets.newHashSet()Ljava/util/HashSet;:com/google/javascript/jscomp/CompilerInput.<init>(Lcom/google/javascript/jscomp/SourceAst;Z)V:com/google/javascript/jscomp/CompilerInput.<init>(Lcom/google/javascript/jscomp/SourceAst;Lcom/google/javascript/rhino/InputId;Z)V:com/google/common/collect/Sets.newHashSet()Ljava/util/HashSet;:com/google/javascript/jscomp/CompilerInput.<init>(Lcom/google/javascript/jscomp/SourceAst;Z)V:com/google/javascript/jscomp/CompilerInput.<init>(Lcom/google/javascript/jscomp/SourceAst;Lcom/google/javascript/rhino/InputId;Z)V:com/google/common/collect/Sets.newHashSet()Ljava/util/HashSet;:com/google/javascript/jscomp/SourceFile.builder()Lcom/google/javascript/jscomp/SourceFile$Builder;'
p95
I1
sS'com/google/javascript/jscomp/CompilerInput.<init>(Lcom/google/javascript/jscomp/SourceAst;Z)V:com/google/javascript/jscomp/CompilerInput.<init>(Lcom/google/javascript/jscomp/SourceAst;Lcom/google/javascript/rhino/InputId;Z)V:com/google/common/collect/Sets.newHashSet()Ljava/util/HashSet;:com/google/javascript/jscomp/CompilerInput.<init>(Lcom/google/javascript/jscomp/SourceAst;Z)V:com/google/javascript/jscomp/CompilerInput.<init>(Lcom/google/javascript/jscomp/SourceAst;Lcom/google/javascript/rhino/InputId;Z)V:com/google/common/collect/Sets.newHashSet()Ljava/util/HashSet;:com/google/javascript/jscomp/CompilerInput.<init>(Lcom/google/javascript/jscomp/SourceAst;Z)V:com/google/javascript/jscomp/CompilerInput.<init>(Lcom/google/javascript/jscomp/SourceAst;Lcom/google/javascript/rhino/InputId;Z)V:com/google/common/collect/Sets.newHashSet()Ljava/util/HashSet;:com/google/javascript/jscomp/CompilerInput.<init>(Lcom/google/javascript/jscomp/SourceAst;Z)V:com/google/javascript/jscomp/CompilerInput.<init>(Lcom/google/javascript/jscomp/SourceAst;Lcom/google/javascript/rhino/InputId;Z)V:com/google/common/collect/Sets.newHashSet()Ljava/util/HashSet;:com/google/javascript/jscomp/CompilerInput.<init>(Lcom/google/javascript/jscomp/SourceAst;Z)V:com/google/javascript/jscomp/CompilerInput.<init>(Lcom/google/javascript/jscomp/SourceAst;Lcom/google/javascript/rhino/InputId;Z)V:java/lang/Object.<init>()V'
p96
I1
sS'com/google/javascript/jscomp/CompilerInput.<init>(Lcom/google/javascript/jscomp/SourceAst;Z)V:com/google/javascript/jscomp/CompilerInput.<init>(Lcom/google/javascript/jscomp/SourceAst;Lcom/google/javascript/rhino/InputId;Z)V'
p97
I1
sS'com/google/javascript/jscomp/CompilerInput.<init>(Lcom/google/javascript/jscomp/SourceAst;Z)V:com/google/javascript/jscomp/CompilerInput.<init>(Lcom/google/javascript/jscomp/SourceAst;Lcom/google/javascript/rhino/InputId;Z)V:com/google/common/collect/Sets.newHashSet()Ljava/util/HashSet;:com/google/javascript/jscomp/CompilerInput.<init>(Lcom/google/javascript/jscomp/SourceAst;Z)V:com/google/javascript/jscomp/CompilerInput.<init>(Lcom/google/javascript/jscomp/SourceAst;Lcom/google/javascript/rhino/InputId;Z)V:com/google/common/collect/Sets.newHashSet()Ljava/util/HashSet;:com/google/javascript/jscomp/SourceFile$Builder.buildFromCode(Ljava/lang/String;Ljava/lang/String;)Lcom/google/javascript/jscomp/SourceFile;:com/google/javascript/jscomp/SourceFile$Preloaded.<init>(Ljava/lang/String;Ljava/lang/String;Ljava/lang/String;)V:com/google/javascript/jscomp/SourceFile.access$000(Lcom/google/javascript/jscomp/SourceFile;Ljava/lang/String;)V:com/google/javascript/jscomp/SourceFile.setCode(Ljava/lang/String;)V'
p98
I1
sS'com/google/javascript/jscomp/CompilerInput.<init>(Lcom/google/javascript/jscomp/SourceAst;Z)V:com/google/javascript/jscomp/CompilerInput.<init>(Lcom/google/javascript/jscomp/SourceAst;Lcom/google/javascript/rhino/InputId;Z)V:com/google/common/collect/Sets.newHashSet()Ljava/util/HashSet;:com/google/javascript/jscomp/CompilerInput.<init>(Lcom/google/javascript/jscomp/SourceAst;Z)V:com/google/javascript/jscomp/CompilerInput.<init>(Lcom/google/javascript/jscomp/SourceAst;Lcom/google/javascript/rhino/InputId;Z)V:com/google/common/collect/Sets.newHashSet()Ljava/util/HashSet;:com/google/javascript/jscomp/SourceFile.builder()Lcom/google/javascript/jscomp/SourceFile$Builder;'
p99
I1
sS'com/google/javascript/jscomp/CompilerInput.<init>(Lcom/google/javascript/jscomp/SourceAst;Z)V:com/google/javascript/jscomp/CompilerInput.<init>(Lcom/google/javascript/jscomp/SourceAst;Lcom/google/javascript/rhino/InputId;Z)V:com/google/common/collect/Sets.newHashSet()Ljava/util/HashSet;:com/google/javascript/jscomp/CompilerInput.<init>(Lcom/google/javascript/jscomp/SourceAst;Z)V:com/google/javascript/jscomp/CompilerInput.<init>(Lcom/google/javascript/jscomp/SourceAst;Lcom/google/javascript/rhino/InputId;Z)V:com/google/common/collect/Sets.newHashSet()Ljava/util/HashSet;:com/google/javascript/jscomp/CompilerInput.<init>(Lcom/google/javascript/jscomp/SourceAst;Z)V:com/google/javascript/jscomp/CompilerInput.<init>(Lcom/google/javascript/jscomp/SourceAst;Lcom/google/javascript/rhino/InputId;Z)V:com/google/common/collect/Sets.newHashSet()Ljava/util/HashSet;:com/google/javascript/jscomp/SourceFile.builder()Lcom/google/javascript/jscomp/SourceFile$Builder;:com/google/javascript/jscomp/SourceFile$Builder.<init>()V:java/lang/Object.<init>()V'
p100
I1
sS'com/google/javascript/jscomp/CompilerInput.<init>(Lcom/google/javascript/jscomp/SourceAst;Z)V:com/google/javascript/jscomp/CompilerInput.<init>(Lcom/google/javascript/jscomp/SourceAst;Lcom/google/javascript/rhino/InputId;Z)V:com/google/common/collect/Sets.newHashSet()Ljava/util/HashSet;:com/google/javascript/jscomp/CompilerInput.<init>(Lcom/google/javascript/jscomp/SourceAst;Z)V:com/google/javascript/jscomp/CompilerInput.<init>(Lcom/google/javascript/jscomp/SourceAst;Lcom/google/javascript/rhino/InputId;Z)V:com/google/common/collect/Sets.newHashSet()Ljava/util/HashSet;:com/google/javascript/jscomp/CompilerInput.<init>(Lcom/google/javascript/jscomp/SourceAst;Z)V:com/google/javascript/jscomp/CompilerInput.<init>(Lcom/google/javascript/jscomp/SourceAst;Lcom/google/javascript/rhino/InputId;Z)V:com/google/common/collect/Sets.newHashSet()Ljava/util/HashSet;:com/google/javascript/jscomp/SourceFile$Builder.buildFromCode(Ljava/lang/String;Ljava/lang/String;)Lcom/google/javascript/jscomp/SourceFile;:com/google/javascript/jscomp/SourceFile$Preloaded.<init>(Ljava/lang/String;Ljava/lang/String;Ljava/lang/String;)V:com/google/javascript/jscomp/SourceFile.<init>(Ljava/lang/String;)V:java/lang/Object.<init>()V'
p101
I1
sS'com/google/javascript/jscomp/CompilerInput.<init>(Lcom/google/javascript/jscomp/SourceAst;Z)V:com/google/javascript/jscomp/CompilerInput.<init>(Lcom/google/javascript/jscomp/SourceAst;Lcom/google/javascript/rhino/InputId;Z)V:com/google/common/collect/Sets.newHashSet()Ljava/util/HashSet;:com/google/javascript/jscomp/CompilerInput.<init>(Lcom/google/javascript/jscomp/SourceAst;Z)V:com/google/javascript/jscomp/CompilerInput.<init>(Lcom/google/javascript/jscomp/SourceAst;Lcom/google/javascript/rhino/InputId;Z)V:com/google/common/collect/Sets.newHashSet()Ljava/util/HashSet;:com/google/javascript/jscomp/CompilerInput.<init>(Lcom/google/javascript/jscomp/SourceAst;Z)V:com/google/javascript/jscomp/CompilerInput.<init>(Lcom/google/javascript/jscomp/SourceAst;Lcom/google/javascript/rhino/InputId;Z)V:com/google/common/collect/Sets.newHashSet()Ljava/util/HashSet;:com/google/javascript/jscomp/CompilerInput.<init>(Lcom/google/javascript/jscomp/SourceAst;Z)V:com/google/javascript/jscomp/CompilerInput.<init>(Lcom/google/javascript/jscomp/SourceAst;Lcom/google/javascript/rhino/InputId;Z)V:com/google/common/collect/Sets.newHashSet()Ljava/util/HashSet;:com/google/javascript/jscomp/SourceFile$Builder.buildFromCode(Ljava/lang/String;Ljava/lang/String;)Lcom/google/javascript/jscomp/SourceFile;:com/google/javascript/jscomp/SourceFile$Preloaded.<init>(Ljava/lang/String;Ljava/lang/String;Ljava/lang/String;)V:com/google/javascript/jscomp/SourceFile.<init>(Ljava/lang/String;)V:java/lang/Object.<init>()V'
p102
I1
sS'com/google/javascript/jscomp/SourceFile$Builder.buildFromCode(Ljava/lang/String;Ljava/lang/String;)Lcom/google/javascript/jscomp/SourceFile;'
p103
I1
sS'com/google/javascript/jscomp/CompilerInput.<init>(Lcom/google/javascript/jscomp/SourceAst;Z)V:com/google/javascript/jscomp/CompilerInput.<init>(Lcom/google/javascript/jscomp/SourceAst;Lcom/google/javascript/rhino/InputId;Z)V:com/google/common/collect/Sets.newHashSet()Ljava/util/HashSet;:com/google/javascript/jscomp/CompilerInput.<init>(Lcom/google/javascript/jscomp/SourceAst;Z)V:com/google/javascript/jscomp/CompilerInput.<init>(Lcom/google/javascript/jscomp/SourceAst;Lcom/google/javascript/rhino/InputId;Z)V:com/google/common/collect/Sets.newHashSet()Ljava/util/HashSet;:com/google/javascript/jscomp/CompilerInput.<init>(Lcom/google/javascript/jscomp/SourceAst;Z)V:com/google/javascript/jscomp/CompilerInput.<init>(Lcom/google/javascript/jscomp/SourceAst;Lcom/google/javascript/rhino/InputId;Z)V:com/google/common/collect/Sets.newHashSet()Ljava/util/HashSet;:com/google/javascript/jscomp/SourceFile$Builder.buildFromCode(Ljava/lang/String;Ljava/lang/String;)Lcom/google/javascript/jscomp/SourceFile;:com/google/javascript/jscomp/SourceFile$Preloaded.<init>(Ljava/lang/String;Ljava/lang/String;Ljava/lang/String;)V:com/google/javascript/jscomp/SourceFile.access$000(Lcom/google/javascript/jscomp/SourceFile;Ljava/lang/String;)V:com/google/javascript/jscomp/SourceFile.setCode(Ljava/lang/String;)V'
p104
I1
sS'com/google/javascript/jscomp/CompilerInput.<init>(Lcom/google/javascript/jscomp/SourceAst;Z)V:com/google/javascript/jscomp/CompilerInput.<init>(Lcom/google/javascript/jscomp/SourceAst;Lcom/google/javascript/rhino/InputId;Z)V:com/google/common/collect/Sets.newHashSet()Ljava/util/HashSet;:com/google/javascript/jscomp/CompilerInput.<init>(Lcom/google/javascript/jscomp/SourceAst;Z)V:com/google/javascript/jscomp/CompilerInput.<init>(Lcom/google/javascript/jscomp/SourceAst;Lcom/google/javascript/rhino/InputId;Z)V:com/google/common/collect/Sets.newHashSet()Ljava/util/HashSet;:com/google/javascript/jscomp/SourceFile$Builder.buildFromCode(Ljava/lang/String;Ljava/lang/String;)Lcom/google/javascript/jscomp/SourceFile;:com/google/javascript/jscomp/SourceFile$Preloaded.<init>(Ljava/lang/String;Ljava/lang/String;Ljava/lang/String;)V:com/google/javascript/jscomp/SourceFile.access$000(Lcom/google/javascript/jscomp/SourceFile;Ljava/lang/String;)V'
p105
I1
sS'com/google/javascript/jscomp/CompilerInput.<init>(Lcom/google/javascript/jscomp/SourceAst;Z)V:com/google/javascript/jscomp/CompilerInput.<init>(Lcom/google/javascript/jscomp/SourceAst;Lcom/google/javascript/rhino/InputId;Z)V:com/google/common/collect/Sets.newHashSet()Ljava/util/HashSet;:com/google/javascript/jscomp/CompilerInput.<init>(Lcom/google/javascript/jscomp/SourceAst;Z)V:com/google/javascript/jscomp/CompilerInput.<init>(Lcom/google/javascript/jscomp/SourceAst;Lcom/google/javascript/rhino/InputId;Z)V:com/google/common/collect/Sets.newHashSet()Ljava/util/HashSet;:com/google/javascript/jscomp/CompilerInput.<init>(Lcom/google/javascript/jscomp/SourceAst;Z)V:com/google/javascript/jscomp/CompilerInput.<init>(Lcom/google/javascript/jscomp/SourceAst;Lcom/google/javascript/rhino/InputId;Z)V:com/google/common/collect/Sets.newHashSet()Ljava/util/HashSet;:com/google/javascript/jscomp/CompilerInput.<init>(Lcom/google/javascript/jscomp/SourceAst;Z)V:com/google/javascript/jscomp/CompilerInput.<init>(Lcom/google/javascript/jscomp/SourceAst;Lcom/google/javascript/rhino/InputId;Z)V:com/google/common/collect/Sets.newHashSet()Ljava/util/HashSet;:com/google/javascript/jscomp/SourceFile$Builder.buildFromCode(Ljava/lang/String;Ljava/lang/String;)Lcom/google/javascript/jscomp/SourceFile;:com/google/javascript/jscomp/SourceFile$Preloaded.<init>(Ljava/lang/String;Ljava/lang/String;Ljava/lang/String;)V:com/google/javascript/jscomp/SourceFile.<init>(Ljava/lang/String;)V'
p106
I1
sS'com/google/javascript/jscomp/CompilerInput.<init>(Lcom/google/javascript/jscomp/SourceAst;Z)V:com/google/javascript/jscomp/CompilerInput.<init>(Lcom/google/javascript/jscomp/SourceAst;Lcom/google/javascript/rhino/InputId;Z)V:com/google/common/collect/Sets.newHashSet()Ljava/util/HashSet;:com/google/javascript/jscomp/CompilerInput.<init>(Lcom/google/javascript/jscomp/SourceAst;Z)V:com/google/javascript/jscomp/CompilerInput.<init>(Lcom/google/javascript/jscomp/SourceAst;Lcom/google/javascript/rhino/InputId;Z)V:com/google/common/collect/Sets.newHashSet()Ljava/util/HashSet;:com/google/javascript/jscomp/CompilerInput.<init>(Lcom/google/javascript/jscomp/SourceAst;Z)V:com/google/javascript/jscomp/SourceAst.getInputId()Lcom/google/javascript/rhino/InputId;'
p107
I1
s.