(dp0
S'com/google/javascript/jscomp/graph/LinkedUndirectedGraph.<init>(ZZ)V:com/google/common/collect/Maps.newHashMap()Ljava/util/HashMap;:com/google/javascript/jscomp/graph/LinkedUndirectedGraph.<init>(ZZ)V:com/google/common/collect/Maps.newHashMap()Ljava/util/HashMap;:com/google/javascript/jscomp/graph/LinkedUndirectedGraph.<init>(ZZ)V:com/google/common/collect/Maps.newHashMap()Ljava/util/HashMap;:com/google/javascript/jscomp/graph/LinkedUndirectedGraph.<init>(ZZ)V:com/google/javascript/jscomp/graph/UndiGraph.<init>()V:com/google/javascript/jscomp/graph/Graph.<init>()V'
p1
I1
sS'com/google/javascript/jscomp/graph/LinkedUndirectedGraph.<init>(ZZ)V:com/google/common/collect/Maps.newHashMap()Ljava/util/HashMap;:com/google/javascript/jscomp/graph/LinkedUndirectedGraph.<init>(ZZ)V:com/google/common/collect/Maps.newHashMap()Ljava/util/HashMap;:com/google/javascript/jscomp/graph/LinkedUndirectedGraph.<init>(ZZ)V:com/google/common/collect/Maps.newHashMap()Ljava/util/HashMap;:com/google/javascript/jscomp/graph/LinkedUndirectedGraph.<init>(ZZ)V:com/google/common/collect/Maps.newHashMap()Ljava/util/HashMap;:com/google/javascript/jscomp/graph/LinkedUndirectedGraph.<init>(ZZ)V'
p2
I1
sS'com/google/javascript/jscomp/graph/LinkedUndirectedGraph.<init>(ZZ)V:com/google/common/collect/Maps.newHashMap()Ljava/util/HashMap;:com/google/javascript/jscomp/graph/LinkedUndirectedGraph.<init>(ZZ)V:com/google/common/collect/Maps.newHashMap()Ljava/util/HashMap;:com/google/javascript/jscomp/graph/LinkedUndirectedGraph.<init>(ZZ)V:com/google/common/collect/Maps.newHashMap()Ljava/util/HashMap;:com/google/javascript/jscomp/graph/LinkedUndirectedGraph.<init>(ZZ)V:com/google/common/collect/Maps.newHashMap()Ljava/util/HashMap;'
p3
I1
sS'com/google/javascript/jscomp/graph/LinkedUndirectedGraph.<init>(ZZ)V:com/google/common/collect/Maps.newHashMap()Ljava/util/HashMap;:com/google/javascript/jscomp/graph/LinkedUndirectedGraph.<init>(ZZ)V:com/google/common/collect/Maps.newHashMap()Ljava/util/HashMap;:com/google/javascript/jscomp/graph/LinkedUndirectedGraph.<init>(ZZ)V:com/google/common/collect/Maps.newHashMap()Ljava/util/HashMap;:com/google/javascript/jscomp/graph/LinkedUndirectedGraph.<init>(ZZ)V:com/google/common/collect/Maps.newHashMap()Ljava/util/HashMap;:com/google/javascript/jscomp/graph/LinkedUndirectedGraph.<init>(ZZ)V:com/google/common/collect/Maps.newHashMap()Ljava/util/HashMap;:com/google/javascript/jscomp/graph/LinkedUndirectedGraph.<init>(ZZ)V:com/google/common/collect/Maps.newHashMap()Ljava/util/HashMap;:com/google/javascript/jscomp/graph/LinkedUndirectedGraph.<init>(ZZ)V'
p4
I1
sS'com/google/javascript/jscomp/graph/LinkedUndirectedGraph.<init>(ZZ)V:com/google/common/collect/Maps.newHashMap()Ljava/util/HashMap;:com/google/javascript/jscomp/graph/LinkedUndirectedGraph.<init>(ZZ)V:com/google/common/collect/Maps.newHashMap()Ljava/util/HashMap;:com/google/javascript/jscomp/graph/LinkedUndirectedGraph.<init>(ZZ)V:com/google/common/collect/Maps.newHashMap()Ljava/util/HashMap;:com/google/javascript/jscomp/graph/LinkedUndirectedGraph.<init>(ZZ)V:com/google/common/collect/Maps.newHashMap()Ljava/util/HashMap;:com/google/javascript/jscomp/graph/LinkedUndirectedGraph.<init>(ZZ)V:com/google/common/collect/Maps.newHashMap()Ljava/util/HashMap;:com/google/javascript/jscomp/graph/LinkedUndirectedGraph.<init>(ZZ)V:com/google/common/collect/Maps.newHashMap()Ljava/util/HashMap;'
p5
I1
sS'com/google/javascript/jscomp/graph/LinkedUndirectedGraph.<init>(ZZ)V:com/google/common/collect/Maps.newHashMap()Ljava/util/HashMap;:com/google/javascript/jscomp/graph/LinkedUndirectedGraph.<init>(ZZ)V:com/google/common/collect/Maps.newHashMap()Ljava/util/HashMap;:com/google/javascript/jscomp/graph/LinkedUndirectedGraph.<init>(ZZ)V:com/google/common/collect/Maps.newHashMap()Ljava/util/HashMap;:com/google/javascript/jscomp/graph/LinkedUndirectedGraph.<init>(ZZ)V'
p6
I1
sS'com/google/javascript/jscomp/graph/LinkedUndirectedGraph.<init>(ZZ)V:com/google/common/collect/Maps.newHashMap()Ljava/util/HashMap;:com/google/javascript/jscomp/graph/LinkedUndirectedGraph.<init>(ZZ)V:com/google/common/collect/Maps.newHashMap()Ljava/util/HashMap;:com/google/javascript/jscomp/graph/LinkedUndirectedGraph.<init>(ZZ)V:com/google/common/collect/Maps.newHashMap()Ljava/util/HashMap;:com/google/javascript/jscomp/graph/LinkedUndirectedGraph.<init>(ZZ)V:com/google/common/collect/Maps.newHashMap()Ljava/util/HashMap;:com/google/javascript/jscomp/graph/LinkedUndirectedGraph.<init>(ZZ)V:com/google/common/collect/Maps.newHashMap()Ljava/util/HashMap;:com/google/javascript/jscomp/graph/LinkedUndirectedGraph.<init>(ZZ)V:com/google/javascript/jscomp/graph/UndiGraph.<init>()V:com/google/javascript/jscomp/graph/Graph.<init>()V:java/lang/Object.<init>()V'
p7
I1
sS'com/google/javascript/jscomp/graph/LinkedUndirectedGraph.<init>(ZZ)V:com/google/common/collect/Maps.newHashMap()Ljava/util/HashMap;:com/google/javascript/jscomp/graph/LinkedUndirectedGraph.<init>(ZZ)V:com/google/common/collect/Maps.newHashMap()Ljava/util/HashMap;:com/google/javascript/jscomp/graph/LinkedUndirectedGraph.<init>(ZZ)V:com/google/common/collect/Maps.newHashMap()Ljava/util/HashMap;:com/google/javascript/jscomp/graph/LinkedUndirectedGraph.<init>(ZZ)V:com/google/common/collect/Maps.newHashMap()Ljava/util/HashMap;:com/google/javascript/jscomp/graph/LinkedUndirectedGraph.<init>(ZZ)V:com/google/common/collect/Maps.newHashMap()Ljava/util/HashMap;'
p8
I1
sS'com/google/javascript/jscomp/graph/LinkedUndirectedGraph.<init>(ZZ)V:com/google/common/collect/Maps.newHashMap()Ljava/util/HashMap;'
p9
I1
sS'com/google/javascript/jscomp/graph/LinkedUndirectedGraph.<init>(ZZ)V:com/google/common/collect/Maps.newHashMap()Ljava/util/HashMap;:com/google/javascript/jscomp/graph/LinkedUndirectedGraph.<init>(ZZ)V:com/google/common/collect/Maps.newHashMap()Ljava/util/HashMap;:com/google/javascript/jscomp/graph/LinkedUndirectedGraph.<init>(ZZ)V:com/google/common/collect/Maps.newHashMap()Ljava/util/HashMap;'
p10
I1
sS'com/google/javascript/jscomp/graph/LinkedUndirectedGraph.<init>(ZZ)V:com/google/common/collect/Maps.newHashMap()Ljava/util/HashMap;:com/google/javascript/jscomp/graph/LinkedUndirectedGraph.<init>(ZZ)V:com/google/common/collect/Maps.newHashMap()Ljava/util/HashMap;:com/google/javascript/jscomp/graph/LinkedUndirectedGraph.<init>(ZZ)V:com/google/common/collect/Maps.newHashMap()Ljava/util/HashMap;:com/google/javascript/jscomp/graph/LinkedUndirectedGraph.<init>(ZZ)V:com/google/common/collect/Maps.newHashMap()Ljava/util/HashMap;:com/google/javascript/jscomp/graph/LinkedUndirectedGraph.<init>(ZZ)V:com/google/javascript/jscomp/graph/UndiGraph.<init>()V:com/google/javascript/jscomp/graph/Graph.<init>()V:java/lang/Object.<init>()V'
p11
I1
sS'com/google/javascript/jscomp/graph/LinkedUndirectedGraph.<init>(ZZ)V:com/google/common/collect/Maps.newHashMap()Ljava/util/HashMap;:com/google/javascript/jscomp/graph/LinkedUndirectedGraph.<init>(ZZ)V:com/google/common/collect/Maps.newHashMap()Ljava/util/HashMap;:com/google/javascript/jscomp/graph/LinkedUndirectedGraph.<init>(ZZ)V:com/google/common/collect/Maps.newHashMap()Ljava/util/HashMap;:com/google/javascript/jscomp/graph/LinkedUndirectedGraph.<init>(ZZ)V:com/google/common/collect/Maps.newHashMap()Ljava/util/HashMap;:com/google/javascript/jscomp/graph/LinkedUndirectedGraph.<init>(ZZ)V:com/google/common/collect/Maps.newHashMap()Ljava/util/HashMap;:com/google/javascript/jscomp/graph/LinkedUndirectedGraph.<init>(ZZ)V:com/google/common/collect/Maps.newHashMap()Ljava/util/HashMap;:com/google/javascript/jscomp/graph/LinkedUndirectedGraph.<init>(ZZ)V:com/google/common/collect/Maps.newHashMap()Ljava/util/HashMap;'
p12
I1
sS'com/google/javascript/jscomp/graph/LinkedUndirectedGraph.<init>(ZZ)V:com/google/common/collect/Maps.newHashMap()Ljava/util/HashMap;:com/google/javascript/jscomp/graph/LinkedUndirectedGraph.<init>(ZZ)V:com/google/common/collect/Maps.newHashMap()Ljava/util/HashMap;:com/google/javascript/jscomp/graph/LinkedUndirectedGraph.<init>(ZZ)V:com/google/javascript/jscomp/graph/UndiGraph.<init>()V:com/google/javascript/jscomp/graph/Graph.<init>()V:java/lang/Object.<init>()V'
p13
I1
sS'com/google/javascript/jscomp/graph/LinkedUndirectedGraph.<init>(ZZ)V:com/google/javascript/jscomp/graph/UndiGraph.<init>()V:com/google/javascript/jscomp/graph/Graph.<init>()V:java/lang/Object.<init>()V'
p14
I1
sS'com/google/javascript/jscomp/graph/LinkedUndirectedGraph.<init>(ZZ)V:com/google/common/collect/Maps.newHashMap()Ljava/util/HashMap;:com/google/javascript/jscomp/graph/LinkedUndirectedGraph.<init>(ZZ)V:com/google/javascript/jscomp/graph/UndiGraph.<init>()V:com/google/javascript/jscomp/graph/Graph.<init>()V:java/lang/Object.<init>()V'
p15
I1
sS'com/google/javascript/jscomp/graph/LinkedUndirectedGraph.<init>(ZZ)V:com/google/common/collect/Maps.newHashMap()Ljava/util/HashMap;:com/google/javascript/jscomp/graph/LinkedUndirectedGraph.<init>(ZZ)V:com/google/common/collect/Maps.newHashMap()Ljava/util/HashMap;:com/google/javascript/jscomp/graph/LinkedUndirectedGraph.<init>(ZZ)V:com/google/javascript/jscomp/graph/UndiGraph.<init>()V'
p16
I1
sS'com/google/javascript/jscomp/graph/LinkedUndirectedGraph.<init>(ZZ)V:com/google/common/collect/Maps.newHashMap()Ljava/util/HashMap;:com/google/javascript/jscomp/graph/LinkedUndirectedGraph.<init>(ZZ)V:com/google/common/collect/Maps.newHashMap()Ljava/util/HashMap;:com/google/javascript/jscomp/graph/LinkedUndirectedGraph.<init>(ZZ)V:com/google/common/collect/Maps.newHashMap()Ljava/util/HashMap;:com/google/javascript/jscomp/graph/LinkedUndirectedGraph.<init>(ZZ)V:com/google/javascript/jscomp/graph/UndiGraph.<init>()V:com/google/javascript/jscomp/graph/Graph.<init>()V:java/lang/Object.<init>()V'
p17
I1
sS'com/google/javascript/jscomp/graph/LinkedUndirectedGraph.<init>(ZZ)V:com/google/common/collect/Maps.newHashMap()Ljava/util/HashMap;:com/google/javascript/jscomp/graph/LinkedUndirectedGraph.<init>(ZZ)V:com/google/common/collect/Maps.newHashMap()Ljava/util/HashMap;:com/google/javascript/jscomp/graph/LinkedUndirectedGraph.<init>(ZZ)V:com/google/common/collect/Maps.newHashMap()Ljava/util/HashMap;:com/google/javascript/jscomp/graph/LinkedUndirectedGraph.<init>(ZZ)V:com/google/common/collect/Maps.newHashMap()Ljava/util/HashMap;:com/google/javascript/jscomp/graph/LinkedUndirectedGraph.<init>(ZZ)V:com/google/common/collect/Maps.newHashMap()Ljava/util/HashMap;:com/google/javascript/jscomp/graph/LinkedUndirectedGraph.<init>(ZZ)V:com/google/common/collect/Maps.newHashMap()Ljava/util/HashMap;:com/google/javascript/jscomp/graph/LinkedUndirectedGraph.<init>(ZZ)V:com/google/javascript/jscomp/graph/UndiGraph.<init>()V:com/google/javascript/jscomp/graph/Graph.<init>()V'
p18
I1
sS'com/google/javascript/jscomp/graph/LinkedUndirectedGraph.<init>(ZZ)V:com/google/common/collect/Maps.newHashMap()Ljava/util/HashMap;:com/google/javascript/jscomp/graph/LinkedUndirectedGraph.<init>(ZZ)V:com/google/common/collect/Maps.newHashMap()Ljava/util/HashMap;:com/google/javascript/jscomp/graph/LinkedUndirectedGraph.<init>(ZZ)V:com/google/common/collect/Maps.newHashMap()Ljava/util/HashMap;:com/google/javascript/jscomp/graph/LinkedUndirectedGraph.<init>(ZZ)V:com/google/common/collect/Maps.newHashMap()Ljava/util/HashMap;:com/google/javascript/jscomp/graph/LinkedUndirectedGraph.<init>(ZZ)V:com/google/javascript/jscomp/graph/UndiGraph.<init>()V:com/google/javascript/jscomp/graph/Graph.<init>()V'
p19
I1
sS'com/google/javascript/jscomp/graph/LinkedUndirectedGraph.<init>(ZZ)V:com/google/common/collect/Maps.newHashMap()Ljava/util/HashMap;:com/google/javascript/jscomp/graph/LinkedUndirectedGraph.<init>(ZZ)V:com/google/common/collect/Maps.newHashMap()Ljava/util/HashMap;'
p20
I1
sS'com/google/javascript/jscomp/graph/LinkedUndirectedGraph.<init>(ZZ)V:com/google/common/collect/Maps.newHashMap()Ljava/util/HashMap;:com/google/javascript/jscomp/graph/LinkedUndirectedGraph.<init>(ZZ)V:com/google/javascript/jscomp/graph/UndiGraph.<init>()V:com/google/javascript/jscomp/graph/Graph.<init>()V'
p21
I1
sS'com/google/javascript/jscomp/graph/LinkedUndirectedGraph.<init>(ZZ)V'
p22
I1
sS'com/google/javascript/jscomp/graph/LinkedUndirectedGraph.<init>(ZZ)V:com/google/common/collect/Maps.newHashMap()Ljava/util/HashMap;:com/google/javascript/jscomp/graph/LinkedUndirectedGraph.<init>(ZZ)V:com/google/common/collect/Maps.newHashMap()Ljava/util/HashMap;:com/google/javascript/jscomp/graph/LinkedUndirectedGraph.<init>(ZZ)V:com/google/common/collect/Maps.newHashMap()Ljava/util/HashMap;:com/google/javascript/jscomp/graph/LinkedUndirectedGraph.<init>(ZZ)V:com/google/common/collect/Maps.newHashMap()Ljava/util/HashMap;:com/google/javascript/jscomp/graph/LinkedUndirectedGraph.<init>(ZZ)V:com/google/common/collect/Maps.newHashMap()Ljava/util/HashMap;:com/google/javascript/jscomp/graph/LinkedUndirectedGraph.<init>(ZZ)V:com/google/common/collect/Maps.newHashMap()Ljava/util/HashMap;:com/google/javascript/jscomp/graph/LinkedUndirectedGraph.<init>(ZZ)V:com/google/javascript/jscomp/graph/UndiGraph.<init>()V'
p23
I1
sS'com/google/javascript/jscomp/graph/LinkedUndirectedGraph.<init>(ZZ)V:com/google/common/collect/Maps.newHashMap()Ljava/util/HashMap;:com/google/javascript/jscomp/graph/LinkedUndirectedGraph.<init>(ZZ)V:com/google/javascript/jscomp/graph/UndiGraph.<init>()V'
p24
I1
sS'com/google/javascript/jscomp/graph/LinkedUndirectedGraph.<init>(ZZ)V:com/google/javascript/jscomp/graph/UndiGraph.<init>()V:com/google/javascript/jscomp/graph/Graph.<init>()V'
p25
I1
sS'com/google/javascript/jscomp/graph/LinkedUndirectedGraph.<init>(ZZ)V:com/google/javascript/jscomp/graph/UndiGraph.<init>()V'
p26
I1
sS'com/google/javascript/jscomp/graph/LinkedUndirectedGraph.<init>(ZZ)V:com/google/common/collect/Maps.newHashMap()Ljava/util/HashMap;:com/google/javascript/jscomp/graph/LinkedUndirectedGraph.<init>(ZZ)V:com/google/common/collect/Maps.newHashMap()Ljava/util/HashMap;:com/google/javascript/jscomp/graph/LinkedUndirectedGraph.<init>(ZZ)V:com/google/common/collect/Maps.newHashMap()Ljava/util/HashMap;:com/google/javascript/jscomp/graph/LinkedUndirectedGraph.<init>(ZZ)V:com/google/common/collect/Maps.newHashMap()Ljava/util/HashMap;:com/google/javascript/jscomp/graph/LinkedUndirectedGraph.<init>(ZZ)V:com/google/common/collect/Maps.newHashMap()Ljava/util/HashMap;:com/google/javascript/jscomp/graph/LinkedUndirectedGraph.<init>(ZZ)V:com/google/javascript/jscomp/graph/UndiGraph.<init>()V:com/google/javascript/jscomp/graph/Graph.<init>()V'
p27
I1
sS'com/google/javascript/jscomp/graph/LinkedUndirectedGraph.<init>(ZZ)V:com/google/common/collect/Maps.newHashMap()Ljava/util/HashMap;:com/google/javascript/jscomp/graph/LinkedUndirectedGraph.<init>(ZZ)V:com/google/common/collect/Maps.newHashMap()Ljava/util/HashMap;:com/google/javascript/jscomp/graph/LinkedUndirectedGraph.<init>(ZZ)V:com/google/common/collect/Maps.newHashMap()Ljava/util/HashMap;:com/google/javascript/jscomp/graph/LinkedUndirectedGraph.<init>(ZZ)V:com/google/common/collect/Maps.newHashMap()Ljava/util/HashMap;:com/google/javascript/jscomp/graph/LinkedUndirectedGraph.<init>(ZZ)V:com/google/common/collect/Maps.newHashMap()Ljava/util/HashMap;:com/google/javascript/jscomp/graph/LinkedUndirectedGraph.<init>(ZZ)V:com/google/javascript/jscomp/graph/UndiGraph.<init>()V'
p28
I1
sS'com/google/javascript/jscomp/graph/LinkedUndirectedGraph.<init>(ZZ)V:com/google/common/collect/Maps.newHashMap()Ljava/util/HashMap;:com/google/javascript/jscomp/graph/LinkedUndirectedGraph.<init>(ZZ)V:com/google/common/collect/Maps.newHashMap()Ljava/util/HashMap;:com/google/javascript/jscomp/graph/LinkedUndirectedGraph.<init>(ZZ)V:com/google/common/collect/Maps.newHashMap()Ljava/util/HashMap;:com/google/javascript/jscomp/graph/LinkedUndirectedGraph.<init>(ZZ)V:com/google/common/collect/Maps.newHashMap()Ljava/util/HashMap;:com/google/javascript/jscomp/graph/LinkedUndirectedGraph.<init>(ZZ)V:com/google/javascript/jscomp/graph/UndiGraph.<init>()V'
p29
I1
sS'com/google/javascript/jscomp/graph/LinkedUndirectedGraph.<init>(ZZ)V:com/google/common/collect/Maps.newHashMap()Ljava/util/HashMap;:com/google/javascript/jscomp/graph/LinkedUndirectedGraph.<init>(ZZ)V:com/google/common/collect/Maps.newHashMap()Ljava/util/HashMap;:com/google/javascript/jscomp/graph/LinkedUndirectedGraph.<init>(ZZ)V:com/google/common/collect/Maps.newHashMap()Ljava/util/HashMap;:com/google/javascript/jscomp/graph/LinkedUndirectedGraph.<init>(ZZ)V:com/google/javascript/jscomp/graph/UndiGraph.<init>()V'
p30
I1
sS'com/google/javascript/jscomp/graph/LinkedUndirectedGraph.<init>(ZZ)V:com/google/common/collect/Maps.newHashMap()Ljava/util/HashMap;:com/google/javascript/jscomp/graph/LinkedUndirectedGraph.<init>(ZZ)V:com/google/common/collect/Maps.newHashMap()Ljava/util/HashMap;:com/google/javascript/jscomp/graph/LinkedUndirectedGraph.<init>(ZZ)V:com/google/javascript/jscomp/graph/UndiGraph.<init>()V:com/google/javascript/jscomp/graph/Graph.<init>()V'
p31
I1
sS'com/google/javascript/jscomp/graph/LinkedUndirectedGraph.<init>(ZZ)V:com/google/common/collect/Maps.newHashMap()Ljava/util/HashMap;:com/google/javascript/jscomp/graph/LinkedUndirectedGraph.<init>(ZZ)V:com/google/common/collect/Maps.newHashMap()Ljava/util/HashMap;:com/google/javascript/jscomp/graph/LinkedUndirectedGraph.<init>(ZZ)V:com/google/common/collect/Maps.newHashMap()Ljava/util/HashMap;:com/google/javascript/jscomp/graph/LinkedUndirectedGraph.<init>(ZZ)V:com/google/common/collect/Maps.newHashMap()Ljava/util/HashMap;:com/google/javascript/jscomp/graph/LinkedUndirectedGraph.<init>(ZZ)V:com/google/common/collect/Maps.newHashMap()Ljava/util/HashMap;:com/google/javascript/jscomp/graph/LinkedUndirectedGraph.<init>(ZZ)V:com/google/common/collect/Maps.newHashMap()Ljava/util/HashMap;:com/google/javascript/jscomp/graph/LinkedUndirectedGraph.<init>(ZZ)V:com/google/javascript/jscomp/graph/UndiGraph.<init>()V:com/google/javascript/jscomp/graph/Graph.<init>()V:java/lang/Object.<init>()V'
p32
I1
sS'com/google/javascript/jscomp/graph/LinkedUndirectedGraph.<init>(ZZ)V:com/google/common/collect/Maps.newHashMap()Ljava/util/HashMap;:com/google/javascript/jscomp/graph/LinkedUndirectedGraph.<init>(ZZ)V:com/google/common/collect/Maps.newHashMap()Ljava/util/HashMap;:com/google/javascript/jscomp/graph/LinkedUndirectedGraph.<init>(ZZ)V'
p33
I1
sS'com/google/javascript/jscomp/graph/LinkedUndirectedGraph.<init>(ZZ)V:com/google/common/collect/Maps.newHashMap()Ljava/util/HashMap;:com/google/javascript/jscomp/graph/LinkedUndirectedGraph.<init>(ZZ)V:com/google/common/collect/Maps.newHashMap()Ljava/util/HashMap;:com/google/javascript/jscomp/graph/LinkedUndirectedGraph.<init>(ZZ)V:com/google/common/collect/Maps.newHashMap()Ljava/util/HashMap;:com/google/javascript/jscomp/graph/LinkedUndirectedGraph.<init>(ZZ)V:com/google/common/collect/Maps.newHashMap()Ljava/util/HashMap;:com/google/javascript/jscomp/graph/LinkedUndirectedGraph.<init>(ZZ)V:com/google/common/collect/Maps.newHashMap()Ljava/util/HashMap;:com/google/javascript/jscomp/graph/LinkedUndirectedGraph.<init>(ZZ)V'
p34
I1
sS'com/google/javascript/jscomp/graph/LinkedUndirectedGraph.<init>(ZZ)V:com/google/common/collect/Maps.newHashMap()Ljava/util/HashMap;:com/google/javascript/jscomp/graph/LinkedUndirectedGraph.<init>(ZZ)V'
p35
I1
s.