(dp0
S'com/google/javascript/jscomp/graph/GraphReachability.<init>(Lcom/google/javascript/jscomp/graph/DiGraph;Lcom/google/common/base/Predicate;)V'
p1
I1
sS'com/google/javascript/jscomp/graph/LinkedDirectedGraph.<init>(ZZ)V:com/google/javascript/jscomp/graph/DiGraph.<init>()V'
p2
I1
sS'com/google/javascript/jscomp/graph/LinkedDirectedGraph.createDirectedGraphNode(Ljava/lang/Object;)Lcom/google/javascript/jscomp/graph/LinkedDirectedGraph$LinkedDirectedGraphNode;:java/util/Map.get(Ljava/lang/Object;)Ljava/lang/Object;'
p3
I1
sS'com/google/javascript/jscomp/graph/DiGraph.clearNodeAnnotations()V:com/google/javascript/jscomp/graph/Graph.getNodes()Ljava/util/Collection;:java/util/Collections.unmodifiableCollection(Ljava/util/Collection;)Ljava/util/Collection;'
p4
I1
sS'com/google/javascript/jscomp/graph/GraphReachability.<init>(Lcom/google/javascript/jscomp/graph/DiGraph;Lcom/google/common/base/Predicate;)V:java/lang/Object.<init>()V'
p5
I1
sS'com/google/javascript/jscomp/graph/DiGraph.getNode(Ljava/lang/Object;)Lcom/google/javascript/jscomp/graph/GraphNode;:com/google/javascript/jscomp/graph/LinkedDirectedGraph.getDirectedGraphNode(Ljava/lang/Object;)Lcom/google/javascript/jscomp/graph/DiGraph$DiGraphNode;:java/util/Map.get(Ljava/lang/Object;)Ljava/lang/Object;'
p6
I1
sS'com/google/javascript/jscomp/graph/GraphReachability$1.<init>()V'
p7
I1
sS'com/google/javascript/jscomp/graph/LinkedDirectedGraph.createDirectedGraphNode(Ljava/lang/Object;)Lcom/google/javascript/jscomp/graph/LinkedDirectedGraph$LinkedDirectedGraphNode;:com/google/javascript/jscomp/graph/LinkedDirectedGraph$AnnotatedLinkedDirectedGraphNode.<init>(Ljava/lang/Object;)V:com/google/javascript/jscomp/graph/LinkedDirectedGraph$LinkedDirectedGraphNode.<init>(Ljava/lang/Object;)V:java/lang/Object.<init>()V'
p8
I1
sS'com/google/javascript/jscomp/graph/LinkedDirectedGraph.<init>(ZZ)V'
p9
I1
sS'com/google/javascript/jscomp/graph/LinkedDirectedGraph.createDirectedGraphNode(Ljava/lang/Object;)Lcom/google/javascript/jscomp/graph/LinkedDirectedGraph$LinkedDirectedGraphNode;:com/google/javascript/jscomp/graph/LinkedDirectedGraph$AnnotatedLinkedDirectedGraphNode.<init>(Ljava/lang/Object;)V'
p10
I1
sS'com/google/javascript/jscomp/graph/LinkedDirectedGraph.createDirectedGraphNode(Ljava/lang/Object;)Lcom/google/javascript/jscomp/graph/LinkedDirectedGraph$LinkedDirectedGraphNode;:java/util/Map.put(Ljava/lang/Object;Ljava/lang/Object;)Ljava/lang/Object;'
p11
I1
sS'com/google/javascript/jscomp/graph/LinkedDirectedGraph.<init>(ZZ)V:java/util/HashMap.<init>()V'
p12
I1
sS'com/google/javascript/jscomp/graph/FixedPointGraphTraversal.computeFixedPoint(Lcom/google/javascript/jscomp/graph/DiGraph;Ljava/lang/Object;)V'
p13
I1
sS'com/google/javascript/jscomp/graph/LinkedDirectedGraph.createDirectedGraphNode(Ljava/lang/Object;)Lcom/google/javascript/jscomp/graph/LinkedDirectedGraph$LinkedDirectedGraphNode;:com/google/javascript/jscomp/graph/LinkedDirectedGraph$AnnotatedLinkedDirectedGraphNode.<init>(Ljava/lang/Object;)V:com/google/javascript/jscomp/graph/LinkedDirectedGraph$LinkedDirectedGraphNode.<init>(Ljava/lang/Object;)V:java/util/ArrayList.<init>()V'
p14
I2
sS'com/google/javascript/jscomp/graph/FixedPointGraphTraversal.newTraversal(Lcom/google/javascript/jscomp/graph/FixedPointGraphTraversal$EdgeCallback;)Lcom/google/javascript/jscomp/graph/FixedPointGraphTraversal;:com/google/javascript/jscomp/graph/FixedPointGraphTraversal.<init>(Lcom/google/javascript/jscomp/graph/FixedPointGraphTraversal$EdgeCallback;)V:java/lang/Object.<init>()V'
p15
I1
sS'com/google/javascript/jscomp/graph/FixedPointGraphTraversal.newTraversal(Lcom/google/javascript/jscomp/graph/FixedPointGraphTraversal$EdgeCallback;)Lcom/google/javascript/jscomp/graph/FixedPointGraphTraversal;:com/google/javascript/jscomp/graph/FixedPointGraphTraversal.<init>(Lcom/google/javascript/jscomp/graph/FixedPointGraphTraversal$EdgeCallback;)V'
p16
I1
sS'com/google/javascript/jscomp/graph/DiGraph.clearNodeAnnotations()V:com/google/javascript/jscomp/graph/Graph.getNodes()Ljava/util/Collection;'
p17
I1
sS'com/google/javascript/jscomp/graph/LinkedDirectedGraph.createDirectedGraphNode(Ljava/lang/Object;)Lcom/google/javascript/jscomp/graph/LinkedDirectedGraph$LinkedDirectedGraphNode;:com/google/javascript/jscomp/graph/LinkedDirectedGraph$AnnotatedLinkedDirectedGraphNode.<init>(Ljava/lang/Object;)V:com/google/javascript/jscomp/graph/LinkedDirectedGraph$LinkedDirectedGraphNode.<init>(Ljava/lang/Object;)V'
p18
I1
sS'com/google/javascript/jscomp/graph/DiGraph.clearNodeAnnotations()V'
p19
I1
sS'com/google/javascript/jscomp/graph/GraphReachability$1.<init>()V:java/lang/Object.<init>()V'
p20
I1
sS'com/google/javascript/jscomp/graph/GraphNode.setAnnotation(Lcom/google/javascript/jscomp/graph/Annotation;)V'
p21
I1
sS'com/google/javascript/jscomp/graph/DiGraph.getNode(Ljava/lang/Object;)Lcom/google/javascript/jscomp/graph/GraphNode;'
p22
I1
sS'com/google/javascript/jscomp/graph/LinkedDirectedGraph.createDirectedGraphNode(Ljava/lang/Object;)Lcom/google/javascript/jscomp/graph/LinkedDirectedGraph$LinkedDirectedGraphNode;'
p23
I1
sS'com/google/javascript/jscomp/graph/DiGraph.clearNodeAnnotations()V:java/util/Iterator.hasNext()Z'
p24
I2
sS'com/google/javascript/jscomp/graph/DiGraph.clearNodeAnnotations()V:com/google/javascript/jscomp/graph/GraphNode.setAnnotation(Lcom/google/javascript/jscomp/graph/Annotation;)V'
p25
I1
sS'com/google/javascript/jscomp/graph/DiGraph.getNode(Ljava/lang/Object;)Lcom/google/javascript/jscomp/graph/GraphNode;:com/google/javascript/jscomp/graph/LinkedDirectedGraph.getDirectedGraphNode(Ljava/lang/Object;)Lcom/google/javascript/jscomp/graph/DiGraph$DiGraphNode;'
p26
I1
sS'com/google/javascript/jscomp/graph/DiGraph.clearNodeAnnotations()V:java/util/Iterator.next()Ljava/lang/Object;'
p27
I1
sS'com/google/javascript/jscomp/graph/DiGraph.clearNodeAnnotations()V:com/google/javascript/jscomp/graph/Graph.getNodes()Ljava/util/Collection;:java/util/Map.values()Ljava/util/Collection;'
p28
I1
sS'com/google/javascript/jscomp/graph/FixedPointGraphTraversal.computeFixedPoint(Lcom/google/javascript/jscomp/graph/DiGraph;Ljava/lang/Object;)V:com/google/common/collect/Sets.newHashSet()Ljava/util/HashSet;'
p29
I1
sS'com/google/javascript/jscomp/graph/LinkedDirectedGraph.<init>(ZZ)V:com/google/javascript/jscomp/graph/DiGraph.<init>()V:com/google/javascript/jscomp/graph/Graph.<init>()V:java/lang/Object.<init>()V'
p30
I1
sS'com/google/javascript/jscomp/graph/FixedPointGraphTraversal.newTraversal(Lcom/google/javascript/jscomp/graph/FixedPointGraphTraversal$EdgeCallback;)Lcom/google/javascript/jscomp/graph/FixedPointGraphTraversal;'
p31
I1
sS'com/google/javascript/jscomp/graph/DiGraph.clearNodeAnnotations()V:java/util/Collection.iterator()Ljava/util/Iterator;'
p32
I1
sS'com/google/javascript/jscomp/graph/LinkedDirectedGraph.<init>(ZZ)V:com/google/javascript/jscomp/graph/DiGraph.<init>()V:com/google/javascript/jscomp/graph/Graph.<init>()V'
p33
I1
s.