(dp0
S'com/google/javascript/jscomp/graph/LinkedUndirectedGraph.<init>(ZZ)V:com/google/common/collect/Maps.newHashMap()Ljava/util/HashMap;:com/google/javascript/jscomp/graph/DiGraph.isConnectedInDirection(Ljava/lang/Object;Ljava/lang/Object;)Z:com/google/common/base/Predicates.alwaysTrue()Lcom/google/common/base/Predicate;:com/google/javascript/jscomp/graph/LinkedUndirectedGraph.<init>(ZZ)V:com/google/common/collect/Maps.newHashMap()Ljava/util/HashMap;:java/util/List.add(Ljava/lang/Object;)Z'
p1
I10
sS'com/google/javascript/jscomp/graph/LinkedUndirectedGraph.<init>(ZZ)V:com/google/common/collect/Maps.newHashMap()Ljava/util/HashMap;:com/google/javascript/jscomp/graph/DiGraph.isConnectedInDirection(Ljava/lang/Object;Ljava/lang/Object;)Z:com/google/common/base/Predicates.alwaysTrue()Lcom/google/common/base/Predicate;:com/google/javascript/jscomp/graph/LinkedUndirectedGraph.<init>(ZZ)V:com/google/javascript/jscomp/graph/UndiGraph.<init>()V:com/google/javascript/jscomp/graph/Graph.<init>()V'
p2
I1
sS'com/google/javascript/jscomp/graph/LinkedUndirectedGraph.<init>(ZZ)V:com/google/common/collect/Maps.newHashMap()Ljava/util/HashMap;:com/google/javascript/jscomp/graph/LinkedDirectedGraph.createDirectedGraphNode(Ljava/lang/Object;)Lcom/google/javascript/jscomp/graph/LinkedDirectedGraph$LinkedDirectedGraphNode;:java/util/Map.get(Ljava/lang/Object;)Ljava/lang/Object;'
p3
I2
sS'com/google/javascript/jscomp/graph/LinkedUndirectedGraph.<init>(ZZ)V:com/google/common/collect/Maps.newHashMap()Ljava/util/HashMap;:com/google/javascript/jscomp/graph/DiGraph.isConnectedInDirection(Ljava/lang/Object;Ljava/lang/Object;)Z:com/google/common/base/Predicates.alwaysTrue()Lcom/google/common/base/Predicate;:com/google/javascript/jscomp/graph/LinkedUndirectedGraph.<init>(ZZ)V:com/google/common/collect/Maps.newHashMap()Ljava/util/HashMap;:com/google/javascript/jscomp/graph/LinkedDirectedGraph.getDirectedSuccNodes(Lcom/google/javascript/jscomp/graph/DiGraph$DiGraphNode;)Ljava/util/List;:com/google/common/base/Preconditions.checkNotNull(Ljava/lang/Object;)Ljava/lang/Object;:com/google/javascript/jscomp/graph/LinkedUndirectedGraph.<init>(ZZ)V:com/google/javascript/jscomp/graph/UndiGraph.<init>()V:com/google/javascript/jscomp/graph/Graph.<init>()V'
p4
I1
sS'com/google/javascript/jscomp/graph/LinkedUndirectedGraph.<init>(ZZ)V:com/google/common/collect/Maps.newHashMap()Ljava/util/HashMap;:com/google/javascript/jscomp/graph/DiGraph.isConnectedInDirection(Ljava/lang/Object;Ljava/lang/Object;)Z:com/google/common/base/Predicates.alwaysTrue()Lcom/google/common/base/Predicate;:com/google/javascript/jscomp/graph/LinkedUndirectedGraph.<init>(ZZ)V:com/google/common/collect/Maps.newHashMap()Ljava/util/HashMap;:com/google/javascript/jscomp/graph/LinkedDirectedGraph.<init>(ZZ)V:java/util/HashMap.<init>()V'
p5
I1
sS'com/google/javascript/jscomp/graph/LinkedDirectedGraph.createDirectedGraphNode(Ljava/lang/Object;)Lcom/google/javascript/jscomp/graph/LinkedDirectedGraph$LinkedDirectedGraphNode;:java/util/Map.put(Ljava/lang/Object;Ljava/lang/Object;)Ljava/lang/Object;'
p6
I3
sS'com/google/javascript/jscomp/graph/LinkedUndirectedGraph.<init>(ZZ)V:com/google/common/collect/Maps.newHashMap()Ljava/util/HashMap;:com/google/javascript/jscomp/graph/DiGraph.isConnectedInDirection(Ljava/lang/Object;Ljava/lang/Object;)Z:com/google/common/base/Predicates.alwaysTrue()Lcom/google/common/base/Predicate;:com/google/javascript/jscomp/graph/LinkedUndirectedGraph.<init>(ZZ)V:com/google/common/collect/Maps.newHashMap()Ljava/util/HashMap;:com/google/javascript/jscomp/graph/LinkedDirectedGraph.getDirectedSuccNodes(Lcom/google/javascript/jscomp/graph/DiGraph$DiGraphNode;)Ljava/util/List;:com/google/common/base/Preconditions.checkNotNull(Ljava/lang/Object;)Ljava/lang/Object;:com/google/javascript/jscomp/graph/LinkedUndirectedGraph.<init>(ZZ)V:com/google/common/collect/Maps.newHashMap()Ljava/util/HashMap;:com/google/javascript/jscomp/graph/LinkedDirectedGraph.createDirectedGraphNode(Ljava/lang/Object;)Lcom/google/javascript/jscomp/graph/LinkedDirectedGraph$LinkedDirectedGraphNode;:java/util/Map.put(Ljava/lang/Object;Ljava/lang/Object;)Ljava/lang/Object;'
p7
I3
sS'com/google/javascript/jscomp/graph/Graph.getNode(Ljava/lang/Object;)Lcom/google/javascript/jscomp/graph/GraphNode;:com/google/javascript/jscomp/graph/LinkedDirectedGraph.getDirectedGraphNode(Ljava/lang/Object;)Lcom/google/javascript/jscomp/graph/DiGraph$DiGraphNode;:java/util/Map.get(Ljava/lang/Object;)Ljava/lang/Object;'
p8
I1
sS'com/google/javascript/jscomp/graph/LinkedUndirectedGraph.<init>(ZZ)V:com/google/common/collect/Maps.newHashMap()Ljava/util/HashMap;:com/google/javascript/jscomp/graph/DiGraph.isConnectedInDirection(Ljava/lang/Object;Ljava/lang/Object;)Z:com/google/common/base/Predicates.alwaysTrue()Lcom/google/common/base/Predicate;:com/google/javascript/jscomp/graph/LinkedUndirectedGraph.<init>(ZZ)V:com/google/common/collect/Maps.newHashMap()Ljava/util/HashMap;:com/google/javascript/jscomp/graph/LinkedDirectedGraph.getDirectedSuccNodes(Lcom/google/javascript/jscomp/graph/DiGraph$DiGraphNode;)Ljava/util/List;:com/google/common/base/Preconditions.checkNotNull(Ljava/lang/Object;)Ljava/lang/Object;:com/google/javascript/jscomp/graph/LinkedUndirectedGraph.<init>(ZZ)V:com/google/common/collect/Maps.newHashMap()Ljava/util/HashMap;:com/google/javascript/jscomp/graph/LinkedUndirectedGraph.<init>(ZZ)V:com/google/common/collect/Maps.newHashMap()Ljava/util/HashMap;:com/google/javascript/jscomp/graph/LinkedUndirectedGraph.<init>(ZZ)V:com/google/javascript/jscomp/graph/UndiGraph.<init>()V:com/google/javascript/jscomp/graph/Graph.<init>()V'
p9
I1
sS'com/google/javascript/jscomp/graph/Graph.getNode(Ljava/lang/Object;)Lcom/google/javascript/jscomp/graph/GraphNode;'
p10
I1
sS'com/google/javascript/jscomp/graph/LinkedUndirectedGraph.<init>(ZZ)V:com/google/common/collect/Maps.newHashMap()Ljava/util/HashMap;:com/google/javascript/jscomp/graph/LinkedDirectedGraph$LinkedDirectedGraphNode.getInEdges()Ljava/util/List;'
p11
I1
sS'com/google/javascript/jscomp/graph/Graph.getNode(Ljava/lang/Object;)Lcom/google/javascript/jscomp/graph/GraphNode;:com/google/javascript/jscomp/graph/LinkedDirectedGraph.getDirectedGraphNode(Ljava/lang/Object;)Lcom/google/javascript/jscomp/graph/DiGraph$DiGraphNode;'
p12
I1
sS'com/google/javascript/jscomp/graph/LinkedUndirectedGraph.<init>(ZZ)V:com/google/common/collect/Maps.newHashMap()Ljava/util/HashMap;:com/google/javascript/jscomp/graph/DiGraph.isConnectedInDirection(Ljava/lang/Object;Ljava/lang/Object;)Z:com/google/common/base/Predicates.alwaysTrue()Lcom/google/common/base/Predicate;:com/google/javascript/jscomp/graph/LinkedUndirectedGraph.<init>(ZZ)V:com/google/common/collect/Maps.newHashMap()Ljava/util/HashMap;:com/google/javascript/jscomp/graph/LinkedDirectedGraph$AnnotatedLinkedDirectedGraphEdge.<init>(Lcom/google/javascript/jscomp/graph/DiGraph$DiGraphNode;Ljava/lang/Object;Lcom/google/javascript/jscomp/graph/DiGraph$DiGraphNode;)V'
p13
I5
sS'com/google/javascript/jscomp/graph/LinkedUndirectedGraph.<init>(ZZ)V:com/google/common/collect/Maps.newHashMap()Ljava/util/HashMap;:com/google/javascript/jscomp/graph/DiGraph.isConnectedInDirection(Ljava/lang/Object;Ljava/lang/Object;)Z:com/google/common/base/Predicates.alwaysTrue()Lcom/google/common/base/Predicate;:com/google/javascript/jscomp/graph/LinkedUndirectedGraph.<init>(ZZ)V:com/google/common/collect/Maps.newHashMap()Ljava/util/HashMap;:com/google/javascript/jscomp/graph/LinkedDirectedGraph.<init>(ZZ)V:com/google/javascript/jscomp/graph/DiGraph.<init>()V:com/google/javascript/jscomp/graph/Graph.<init>()V'
p14
I1
sS'com/google/javascript/jscomp/graph/LinkedUndirectedGraph.<init>(ZZ)V:com/google/common/collect/Maps.newHashMap()Ljava/util/HashMap;:com/google/javascript/jscomp/graph/DiGraph.isConnectedInDirection(Ljava/lang/Object;Ljava/lang/Object;)Z:com/google/common/base/Predicates.alwaysTrue()Lcom/google/common/base/Predicate;:com/google/javascript/jscomp/graph/LinkedUndirectedGraph.<init>(ZZ)V:com/google/common/collect/Maps.newHashMap()Ljava/util/HashMap;:com/google/javascript/jscomp/graph/LinkedDirectedGraph.getNodeOrFail(Ljava/lang/Object;)Lcom/google/javascript/jscomp/graph/GraphNode;:com/google/javascript/jscomp/graph/Graph.getNode(Ljava/lang/Object;)Lcom/google/javascript/jscomp/graph/GraphNode;:com/google/javascript/jscomp/graph/LinkedDirectedGraph.getDirectedGraphNode(Ljava/lang/Object;)Lcom/google/javascript/jscomp/graph/DiGraph$DiGraphNode;'
p15
I10
sS'com/google/javascript/jscomp/graph/LinkedDirectedGraph.createDirectedGraphNode(Ljava/lang/Object;)Lcom/google/javascript/jscomp/graph/LinkedDirectedGraph$LinkedDirectedGraphNode;:com/google/javascript/jscomp/graph/LinkedDirectedGraph$AnnotatedLinkedDirectedGraphNode.<init>(Ljava/lang/Object;)V:com/google/javascript/jscomp/graph/LinkedDirectedGraph$LinkedDirectedGraphNode.<init>(Ljava/lang/Object;)V'
p16
I3
sS'com/google/javascript/jscomp/graph/LinkedDirectedGraph.getNodeOrFail(Ljava/lang/Object;)Lcom/google/javascript/jscomp/graph/GraphNode;:com/google/javascript/jscomp/graph/Graph.getNode(Ljava/lang/Object;)Lcom/google/javascript/jscomp/graph/GraphNode;:com/google/javascript/jscomp/graph/LinkedDirectedGraph.getDirectedGraphNode(Ljava/lang/Object;)Lcom/google/javascript/jscomp/graph/DiGraph$DiGraphNode;:java/util/Map.get(Ljava/lang/Object;)Ljava/lang/Object;'
p17
I2
sS'com/google/javascript/jscomp/graph/LinkedUndirectedGraph.<init>(ZZ)V:com/google/common/collect/Maps.newHashMap()Ljava/util/HashMap;:com/google/javascript/jscomp/graph/DiGraph.isConnectedInDirection(Ljava/lang/Object;Ljava/lang/Object;)Z:com/google/common/base/Predicates.alwaysTrue()Lcom/google/common/base/Predicate;:com/google/javascript/jscomp/graph/LinkedUndirectedGraph.<init>(ZZ)V:com/google/common/collect/Maps.newHashMap()Ljava/util/HashMap;:com/google/javascript/jscomp/graph/LinkedDirectedGraph.getDirectedSuccNodes(Lcom/google/javascript/jscomp/graph/DiGraph$DiGraphNode;)Ljava/util/List;:com/google/common/base/Preconditions.checkNotNull(Ljava/lang/Object;)Ljava/lang/Object;:com/google/javascript/jscomp/graph/LinkedUndirectedGraph.<init>(ZZ)V:com/google/common/collect/Maps.newHashMap()Ljava/util/HashMap;:com/google/javascript/jscomp/graph/LinkedUndirectedGraph.<init>(ZZ)V:com/google/common/collect/Maps.newHashMap()Ljava/util/HashMap;:com/google/javascript/jscomp/graph/LinkedUndirectedGraph.<init>(ZZ)V:com/google/common/collect/Maps.newHashMap()Ljava/util/HashMap;:com/google/javascript/jscomp/graph/LinkedUndirectedGraph.<init>(ZZ)V'
p18
I1
sS'com/google/javascript/jscomp/graph/LinkedUndirectedGraph.<init>(ZZ)V:com/google/common/collect/Maps.newHashMap()Ljava/util/HashMap;:com/google/javascript/jscomp/graph/DiGraph.isConnectedInDirection(Ljava/lang/Object;Ljava/lang/Object;)Z:com/google/common/base/Predicates.alwaysTrue()Lcom/google/common/base/Predicate;:com/google/javascript/jscomp/graph/LinkedUndirectedGraph.<init>(ZZ)V:com/google/common/collect/Maps.newHashMap()Ljava/util/HashMap;:com/google/javascript/jscomp/graph/LinkedDirectedGraph.getDirectedSuccNodes(Lcom/google/javascript/jscomp/graph/DiGraph$DiGraphNode;)Ljava/util/List;:com/google/common/base/Preconditions.checkNotNull(Ljava/lang/Object;)Ljava/lang/Object;:com/google/javascript/jscomp/graph/LinkedUndirectedGraph.<init>(ZZ)V:com/google/common/collect/Maps.newHashMap()Ljava/util/HashMap;:com/google/javascript/jscomp/graph/LinkedUndirectedGraph.<init>(ZZ)V:com/google/common/collect/Maps.newHashMap()Ljava/util/HashMap;:com/google/javascript/jscomp/graph/LinkedUndirectedGraph.<init>(ZZ)V:com/google/common/collect/Maps.newHashMap()Ljava/util/HashMap;:com/google/javascript/jscomp/graph/LinkedUndirectedGraph.<init>(ZZ)V:com/google/common/collect/Maps.newHashMap()Ljava/util/HashMap;:com/google/javascript/jscomp/graph/LinkedDirectedGraph.<init>(ZZ)V'
p19
I2
sS'com/google/javascript/jscomp/graph/LinkedUndirectedGraph.<init>(ZZ)V:com/google/common/collect/Maps.newHashMap()Ljava/util/HashMap;:com/google/javascript/jscomp/graph/LinkedDirectedGraph$AnnotatedLinkedDirectedGraphEdge.<init>(Lcom/google/javascript/jscomp/graph/DiGraph$DiGraphNode;Ljava/lang/Object;Lcom/google/javascript/jscomp/graph/DiGraph$DiGraphNode;)V:com/google/javascript/jscomp/graph/LinkedDirectedGraph$LinkedDirectedGraphEdge.<init>(Lcom/google/javascript/jscomp/graph/DiGraph$DiGraphNode;Ljava/lang/Object;Lcom/google/javascript/jscomp/graph/DiGraph$DiGraphNode;)V'
p20
I1
sS'com/google/javascript/jscomp/graph/LinkedUndirectedGraph.<init>(ZZ)V:com/google/common/collect/Maps.newHashMap()Ljava/util/HashMap;:com/google/javascript/jscomp/graph/DiGraph.isConnectedInDirection(Ljava/lang/Object;Ljava/lang/Object;)Z:com/google/common/base/Predicates.alwaysTrue()Lcom/google/common/base/Predicate;:com/google/javascript/jscomp/graph/LinkedUndirectedGraph.<init>(ZZ)V:com/google/common/collect/Maps.newHashMap()Ljava/util/HashMap;:com/google/javascript/jscomp/graph/LinkedDirectedGraph$LinkedDirectedGraphNode.getInEdges()Ljava/util/List;'
p21
I5
sS'com/google/javascript/jscomp/graph/LinkedUndirectedGraph.<init>(ZZ)V:com/google/common/collect/Maps.newHashMap()Ljava/util/HashMap;:com/google/javascript/jscomp/graph/DiGraph.isConnectedInDirection(Ljava/lang/Object;Ljava/lang/Object;)Z:com/google/common/base/Predicates.alwaysTrue()Lcom/google/common/base/Predicate;:com/google/javascript/jscomp/graph/LinkedUndirectedGraph.<init>(ZZ)V:com/google/common/collect/Maps.newHashMap()Ljava/util/HashMap;:com/google/javascript/jscomp/graph/LinkedDirectedGraph$AnnotatedLinkedDirectedGraphEdge.<init>(Lcom/google/javascript/jscomp/graph/DiGraph$DiGraphNode;Ljava/lang/Object;Lcom/google/javascript/jscomp/graph/DiGraph$DiGraphNode;)V:com/google/javascript/jscomp/graph/LinkedDirectedGraph$LinkedDirectedGraphEdge.<init>(Lcom/google/javascript/jscomp/graph/DiGraph$DiGraphNode;Ljava/lang/Object;Lcom/google/javascript/jscomp/graph/DiGraph$DiGraphNode;)V:java/lang/Object.<init>()V'
p22
I5
sS'com/google/javascript/jscomp/graph/LinkedUndirectedGraph.<init>(ZZ)V:com/google/common/collect/Maps.newHashMap()Ljava/util/HashMap;:com/google/javascript/jscomp/graph/DiGraph.isConnectedInDirection(Ljava/lang/Object;Ljava/lang/Object;)Z:com/google/common/base/Predicates.alwaysTrue()Lcom/google/common/base/Predicate;:com/google/javascript/jscomp/graph/LinkedUndirectedGraph.<init>(ZZ)V:com/google/common/collect/Maps.newHashMap()Ljava/util/HashMap;:com/google/javascript/jscomp/graph/LinkedDirectedGraph.createDirectedGraphNode(Ljava/lang/Object;)Lcom/google/javascript/jscomp/graph/LinkedDirectedGraph$LinkedDirectedGraphNode;:com/google/javascript/jscomp/graph/LinkedDirectedGraph$AnnotatedLinkedDirectedGraphNode.<init>(Ljava/lang/Object;)V:com/google/javascript/jscomp/graph/LinkedDirectedGraph$LinkedDirectedGraphNode.<init>(Ljava/lang/Object;)V:java/util/ArrayList.<init>()V'
p23
I8
sS'com/google/javascript/jscomp/graph/LinkedDirectedGraph$LinkedDirectedGraphNode.getOutEdges()Ljava/util/List;'
p24
I1
sS'com/google/javascript/jscomp/graph/LinkedUndirectedGraph.<init>(ZZ)V:com/google/common/collect/Maps.newHashMap()Ljava/util/HashMap;:com/google/javascript/jscomp/graph/DiGraph.isConnectedInDirection(Ljava/lang/Object;Ljava/lang/Object;)Z:com/google/common/base/Predicates.alwaysTrue()Lcom/google/common/base/Predicate;:com/google/javascript/jscomp/graph/LinkedUndirectedGraph.<init>(ZZ)V:com/google/common/collect/Maps.newHashMap()Ljava/util/HashMap;:java/util/Map.get(Ljava/lang/Object;)Ljava/lang/Object;'
p25
I1
sS'com/google/javascript/jscomp/graph/LinkedDirectedGraph$AnnotatedLinkedDirectedGraphEdge.<init>(Lcom/google/javascript/jscomp/graph/DiGraph$DiGraphNode;Ljava/lang/Object;Lcom/google/javascript/jscomp/graph/DiGraph$DiGraphNode;)V:com/google/javascript/jscomp/graph/LinkedDirectedGraph$LinkedDirectedGraphEdge.<init>(Lcom/google/javascript/jscomp/graph/DiGraph$DiGraphNode;Ljava/lang/Object;Lcom/google/javascript/jscomp/graph/DiGraph$DiGraphNode;)V:java/lang/Object.<init>()V'
p26
I1
sS'com/google/javascript/jscomp/graph/LinkedDirectedGraph.getNodeOrFail(Ljava/lang/Object;)Lcom/google/javascript/jscomp/graph/GraphNode;'
p27
I2
sS'com/google/javascript/jscomp/graph/LinkedUndirectedGraph.<init>(ZZ)V:com/google/common/collect/Maps.newHashMap()Ljava/util/HashMap;:com/google/javascript/jscomp/graph/DiGraph.isConnectedInDirection(Ljava/lang/Object;Ljava/lang/Object;)Z:com/google/common/base/Predicates.alwaysTrue()Lcom/google/common/base/Predicate;:com/google/javascript/jscomp/graph/LinkedUndirectedGraph.<init>(ZZ)V:com/google/common/collect/Maps.newHashMap()Ljava/util/HashMap;:com/google/javascript/jscomp/graph/LinkedDirectedGraph.getDirectedSuccNodes(Lcom/google/javascript/jscomp/graph/DiGraph$DiGraphNode;)Ljava/util/List;:com/google/common/base/Preconditions.checkNotNull(Ljava/lang/Object;)Ljava/lang/Object;:com/google/javascript/jscomp/graph/LinkedUndirectedGraph.<init>(ZZ)V:com/google/common/collect/Maps.newHashMap()Ljava/util/HashMap;:com/google/javascript/jscomp/graph/LinkedUndirectedGraph.<init>(ZZ)V:com/google/javascript/jscomp/graph/UndiGraph.<init>()V:com/google/javascript/jscomp/graph/Graph.<init>()V'
p28
I1
sS'com/google/javascript/jscomp/graph/LinkedUndirectedGraph.<init>(ZZ)V:com/google/common/collect/Maps.newHashMap()Ljava/util/HashMap;:com/google/javascript/jscomp/graph/DiGraph.isConnectedInDirection(Ljava/lang/Object;Ljava/lang/Object;)Z:com/google/common/base/Predicates.alwaysTrue()Lcom/google/common/base/Predicate;:com/google/javascript/jscomp/graph/LinkedUndirectedGraph.<init>(ZZ)V:com/google/common/collect/Maps.newHashMap()Ljava/util/HashMap;:com/google/javascript/jscomp/graph/LinkedDirectedGraph.getDirectedSuccNodes(Lcom/google/javascript/jscomp/graph/DiGraph$DiGraphNode;)Ljava/util/List;:com/google/common/base/Preconditions.checkNotNull(Ljava/lang/Object;)Ljava/lang/Object;:com/google/javascript/jscomp/graph/LinkedUndirectedGraph.<init>(ZZ)V:com/google/common/collect/Maps.newHashMap()Ljava/util/HashMap;:com/google/javascript/jscomp/graph/LinkedUndirectedGraph.<init>(ZZ)V:com/google/common/collect/Maps.newHashMap()Ljava/util/HashMap;:com/google/javascript/jscomp/graph/LinkedUndirectedGraph.<init>(ZZ)V:com/google/common/collect/Maps.newHashMap()Ljava/util/HashMap;:com/google/javascript/jscomp/graph/LinkedUndirectedGraph.<init>(ZZ)V:com/google/common/collect/Maps.newHashMap()Ljava/util/HashMap;:com/google/javascript/jscomp/graph/LinkedDirectedGraph.getNodeOrFail(Ljava/lang/Object;)Lcom/google/javascript/jscomp/graph/GraphNode;:com/google/javascript/jscomp/graph/Graph.getNode(Ljava/lang/Object;)Lcom/google/javascript/jscomp/graph/GraphNode;:com/google/javascript/jscomp/graph/LinkedDirectedGraph.getDirectedGraphNode(Ljava/lang/Object;)Lcom/google/javascript/jscomp/graph/DiGraph$DiGraphNode;'
p29
I1
sS'com/google/javascript/jscomp/graph/LinkedDirectedGraph.getNodeOrFail(Ljava/lang/Object;)Lcom/google/javascript/jscomp/graph/GraphNode;:com/google/javascript/jscomp/graph/Graph.getNode(Ljava/lang/Object;)Lcom/google/javascript/jscomp/graph/GraphNode;'
p30
I2
sS'com/google/javascript/jscomp/graph/LinkedUndirectedGraph.<init>(ZZ)V:com/google/common/collect/Maps.newHashMap()Ljava/util/HashMap;:com/google/javascript/jscomp/graph/DiGraph.isConnectedInDirection(Ljava/lang/Object;Ljava/lang/Object;)Z:com/google/common/base/Predicates.alwaysTrue()Lcom/google/common/base/Predicate;:com/google/javascript/jscomp/graph/LinkedUndirectedGraph.<init>(ZZ)V:com/google/common/collect/Maps.newHashMap()Ljava/util/HashMap;:com/google/javascript/jscomp/graph/LinkedDirectedGraph.getDirectedSuccNodes(Lcom/google/javascript/jscomp/graph/DiGraph$DiGraphNode;)Ljava/util/List;:com/google/common/base/Preconditions.checkNotNull(Ljava/lang/Object;)Ljava/lang/Object;:com/google/javascript/jscomp/graph/LinkedUndirectedGraph.<init>(ZZ)V:com/google/common/collect/Maps.newHashMap()Ljava/util/HashMap;:com/google/javascript/jscomp/graph/LinkedUndirectedGraph.<init>(ZZ)V:com/google/common/collect/Maps.newHashMap()Ljava/util/HashMap;:com/google/javascript/jscomp/graph/LinkedUndirectedGraph.<init>(ZZ)V:com/google/common/collect/Maps.newHashMap()Ljava/util/HashMap;'
p31
I1
sS'com/google/javascript/jscomp/graph/LinkedUndirectedGraph.<init>(ZZ)V:com/google/javascript/jscomp/graph/UndiGraph.<init>()V:com/google/javascript/jscomp/graph/Graph.<init>()V'
p32
I1
sS'com/google/javascript/jscomp/graph/LinkedUndirectedGraph.<init>(ZZ)V:com/google/common/collect/Maps.newHashMap()Ljava/util/HashMap;:com/google/javascript/jscomp/graph/DiGraph.isConnectedInDirection(Ljava/lang/Object;Ljava/lang/Object;)Z:com/google/common/base/Predicates.alwaysTrue()Lcom/google/common/base/Predicate;:com/google/javascript/jscomp/graph/LinkedUndirectedGraph.<init>(ZZ)V:com/google/common/collect/Maps.newHashMap()Ljava/util/HashMap;:com/google/javascript/jscomp/graph/LinkedDirectedGraph.getDirectedSuccNodes(Lcom/google/javascript/jscomp/graph/DiGraph$DiGraphNode;)Ljava/util/List;:com/google/common/base/Preconditions.checkNotNull(Ljava/lang/Object;)Ljava/lang/Object;:com/google/javascript/jscomp/graph/LinkedUndirectedGraph.<init>(ZZ)V:com/google/common/collect/Maps.newHashMap()Ljava/util/HashMap;:com/google/javascript/jscomp/graph/LinkedDirectedGraph$AnnotatedLinkedDirectedGraphEdge.<init>(Lcom/google/javascript/jscomp/graph/DiGraph$DiGraphNode;Ljava/lang/Object;Lcom/google/javascript/jscomp/graph/DiGraph$DiGraphNode;)V'
p33
I1
sS'com/google/javascript/jscomp/graph/LinkedUndirectedGraph.<init>(ZZ)V:com/google/common/collect/Maps.newHashMap()Ljava/util/HashMap;:com/google/javascript/jscomp/graph/DiGraph.isConnectedInDirection(Ljava/lang/Object;Ljava/lang/Object;)Z:com/google/common/base/Predicates.alwaysTrue()Lcom/google/common/base/Predicate;:com/google/javascript/jscomp/graph/LinkedUndirectedGraph.<init>(ZZ)V:com/google/common/collect/Maps.newHashMap()Ljava/util/HashMap;:com/google/javascript/jscomp/graph/LinkedDirectedGraph.getDirectedSuccNodes(Lcom/google/javascript/jscomp/graph/DiGraph$DiGraphNode;)Ljava/util/List;:com/google/common/base/Preconditions.checkNotNull(Ljava/lang/Object;)Ljava/lang/Object;:com/google/javascript/jscomp/graph/LinkedUndirectedGraph.<init>(ZZ)V:com/google/common/collect/Maps.newHashMap()Ljava/util/HashMap;:com/google/javascript/jscomp/graph/LinkedUndirectedGraph.<init>(ZZ)V:com/google/common/collect/Maps.newHashMap()Ljava/util/HashMap;:com/google/javascript/jscomp/graph/LinkedUndirectedGraph.<init>(ZZ)V'
p34
I1
sS'com/google/javascript/jscomp/graph/LinkedUndirectedGraph.<init>(ZZ)V:com/google/common/collect/Maps.newHashMap()Ljava/util/HashMap;:com/google/javascript/jscomp/graph/DiGraph.isConnectedInDirection(Ljava/lang/Object;Ljava/lang/Object;)Z:com/google/common/base/Predicates.alwaysTrue()Lcom/google/common/base/Predicate;:com/google/javascript/jscomp/graph/LinkedUndirectedGraph.<init>(ZZ)V:com/google/common/collect/Maps.newHashMap()Ljava/util/HashMap;:com/google/javascript/jscomp/graph/LinkedDirectedGraph.getDirectedSuccNodes(Lcom/google/javascript/jscomp/graph/DiGraph$DiGraphNode;)Ljava/util/List;:com/google/common/base/Preconditions.checkNotNull(Ljava/lang/Object;)Ljava/lang/Object;:com/google/javascript/jscomp/graph/LinkedUndirectedGraph.<init>(ZZ)V:com/google/javascript/jscomp/graph/UndiGraph.<init>()V'
p35
I1
sS'com/google/javascript/jscomp/graph/LinkedUndirectedGraph.<init>(ZZ)V:com/google/common/collect/Maps.newHashMap()Ljava/util/HashMap;:com/google/javascript/jscomp/graph/LinkedDirectedGraph.createDirectedGraphNode(Ljava/lang/Object;)Lcom/google/javascript/jscomp/graph/LinkedDirectedGraph$LinkedDirectedGraphNode;:java/util/Map.put(Ljava/lang/Object;Ljava/lang/Object;)Ljava/lang/Object;'
p36
I2
sS'com/google/javascript/jscomp/graph/LinkedUndirectedGraph.<init>(ZZ)V:com/google/common/collect/Maps.newHashMap()Ljava/util/HashMap;:com/google/javascript/jscomp/graph/DiGraph.isConnectedInDirection(Ljava/lang/Object;Ljava/lang/Object;)Z:com/google/common/base/Predicates.alwaysTrue()Lcom/google/common/base/Predicate;:com/google/javascript/jscomp/graph/LinkedUndirectedGraph.<init>(ZZ)V:com/google/common/collect/Maps.newHashMap()Ljava/util/HashMap;:com/google/javascript/jscomp/graph/LinkedDirectedGraph.getDirectedSuccNodes(Lcom/google/javascript/jscomp/graph/DiGraph$DiGraphNode;)Ljava/util/List;:com/google/common/base/Preconditions.checkNotNull(Ljava/lang/Object;)Ljava/lang/Object;:com/google/javascript/jscomp/graph/LinkedUndirectedGraph.<init>(ZZ)V:com/google/common/collect/Maps.newHashMap()Ljava/util/HashMap;:com/google/javascript/jscomp/graph/LinkedUndirectedGraph.<init>(ZZ)V:com/google/common/collect/Maps.newHashMap()Ljava/util/HashMap;:com/google/javascript/jscomp/graph/LinkedUndirectedGraph.<init>(ZZ)V:com/google/common/collect/Maps.newHashMap()Ljava/util/HashMap;:com/google/javascript/jscomp/graph/LinkedUndirectedGraph.<init>(ZZ)V:com/google/common/collect/Maps.newHashMap()Ljava/util/HashMap;:java/util/List.size()I'
p37
I2
sS'com/google/javascript/jscomp/graph/LinkedUndirectedGraph.<init>(ZZ)V:com/google/common/collect/Maps.newHashMap()Ljava/util/HashMap;:com/google/javascript/jscomp/graph/DiGraph.isConnectedInDirection(Ljava/lang/Object;Ljava/lang/Object;)Z:com/google/common/base/Predicates.alwaysTrue()Lcom/google/common/base/Predicate;:com/google/javascript/jscomp/graph/LinkedUndirectedGraph.<init>(ZZ)V:com/google/common/collect/Maps.newHashMap()Ljava/util/HashMap;:com/google/javascript/jscomp/graph/LinkedDirectedGraph.getDirectedSuccNodes(Lcom/google/javascript/jscomp/graph/DiGraph$DiGraphNode;)Ljava/util/List;:com/google/common/base/Preconditions.checkNotNull(Ljava/lang/Object;)Ljava/lang/Object;:com/google/javascript/jscomp/graph/LinkedUndirectedGraph.<init>(ZZ)V:com/google/common/collect/Maps.newHashMap()Ljava/util/HashMap;:java/util/List.add(Ljava/lang/Object;)Z'
p38
I2
sS'com/google/javascript/jscomp/graph/LinkedUndirectedGraph.<init>(ZZ)V:com/google/common/collect/Maps.newHashMap()Ljava/util/HashMap;:com/google/javascript/jscomp/graph/DiGraph.isConnectedInDirection(Ljava/lang/Object;Ljava/lang/Object;)Z:com/google/common/base/Predicates.alwaysTrue()Lcom/google/common/base/Predicate;:com/google/javascript/jscomp/graph/LinkedUndirectedGraph.<init>(ZZ)V:com/google/common/collect/Maps.newHashMap()Ljava/util/HashMap;:com/google/javascript/jscomp/graph/LinkedDirectedGraph.getDirectedSuccNodes(Lcom/google/javascript/jscomp/graph/DiGraph$DiGraphNode;)Ljava/util/List;:com/google/common/base/Preconditions.checkNotNull(Ljava/lang/Object;)Ljava/lang/Object;:com/google/javascript/jscomp/graph/LinkedUndirectedGraph.<init>(ZZ)V:com/google/common/collect/Maps.newHashMap()Ljava/util/HashMap;:com/google/javascript/jscomp/graph/LinkedUndirectedGraph.<init>(ZZ)V'
p39
I1
sS'com/google/javascript/jscomp/graph/LinkedUndirectedGraph.<init>(ZZ)V:com/google/common/collect/Maps.newHashMap()Ljava/util/HashMap;:com/google/javascript/jscomp/graph/DiGraph.isConnectedInDirection(Ljava/lang/Object;Ljava/lang/Object;)Z:com/google/common/base/Predicates.alwaysTrue()Lcom/google/common/base/Predicate;:com/google/javascript/jscomp/graph/LinkedUndirectedGraph.<init>(ZZ)V:com/google/common/collect/Maps.newHashMap()Ljava/util/HashMap;:com/google/javascript/jscomp/graph/LinkedDirectedGraph.getDirectedSuccNodes(Lcom/google/javascript/jscomp/graph/DiGraph$DiGraphNode;)Ljava/util/List;:com/google/common/base/Preconditions.checkNotNull(Ljava/lang/Object;)Ljava/lang/Object;:com/google/javascript/jscomp/graph/LinkedUndirectedGraph.<init>(ZZ)V:com/google/common/collect/Maps.newHashMap()Ljava/util/HashMap;:com/google/javascript/jscomp/graph/LinkedUndirectedGraph.<init>(ZZ)V:com/google/javascript/jscomp/graph/UndiGraph.<init>()V'
p40
I1
sS'com/google/javascript/jscomp/graph/LinkedUndirectedGraph.<init>(ZZ)V:com/google/common/collect/Maps.newHashMap()Ljava/util/HashMap;:com/google/javascript/jscomp/graph/DiGraph.isConnectedInDirection(Ljava/lang/Object;Ljava/lang/Object;)Z:com/google/common/base/Predicates.alwaysTrue()Lcom/google/common/base/Predicate;:com/google/javascript/jscomp/graph/LinkedUndirectedGraph.<init>(ZZ)V:com/google/common/collect/Maps.newHashMap()Ljava/util/HashMap;:com/google/javascript/jscomp/graph/LinkedDirectedGraph.createDirectedGraphNode(Ljava/lang/Object;)Lcom/google/javascript/jscomp/graph/LinkedDirectedGraph$LinkedDirectedGraphNode;:com/google/javascript/jscomp/graph/LinkedDirectedGraph$AnnotatedLinkedDirectedGraphNode.<init>(Ljava/lang/Object;)V'
p41
I4
sS'com/google/javascript/jscomp/graph/LinkedDirectedGraph.createDirectedGraphNode(Ljava/lang/Object;)Lcom/google/javascript/jscomp/graph/LinkedDirectedGraph$LinkedDirectedGraphNode;:java/util/Map.get(Ljava/lang/Object;)Ljava/lang/Object;'
p42
I3
sS'com/google/javascript/jscomp/graph/LinkedUndirectedGraph.<init>(ZZ)V:com/google/common/collect/Maps.newHashMap()Ljava/util/HashMap;:com/google/javascript/jscomp/graph/DiGraph.isConnectedInDirection(Ljava/lang/Object;Ljava/lang/Object;)Z:com/google/common/base/Predicates.alwaysTrue()Lcom/google/common/base/Predicate;:com/google/javascript/jscomp/graph/LinkedUndirectedGraph.<init>(ZZ)V:com/google/common/collect/Maps.newHashMap()Ljava/util/HashMap;:com/google/javascript/jscomp/graph/LinkedDirectedGraph.getDirectedSuccNodes(Lcom/google/javascript/jscomp/graph/DiGraph$DiGraphNode;)Ljava/util/List;:com/google/common/base/Preconditions.checkNotNull(Ljava/lang/Object;)Ljava/lang/Object;:com/google/javascript/jscomp/graph/LinkedUndirectedGraph.<init>(ZZ)V:com/google/common/collect/Maps.newHashMap()Ljava/util/HashMap;:com/google/javascript/jscomp/graph/LinkedUndirectedGraph.<init>(ZZ)V:com/google/common/collect/Maps.newHashMap()Ljava/util/HashMap;:com/google/javascript/jscomp/graph/LinkedUndirectedGraph.<init>(ZZ)V:com/google/common/collect/Maps.newHashMap()Ljava/util/HashMap;:com/google/javascript/jscomp/graph/LinkedUndirectedGraph.<init>(ZZ)V:com/google/common/collect/Maps.newHashMap()Ljava/util/HashMap;:com/google/javascript/jscomp/graph/LinkedDirectedGraph.<init>(ZZ)V:com/google/javascript/jscomp/graph/DiGraph.<init>()V'
p43
I2
sS'com/google/javascript/jscomp/graph/LinkedUndirectedGraph.<init>(ZZ)V:com/google/common/collect/Maps.newHashMap()Ljava/util/HashMap;:com/google/javascript/jscomp/graph/DiGraph.isConnectedInDirection(Ljava/lang/Object;Ljava/lang/Object;)Z:com/google/common/base/Predicates.alwaysTrue()Lcom/google/common/base/Predicate;:com/google/javascript/jscomp/graph/LinkedUndirectedGraph.<init>(ZZ)V:com/google/common/collect/Maps.newHashMap()Ljava/util/HashMap;:com/google/javascript/jscomp/graph/LinkedDirectedGraph.getDirectedSuccNodes(Lcom/google/javascript/jscomp/graph/DiGraph$DiGraphNode;)Ljava/util/List;:com/google/common/base/Preconditions.checkNotNull(Ljava/lang/Object;)Ljava/lang/Object;:com/google/javascript/jscomp/graph/LinkedUndirectedGraph.<init>(ZZ)V:com/google/common/collect/Maps.newHashMap()Ljava/util/HashMap;:com/google/javascript/jscomp/graph/LinkedUndirectedGraph.<init>(ZZ)V:com/google/common/collect/Maps.newHashMap()Ljava/util/HashMap;:com/google/javascript/jscomp/graph/LinkedUndirectedGraph.<init>(ZZ)V:com/google/common/collect/Maps.newHashMap()Ljava/util/HashMap;:com/google/javascript/jscomp/graph/LinkedUndirectedGraph.<init>(ZZ)V:com/google/common/collect/Maps.newHashMap()Ljava/util/HashMap;:com/google/javascript/jscomp/graph/LinkedDirectedGraph.createDirectedGraphNode(Ljava/lang/Object;)Lcom/google/javascript/jscomp/graph/LinkedDirectedGraph$LinkedDirectedGraphNode;:java/util/Map.get(Ljava/lang/Object;)Ljava/lang/Object;'
p44
I6
sS'com/google/javascript/jscomp/graph/LinkedUndirectedGraph.<init>(ZZ)V:com/google/common/collect/Maps.newHashMap()Ljava/util/HashMap;:com/google/javascript/jscomp/graph/DiGraph.isConnectedInDirection(Ljava/lang/Object;Ljava/lang/Object;)Z:com/google/common/base/Predicates.alwaysTrue()Lcom/google/common/base/Predicate;:com/google/javascript/jscomp/graph/LinkedUndirectedGraph.<init>(ZZ)V:com/google/common/collect/Maps.newHashMap()Ljava/util/HashMap;:com/google/javascript/jscomp/graph/LinkedDirectedGraph.getDirectedSuccNodes(Lcom/google/javascript/jscomp/graph/DiGraph$DiGraphNode;)Ljava/util/List;:com/google/common/base/Preconditions.checkNotNull(Ljava/lang/Object;)Ljava/lang/Object;:com/google/javascript/jscomp/graph/LinkedUndirectedGraph.<init>(ZZ)V:com/google/common/collect/Maps.newHashMap()Ljava/util/HashMap;:com/google/javascript/jscomp/graph/LinkedUndirectedGraph.<init>(ZZ)V:com/google/common/collect/Maps.newHashMap()Ljava/util/HashMap;:com/google/javascript/jscomp/graph/LinkedUndirectedGraph.<init>(ZZ)V:com/google/common/collect/Maps.newHashMap()Ljava/util/HashMap;:com/google/javascript/jscomp/graph/LinkedUndirectedGraph.<init>(ZZ)V:com/google/common/collect/Maps.newHashMap()Ljava/util/HashMap;:com/google/javascript/jscomp/graph/LinkedDirectedGraph.createDirectedGraphNode(Ljava/lang/Object;)Lcom/google/javascript/jscomp/graph/LinkedDirectedGraph$LinkedDirectedGraphNode;:com/google/javascript/jscomp/graph/LinkedDirectedGraph$AnnotatedLinkedDirectedGraphNode.<init>(Ljava/lang/Object;)V:com/google/javascript/jscomp/graph/LinkedDirectedGraph$LinkedDirectedGraphNode.<init>(Ljava/lang/Object;)V:java/lang/Object.<init>()V'
p45
I6
sS'com/google/javascript/jscomp/graph/LinkedUndirectedGraph.<init>(ZZ)V:com/google/common/collect/Maps.newHashMap()Ljava/util/HashMap;:com/google/javascript/jscomp/graph/DiGraph.isConnectedInDirection(Ljava/lang/Object;Ljava/lang/Object;)Z:com/google/common/base/Predicates.alwaysTrue()Lcom/google/common/base/Predicate;:com/google/javascript/jscomp/graph/LinkedUndirectedGraph.<init>(ZZ)V:com/google/common/collect/Maps.newHashMap()Ljava/util/HashMap;:com/google/javascript/jscomp/graph/LinkedDirectedGraph.getDirectedSuccNodes(Lcom/google/javascript/jscomp/graph/DiGraph$DiGraphNode;)Ljava/util/List;:com/google/common/base/Preconditions.checkNotNull(Ljava/lang/Object;)Ljava/lang/Object;:com/google/javascript/jscomp/graph/LinkedUndirectedGraph.<init>(ZZ)V:com/google/common/collect/Maps.newHashMap()Ljava/util/HashMap;:com/google/javascript/jscomp/graph/LinkedDirectedGraph.getNodeOrFail(Ljava/lang/Object;)Lcom/google/javascript/jscomp/graph/GraphNode;:com/google/javascript/jscomp/graph/Graph.getNode(Ljava/lang/Object;)Lcom/google/javascript/jscomp/graph/GraphNode;'
p46
I2
sS'com/google/javascript/jscomp/graph/LinkedUndirectedGraph.<init>(ZZ)V:com/google/common/collect/Maps.newHashMap()Ljava/util/HashMap;:com/google/javascript/jscomp/graph/LinkedDirectedGraph.getNodeOrFail(Ljava/lang/Object;)Lcom/google/javascript/jscomp/graph/GraphNode;'
p47
I2
sS'com/google/javascript/jscomp/graph/LinkedDirectedGraph.createDirectedGraphNode(Ljava/lang/Object;)Lcom/google/javascript/jscomp/graph/LinkedDirectedGraph$LinkedDirectedGraphNode;:com/google/javascript/jscomp/graph/LinkedDirectedGraph$AnnotatedLinkedDirectedGraphNode.<init>(Ljava/lang/Object;)V:com/google/javascript/jscomp/graph/LinkedDirectedGraph$LinkedDirectedGraphNode.<init>(Ljava/lang/Object;)V:java/lang/Object.<init>()V'
p48
I3
sS'com/google/javascript/jscomp/graph/LinkedUndirectedGraph.<init>(ZZ)V:com/google/common/collect/Maps.newHashMap()Ljava/util/HashMap;:com/google/javascript/jscomp/graph/DiGraph.isConnectedInDirection(Ljava/lang/Object;Ljava/lang/Object;)Z:com/google/common/base/Predicates.alwaysTrue()Lcom/google/common/base/Predicate;:com/google/javascript/jscomp/graph/LinkedUndirectedGraph.<init>(ZZ)V:com/google/common/collect/Maps.newHashMap()Ljava/util/HashMap;:com/google/javascript/jscomp/graph/LinkedDirectedGraph.getDirectedSuccNodes(Lcom/google/javascript/jscomp/graph/DiGraph$DiGraphNode;)Ljava/util/List;:com/google/common/base/Preconditions.checkNotNull(Ljava/lang/Object;)Ljava/lang/Object;:com/google/javascript/jscomp/graph/LinkedUndirectedGraph.<init>(ZZ)V:com/google/common/collect/Maps.newHashMap()Ljava/util/HashMap;:com/google/javascript/jscomp/graph/LinkedDirectedGraph$AnnotatedLinkedDirectedGraphEdge.<init>(Lcom/google/javascript/jscomp/graph/DiGraph$DiGraphNode;Ljava/lang/Object;Lcom/google/javascript/jscomp/graph/DiGraph$DiGraphNode;)V:com/google/javascript/jscomp/graph/LinkedDirectedGraph$LinkedDirectedGraphEdge.<init>(Lcom/google/javascript/jscomp/graph/DiGraph$DiGraphNode;Ljava/lang/Object;Lcom/google/javascript/jscomp/graph/DiGraph$DiGraphNode;)V:java/lang/Object.<init>()V'
p49
I1
sS'com/google/javascript/jscomp/graph/LinkedUndirectedGraph.<init>(ZZ)V:com/google/common/collect/Maps.newHashMap()Ljava/util/HashMap;:com/google/javascript/jscomp/graph/DiGraph.isConnectedInDirection(Ljava/lang/Object;Ljava/lang/Object;)Z:com/google/common/base/Predicates.alwaysTrue()Lcom/google/common/base/Predicate;:com/google/javascript/jscomp/graph/LinkedUndirectedGraph.<init>(ZZ)V:com/google/common/collect/Maps.newHashMap()Ljava/util/HashMap;:com/google/javascript/jscomp/graph/LinkedDirectedGraph.getDirectedSuccNodes(Lcom/google/javascript/jscomp/graph/DiGraph$DiGraphNode;)Ljava/util/List;:com/google/common/base/Preconditions.checkNotNull(Ljava/lang/Object;)Ljava/lang/Object;:com/google/javascript/jscomp/graph/LinkedUndirectedGraph.<init>(ZZ)V:com/google/common/collect/Maps.newHashMap()Ljava/util/HashMap;:com/google/javascript/jscomp/graph/LinkedUndirectedGraph.<init>(ZZ)V:com/google/common/collect/Maps.newHashMap()Ljava/util/HashMap;:com/google/javascript/jscomp/graph/LinkedUndirectedGraph.<init>(ZZ)V:com/google/common/collect/Maps.newHashMap()Ljava/util/HashMap;:com/google/javascript/jscomp/graph/LinkedUndirectedGraph.<init>(ZZ)V:com/google/common/collect/Maps.newHashMap()Ljava/util/HashMap;:com/google/javascript/jscomp/graph/Graph.isConnected(Ljava/lang/Object;Ljava/lang/Object;Ljava/lang/Object;)Z'
p50
I1
sS'com/google/javascript/jscomp/graph/LinkedUndirectedGraph.<init>(ZZ)V:com/google/common/collect/Maps.newHashMap()Ljava/util/HashMap;:com/google/javascript/jscomp/graph/DiGraph.isConnectedInDirection(Ljava/lang/Object;Ljava/lang/Object;)Z:com/google/common/base/Predicates.alwaysTrue()Lcom/google/common/base/Predicate;'
p51
I1
sS'com/google/javascript/jscomp/graph/LinkedDirectedGraph.createDirectedGraphNode(Ljava/lang/Object;)Lcom/google/javascript/jscomp/graph/LinkedDirectedGraph$LinkedDirectedGraphNode;:com/google/javascript/jscomp/graph/LinkedDirectedGraph$AnnotatedLinkedDirectedGraphNode.<init>(Ljava/lang/Object;)V'
p52
I3
sS'com/google/javascript/jscomp/graph/LinkedUndirectedGraph.<init>(ZZ)V:com/google/common/collect/Maps.newHashMap()Ljava/util/HashMap;:com/google/javascript/jscomp/graph/DiGraph.isConnectedInDirection(Ljava/lang/Object;Ljava/lang/Object;)Z:com/google/common/base/Predicates.alwaysTrue()Lcom/google/common/base/Predicate;:com/google/javascript/jscomp/graph/LinkedUndirectedGraph.<init>(ZZ)V:com/google/common/collect/Maps.newHashMap()Ljava/util/HashMap;:com/google/javascript/jscomp/graph/LinkedDirectedGraph.getDirectedSuccNodes(Lcom/google/javascript/jscomp/graph/DiGraph$DiGraphNode;)Ljava/util/List;:com/google/common/base/Preconditions.checkNotNull(Ljava/lang/Object;)Ljava/lang/Object;:com/google/javascript/jscomp/graph/LinkedUndirectedGraph.<init>(ZZ)V:com/google/common/collect/Maps.newHashMap()Ljava/util/HashMap;:com/google/javascript/jscomp/graph/LinkedDirectedGraph.<init>(ZZ)V'
p53
I1
sS'com/google/javascript/jscomp/graph/LinkedUndirectedGraph.<init>(ZZ)V:com/google/common/collect/Maps.newHashMap()Ljava/util/HashMap;:com/google/javascript/jscomp/graph/DiGraph.isConnectedInDirection(Ljava/lang/Object;Ljava/lang/Object;)Z:com/google/common/base/Predicates.alwaysTrue()Lcom/google/common/base/Predicate;:com/google/javascript/jscomp/graph/LinkedUndirectedGraph.<init>(ZZ)V:com/google/common/collect/Maps.newHashMap()Ljava/util/HashMap;:com/google/javascript/jscomp/graph/LinkedDirectedGraph.getNodeOrFail(Ljava/lang/Object;)Lcom/google/javascript/jscomp/graph/GraphNode;:com/google/javascript/jscomp/graph/Graph.getNode(Ljava/lang/Object;)Lcom/google/javascript/jscomp/graph/GraphNode;:com/google/javascript/jscomp/graph/LinkedDirectedGraph.getDirectedGraphNode(Ljava/lang/Object;)Lcom/google/javascript/jscomp/graph/DiGraph$DiGraphNode;:java/util/Map.get(Ljava/lang/Object;)Ljava/lang/Object;'
p54
I10
sS'com/google/javascript/jscomp/graph/LinkedUndirectedGraph.<init>(ZZ)V:com/google/common/collect/Maps.newHashMap()Ljava/util/HashMap;:com/google/javascript/jscomp/graph/LinkedDirectedGraph.<init>(ZZ)V:com/google/javascript/jscomp/graph/DiGraph.<init>()V:com/google/javascript/jscomp/graph/Graph.<init>()V'
p55
I1
sS'com/google/javascript/jscomp/graph/LinkedUndirectedGraph.<init>(ZZ)V:com/google/common/collect/Maps.newHashMap()Ljava/util/HashMap;:com/google/javascript/jscomp/graph/DiGraph.isConnectedInDirection(Ljava/lang/Object;Ljava/lang/Object;)Z:com/google/common/base/Predicates.alwaysTrue()Lcom/google/common/base/Predicate;:com/google/javascript/jscomp/graph/LinkedUndirectedGraph.<init>(ZZ)V:com/google/common/collect/Maps.newHashMap()Ljava/util/HashMap;:com/google/javascript/jscomp/graph/LinkedDirectedGraph.getDirectedSuccNodes(Lcom/google/javascript/jscomp/graph/DiGraph$DiGraphNode;)Ljava/util/List;:com/google/common/base/Preconditions.checkNotNull(Ljava/lang/Object;)Ljava/lang/Object;:com/google/javascript/jscomp/graph/LinkedUndirectedGraph.<init>(ZZ)V:com/google/common/collect/Maps.newHashMap()Ljava/util/HashMap;:com/google/javascript/jscomp/graph/LinkedUndirectedGraph.<init>(ZZ)V:com/google/common/collect/Maps.newHashMap()Ljava/util/HashMap;:com/google/javascript/jscomp/graph/LinkedUndirectedGraph.<init>(ZZ)V:com/google/common/collect/Maps.newHashMap()Ljava/util/HashMap;:com/google/javascript/jscomp/graph/LinkedUndirectedGraph.<init>(ZZ)V:com/google/common/collect/Maps.newHashMap()Ljava/util/HashMap;:com/google/javascript/jscomp/graph/Graph.isConnected(Ljava/lang/Object;Ljava/lang/Object;Ljava/lang/Object;)Z:com/google/javascript/jscomp/graph/DiGraph.isConnectedInDirection(Ljava/lang/Object;Ljava/lang/Object;Ljava/lang/Object;)Z:com/google/common/base/Predicates.equalTo(Ljava/lang/Object;)Lcom/google/common/base/Predicate;:com/google/javascript/jscomp/graph/LinkedUndirectedGraph.<init>(ZZ)V:com/google/javascript/jscomp/graph/UndiGraph.<init>()V:com/google/javascript/jscomp/graph/Graph.<init>()V'
p56
I1
sS'com/google/javascript/jscomp/graph/LinkedDirectedGraph.createDirectedGraphNode(Ljava/lang/Object;)Lcom/google/javascript/jscomp/graph/LinkedDirectedGraph$LinkedDirectedGraphNode;:com/google/javascript/jscomp/graph/LinkedDirectedGraph$AnnotatedLinkedDirectedGraphNode.<init>(Ljava/lang/Object;)V:com/google/javascript/jscomp/graph/LinkedDirectedGraph$LinkedDirectedGraphNode.<init>(Ljava/lang/Object;)V:java/util/ArrayList.<init>()V'
p57
I6
sS'com/google/javascript/jscomp/graph/LinkedUndirectedGraph.<init>(ZZ)V:com/google/common/collect/Maps.newHashMap()Ljava/util/HashMap;:com/google/javascript/jscomp/graph/DiGraph.isConnectedInDirection(Ljava/lang/Object;Ljava/lang/Object;)Z:com/google/common/base/Predicates.alwaysTrue()Lcom/google/common/base/Predicate;:com/google/javascript/jscomp/graph/LinkedUndirectedGraph.<init>(ZZ)V:com/google/common/collect/Maps.newHashMap()Ljava/util/HashMap;:com/google/javascript/jscomp/graph/LinkedDirectedGraph.getDirectedSuccNodes(Lcom/google/javascript/jscomp/graph/DiGraph$DiGraphNode;)Ljava/util/List;:com/google/common/base/Preconditions.checkNotNull(Ljava/lang/Object;)Ljava/lang/Object;:com/google/javascript/jscomp/graph/LinkedUndirectedGraph.<init>(ZZ)V:com/google/common/collect/Maps.newHashMap()Ljava/util/HashMap;:com/google/javascript/jscomp/graph/LinkedDirectedGraph$LinkedDirectedGraphNode.getInEdges()Ljava/util/List;'
p58
I1
sS'com/google/javascript/jscomp/graph/LinkedUndirectedGraph.<init>(ZZ)V'
p59
I1
sS'com/google/javascript/jscomp/graph/LinkedUndirectedGraph.<init>(ZZ)V:com/google/common/collect/Maps.newHashMap()Ljava/util/HashMap;:com/google/javascript/jscomp/graph/DiGraph.isConnectedInDirection(Ljava/lang/Object;Ljava/lang/Object;)Z:com/google/common/base/Predicates.alwaysTrue()Lcom/google/common/base/Predicate;:com/google/javascript/jscomp/graph/LinkedUndirectedGraph.<init>(ZZ)V:com/google/common/collect/Maps.newHashMap()Ljava/util/HashMap;:com/google/javascript/jscomp/graph/LinkedDirectedGraph.getDirectedSuccNodes(Lcom/google/javascript/jscomp/graph/DiGraph$DiGraphNode;)Ljava/util/List;:com/google/common/base/Preconditions.checkNotNull(Ljava/lang/Object;)Ljava/lang/Object;:com/google/javascript/jscomp/graph/LinkedUndirectedGraph.<init>(ZZ)V:com/google/common/collect/Maps.newHashMap()Ljava/util/HashMap;:com/google/javascript/jscomp/graph/LinkedUndirectedGraph.<init>(ZZ)V:com/google/common/collect/Maps.newHashMap()Ljava/util/HashMap;:com/google/javascript/jscomp/graph/LinkedUndirectedGraph.<init>(ZZ)V:com/google/common/collect/Maps.newHashMap()Ljava/util/HashMap;:com/google/javascript/jscomp/graph/LinkedUndirectedGraph.<init>(ZZ)V:com/google/javascript/jscomp/graph/UndiGraph.<init>()V'
p60
I1
sS'com/google/javascript/jscomp/graph/LinkedUndirectedGraph.<init>(ZZ)V:com/google/common/collect/Maps.newHashMap()Ljava/util/HashMap;:com/google/javascript/jscomp/graph/DiGraph.isConnectedInDirection(Ljava/lang/Object;Ljava/lang/Object;)Z:com/google/common/base/Predicates.alwaysTrue()Lcom/google/common/base/Predicate;:com/google/javascript/jscomp/graph/LinkedUndirectedGraph.<init>(ZZ)V:com/google/common/collect/Maps.newHashMap()Ljava/util/HashMap;:com/google/javascript/jscomp/graph/LinkedDirectedGraph.getDirectedSuccNodes(Lcom/google/javascript/jscomp/graph/DiGraph$DiGraphNode;)Ljava/util/List;:com/google/common/base/Preconditions.checkNotNull(Ljava/lang/Object;)Ljava/lang/Object;:com/google/javascript/jscomp/graph/LinkedUndirectedGraph.<init>(ZZ)V:com/google/common/collect/Maps.newHashMap()Ljava/util/HashMap;:com/google/javascript/jscomp/graph/LinkedUndirectedGraph.<init>(ZZ)V:com/google/common/collect/Maps.newHashMap()Ljava/util/HashMap;:com/google/javascript/jscomp/graph/LinkedUndirectedGraph.<init>(ZZ)V:com/google/common/collect/Maps.newHashMap()Ljava/util/HashMap;:com/google/javascript/jscomp/graph/LinkedUndirectedGraph.<init>(ZZ)V:com/google/common/collect/Maps.newHashMap()Ljava/util/HashMap;:com/google/javascript/jscomp/graph/LinkedDirectedGraph.<init>(ZZ)V:java/util/HashMap.<init>()V'
p61
I2
sS'com/google/javascript/jscomp/graph/LinkedUndirectedGraph.<init>(ZZ)V:com/google/common/collect/Maps.newHashMap()Ljava/util/HashMap;:com/google/javascript/jscomp/graph/DiGraph.isConnectedInDirection(Ljava/lang/Object;Ljava/lang/Object;)Z:com/google/common/base/Predicates.alwaysTrue()Lcom/google/common/base/Predicate;:com/google/javascript/jscomp/graph/LinkedUndirectedGraph.<init>(ZZ)V:com/google/javascript/jscomp/graph/UndiGraph.<init>()V:com/google/javascript/jscomp/graph/Graph.<init>()V:java/lang/Object.<init>()V'
p62
I1
sS'com/google/javascript/jscomp/graph/LinkedUndirectedGraph.<init>(ZZ)V:com/google/common/collect/Maps.newHashMap()Ljava/util/HashMap;:com/google/javascript/jscomp/graph/DiGraph.isConnectedInDirection(Ljava/lang/Object;Ljava/lang/Object;)Z:com/google/common/base/Predicates.alwaysTrue()Lcom/google/common/base/Predicate;:com/google/javascript/jscomp/graph/LinkedUndirectedGraph.<init>(ZZ)V:com/google/common/collect/Maps.newHashMap()Ljava/util/HashMap;:com/google/javascript/jscomp/graph/LinkedDirectedGraph.getDirectedSuccNodes(Lcom/google/javascript/jscomp/graph/DiGraph$DiGraphNode;)Ljava/util/List;:com/google/common/base/Preconditions.checkNotNull(Ljava/lang/Object;)Ljava/lang/Object;:com/google/javascript/jscomp/graph/LinkedUndirectedGraph.<init>(ZZ)V:com/google/common/collect/Maps.newHashMap()Ljava/util/HashMap;:com/google/javascript/jscomp/graph/LinkedUndirectedGraph.<init>(ZZ)V:com/google/common/collect/Maps.newHashMap()Ljava/util/HashMap;:com/google/javascript/jscomp/graph/LinkedUndirectedGraph.<init>(ZZ)V:com/google/common/collect/Maps.newHashMap()Ljava/util/HashMap;:com/google/javascript/jscomp/graph/LinkedUndirectedGraph.<init>(ZZ)V:com/google/common/collect/Maps.newHashMap()Ljava/util/HashMap;:com/google/javascript/jscomp/graph/Graph.isConnected(Ljava/lang/Object;Ljava/lang/Object;Ljava/lang/Object;)Z:com/google/javascript/jscomp/graph/DiGraph.isConnectedInDirection(Ljava/lang/Object;Ljava/lang/Object;Ljava/lang/Object;)Z:com/google/common/base/Predicates.equalTo(Ljava/lang/Object;)Lcom/google/common/base/Predicate;:com/google/javascript/jscomp/graph/LinkedUndirectedGraph.<init>(ZZ)V'
p63
I1
sS'com/google/javascript/jscomp/graph/LinkedUndirectedGraph.<init>(ZZ)V:com/google/common/collect/Maps.newHashMap()Ljava/util/HashMap;:com/google/javascript/jscomp/graph/DiGraph.isConnectedInDirection(Ljava/lang/Object;Ljava/lang/Object;)Z:com/google/common/base/Predicates.alwaysTrue()Lcom/google/common/base/Predicate;:com/google/javascript/jscomp/graph/LinkedUndirectedGraph.<init>(ZZ)V:com/google/common/collect/Maps.newHashMap()Ljava/util/HashMap;:com/google/javascript/jscomp/graph/LinkedDirectedGraph.getDirectedSuccNodes(Lcom/google/javascript/jscomp/graph/DiGraph$DiGraphNode;)Ljava/util/List;:com/google/common/base/Preconditions.checkNotNull(Ljava/lang/Object;)Ljava/lang/Object;:com/google/javascript/jscomp/graph/LinkedUndirectedGraph.<init>(ZZ)V:com/google/common/collect/Maps.newHashMap()Ljava/util/HashMap;:com/google/javascript/jscomp/graph/LinkedUndirectedGraph.<init>(ZZ)V:com/google/common/collect/Maps.newHashMap()Ljava/util/HashMap;:com/google/javascript/jscomp/graph/LinkedUndirectedGraph.<init>(ZZ)V:com/google/common/collect/Maps.newHashMap()Ljava/util/HashMap;:com/google/javascript/jscomp/graph/LinkedUndirectedGraph.<init>(ZZ)V:com/google/javascript/jscomp/graph/UndiGraph.<init>()V:com/google/javascript/jscomp/graph/Graph.<init>()V:java/lang/Object.<init>()V'
p64
I1
sS'com/google/javascript/jscomp/graph/LinkedUndirectedGraph.<init>(ZZ)V:com/google/common/collect/Maps.newHashMap()Ljava/util/HashMap;:com/google/javascript/jscomp/graph/LinkedDirectedGraph.getNodeOrFail(Ljava/lang/Object;)Lcom/google/javascript/jscomp/graph/GraphNode;:com/google/javascript/jscomp/graph/Graph.getNode(Ljava/lang/Object;)Lcom/google/javascript/jscomp/graph/GraphNode;'
p65
I2
sS'com/google/javascript/jscomp/graph/LinkedUndirectedGraph.<init>(ZZ)V:com/google/common/collect/Maps.newHashMap()Ljava/util/HashMap;:com/google/javascript/jscomp/graph/DiGraph.isConnectedInDirection(Ljava/lang/Object;Ljava/lang/Object;)Z:com/google/common/base/Predicates.alwaysTrue()Lcom/google/common/base/Predicate;:com/google/javascript/jscomp/graph/LinkedUndirectedGraph.<init>(ZZ)V:com/google/common/collect/Maps.newHashMap()Ljava/util/HashMap;:com/google/javascript/jscomp/graph/LinkedDirectedGraph.getDirectedSuccNodes(Lcom/google/javascript/jscomp/graph/DiGraph$DiGraphNode;)Ljava/util/List;:com/google/common/base/Preconditions.checkNotNull(Ljava/lang/Object;)Ljava/lang/Object;:com/google/javascript/jscomp/graph/LinkedUndirectedGraph.<init>(ZZ)V:com/google/common/collect/Maps.newHashMap()Ljava/util/HashMap;:com/google/javascript/jscomp/graph/LinkedDirectedGraph.getNodeOrFail(Ljava/lang/Object;)Lcom/google/javascript/jscomp/graph/GraphNode;:com/google/javascript/jscomp/graph/Graph.getNode(Ljava/lang/Object;)Lcom/google/javascript/jscomp/graph/GraphNode;:com/google/javascript/jscomp/graph/LinkedDirectedGraph.getDirectedGraphNode(Ljava/lang/Object;)Lcom/google/javascript/jscomp/graph/DiGraph$DiGraphNode;'
p66
I2
sS'com/google/javascript/jscomp/graph/LinkedUndirectedGraph.<init>(ZZ)V:com/google/common/collect/Maps.newHashMap()Ljava/util/HashMap;:com/google/javascript/jscomp/graph/DiGraph.isConnectedInDirection(Ljava/lang/Object;Ljava/lang/Object;)Z:com/google/common/base/Predicates.alwaysTrue()Lcom/google/common/base/Predicate;:com/google/javascript/jscomp/graph/LinkedUndirectedGraph.<init>(ZZ)V:com/google/common/collect/Maps.newHashMap()Ljava/util/HashMap;:com/google/javascript/jscomp/graph/LinkedDirectedGraph.<init>(ZZ)V:com/google/javascript/jscomp/graph/DiGraph.<init>()V:com/google/javascript/jscomp/graph/Graph.<init>()V:java/lang/Object.<init>()V'
p67
I1
sS'com/google/javascript/jscomp/graph/LinkedDirectedGraph$AnnotatedLinkedDirectedGraphEdge.<init>(Lcom/google/javascript/jscomp/graph/DiGraph$DiGraphNode;Ljava/lang/Object;Lcom/google/javascript/jscomp/graph/DiGraph$DiGraphNode;)V:com/google/javascript/jscomp/graph/LinkedDirectedGraph$LinkedDirectedGraphEdge.<init>(Lcom/google/javascript/jscomp/graph/DiGraph$DiGraphNode;Ljava/lang/Object;Lcom/google/javascript/jscomp/graph/DiGraph$DiGraphNode;)V'
p68
I1
sS'com/google/javascript/jscomp/graph/LinkedUndirectedGraph.<init>(ZZ)V:com/google/common/collect/Maps.newHashMap()Ljava/util/HashMap;:com/google/javascript/jscomp/graph/LinkedDirectedGraph$LinkedDirectedGraphNode.getOutEdges()Ljava/util/List;'
p69
I1
sS'com/google/javascript/jscomp/graph/LinkedUndirectedGraph.<init>(ZZ)V:com/google/common/collect/Maps.newHashMap()Ljava/util/HashMap;:com/google/javascript/jscomp/graph/DiGraph.isConnectedInDirection(Ljava/lang/Object;Ljava/lang/Object;)Z:com/google/common/base/Predicates.alwaysTrue()Lcom/google/common/base/Predicate;:com/google/javascript/jscomp/graph/LinkedUndirectedGraph.<init>(ZZ)V:com/google/common/collect/Maps.newHashMap()Ljava/util/HashMap;:com/google/javascript/jscomp/graph/LinkedDirectedGraph.getDirectedSuccNodes(Lcom/google/javascript/jscomp/graph/DiGraph$DiGraphNode;)Ljava/util/List;:com/google/common/base/Preconditions.checkNotNull(Ljava/lang/Object;)Ljava/lang/Object;:com/google/javascript/jscomp/graph/LinkedUndirectedGraph.<init>(ZZ)V:com/google/common/collect/Maps.newHashMap()Ljava/util/HashMap;:com/google/javascript/jscomp/graph/LinkedUndirectedGraph.<init>(ZZ)V:com/google/common/collect/Maps.newHashMap()Ljava/util/HashMap;:com/google/javascript/jscomp/graph/LinkedUndirectedGraph.<init>(ZZ)V:com/google/common/collect/Maps.newHashMap()Ljava/util/HashMap;:com/google/javascript/jscomp/graph/LinkedUndirectedGraph.<init>(ZZ)V:com/google/common/collect/Maps.newHashMap()Ljava/util/HashMap;:com/google/javascript/jscomp/graph/Graph.isConnected(Ljava/lang/Object;Ljava/lang/Object;Ljava/lang/Object;)Z:com/google/javascript/jscomp/graph/DiGraph.isConnectedInDirection(Ljava/lang/Object;Ljava/lang/Object;Ljava/lang/Object;)Z:com/google/common/base/Predicates.equalTo(Ljava/lang/Object;)Lcom/google/common/base/Predicate;:com/google/javascript/jscomp/graph/LinkedUndirectedGraph.<init>(ZZ)V:com/google/common/collect/Maps.newHashMap()Ljava/util/HashMap;'
p70
I1
sS'com/google/javascript/jscomp/graph/LinkedUndirectedGraph.<init>(ZZ)V:com/google/common/collect/Maps.newHashMap()Ljava/util/HashMap;:com/google/javascript/jscomp/graph/DiGraph.isConnectedInDirection(Ljava/lang/Object;Ljava/lang/Object;)Z:com/google/common/base/Predicates.alwaysTrue()Lcom/google/common/base/Predicate;:com/google/javascript/jscomp/graph/LinkedUndirectedGraph.<init>(ZZ)V:com/google/common/collect/Maps.newHashMap()Ljava/util/HashMap;:com/google/javascript/jscomp/graph/LinkedDirectedGraph.getDirectedSuccNodes(Lcom/google/javascript/jscomp/graph/DiGraph$DiGraphNode;)Ljava/util/List;:com/google/common/base/Preconditions.checkNotNull(Ljava/lang/Object;)Ljava/lang/Object;:com/google/javascript/jscomp/graph/LinkedUndirectedGraph.<init>(ZZ)V:com/google/common/collect/Maps.newHashMap()Ljava/util/HashMap;:com/google/javascript/jscomp/graph/LinkedUndirectedGraph.<init>(ZZ)V:com/google/common/collect/Maps.newHashMap()Ljava/util/HashMap;:com/google/javascript/jscomp/graph/LinkedUndirectedGraph.<init>(ZZ)V:com/google/common/collect/Maps.newHashMap()Ljava/util/HashMap;:com/google/javascript/jscomp/graph/LinkedUndirectedGraph.<init>(ZZ)V:com/google/common/collect/Maps.newHashMap()Ljava/util/HashMap;:com/google/javascript/jscomp/graph/Graph.isConnected(Ljava/lang/Object;Ljava/lang/Object;Ljava/lang/Object;)Z:com/google/javascript/jscomp/graph/DiGraph.isConnectedInDirection(Ljava/lang/Object;Ljava/lang/Object;Ljava/lang/Object;)Z:com/google/common/base/Predicates.equalTo(Ljava/lang/Object;)Lcom/google/common/base/Predicate;:com/google/javascript/jscomp/graph/LinkedUndirectedGraph.<init>(ZZ)V:com/google/javascript/jscomp/graph/UndiGraph.<init>()V:com/google/javascript/jscomp/graph/Graph.<init>()V:java/lang/Object.<init>()V'
p71
I1
sS'com/google/javascript/jscomp/graph/LinkedUndirectedGraph.<init>(ZZ)V:com/google/common/collect/Maps.newHashMap()Ljava/util/HashMap;:com/google/javascript/jscomp/graph/DiGraph.isConnectedInDirection(Ljava/lang/Object;Ljava/lang/Object;)Z:com/google/common/base/Predicates.alwaysTrue()Lcom/google/common/base/Predicate;:com/google/javascript/jscomp/graph/LinkedUndirectedGraph.<init>(ZZ)V:com/google/common/collect/Maps.newHashMap()Ljava/util/HashMap;:com/google/javascript/jscomp/graph/LinkedDirectedGraph.getDirectedSuccNodes(Lcom/google/javascript/jscomp/graph/DiGraph$DiGraphNode;)Ljava/util/List;:com/google/common/base/Preconditions.checkNotNull(Ljava/lang/Object;)Ljava/lang/Object;:com/google/javascript/jscomp/graph/LinkedUndirectedGraph.<init>(ZZ)V'
p72
I1
sS'com/google/javascript/jscomp/graph/LinkedUndirectedGraph.<init>(ZZ)V:com/google/common/collect/Maps.newHashMap()Ljava/util/HashMap;:com/google/javascript/jscomp/graph/DiGraph.isConnectedInDirection(Ljava/lang/Object;Ljava/lang/Object;)Z:com/google/common/base/Predicates.alwaysTrue()Lcom/google/common/base/Predicate;:com/google/javascript/jscomp/graph/LinkedUndirectedGraph.<init>(ZZ)V:com/google/common/collect/Maps.newHashMap()Ljava/util/HashMap;:com/google/javascript/jscomp/graph/LinkedDirectedGraph.getDirectedSuccNodes(Lcom/google/javascript/jscomp/graph/DiGraph$DiGraphNode;)Ljava/util/List;:com/google/common/base/Preconditions.checkNotNull(Ljava/lang/Object;)Ljava/lang/Object;:com/google/javascript/jscomp/graph/LinkedUndirectedGraph.<init>(ZZ)V:com/google/common/collect/Maps.newHashMap()Ljava/util/HashMap;:com/google/javascript/jscomp/graph/LinkedUndirectedGraph.<init>(ZZ)V:com/google/common/collect/Maps.newHashMap()Ljava/util/HashMap;:com/google/javascript/jscomp/graph/LinkedUndirectedGraph.<init>(ZZ)V:com/google/common/collect/Maps.newHashMap()Ljava/util/HashMap;:com/google/javascript/jscomp/graph/LinkedUndirectedGraph.<init>(ZZ)V:com/google/common/collect/Maps.newHashMap()Ljava/util/HashMap;:com/google/javascript/jscomp/graph/Graph.isConnected(Ljava/lang/Object;Ljava/lang/Object;Ljava/lang/Object;)Z:com/google/javascript/jscomp/graph/DiGraph.isConnectedInDirection(Ljava/lang/Object;Ljava/lang/Object;Ljava/lang/Object;)Z:com/google/common/base/Predicates.equalTo(Ljava/lang/Object;)Lcom/google/common/base/Predicate;'
p73
I1
sS'com/google/javascript/jscomp/graph/LinkedUndirectedGraph.<init>(ZZ)V:com/google/common/collect/Maps.newHashMap()Ljava/util/HashMap;:com/google/javascript/jscomp/graph/DiGraph.isConnectedInDirection(Ljava/lang/Object;Ljava/lang/Object;)Z:com/google/common/base/Predicates.alwaysTrue()Lcom/google/common/base/Predicate;:com/google/javascript/jscomp/graph/LinkedUndirectedGraph.<init>(ZZ)V:com/google/common/collect/Maps.newHashMap()Ljava/util/HashMap;:com/google/javascript/jscomp/graph/LinkedDirectedGraph.getDirectedSuccNodes(Lcom/google/javascript/jscomp/graph/DiGraph$DiGraphNode;)Ljava/util/List;:com/google/common/base/Preconditions.checkNotNull(Ljava/lang/Object;)Ljava/lang/Object;:com/google/javascript/jscomp/graph/LinkedUndirectedGraph.<init>(ZZ)V:com/google/common/collect/Maps.newHashMap()Ljava/util/HashMap;:com/google/javascript/jscomp/graph/LinkedUndirectedGraph.<init>(ZZ)V:com/google/common/collect/Maps.newHashMap()Ljava/util/HashMap;:com/google/javascript/jscomp/graph/LinkedUndirectedGraph.<init>(ZZ)V:com/google/common/collect/Maps.newHashMap()Ljava/util/HashMap;:com/google/javascript/jscomp/graph/LinkedUndirectedGraph.<init>(ZZ)V:com/google/common/collect/Maps.newHashMap()Ljava/util/HashMap;:com/google/javascript/jscomp/graph/LinkedDirectedGraph.<init>(ZZ)V:com/google/javascript/jscomp/graph/DiGraph.<init>()V:com/google/javascript/jscomp/graph/Graph.<init>()V:java/lang/Object.<init>()V'
p74
I2
sS'com/google/javascript/jscomp/graph/LinkedUndirectedGraph.<init>(ZZ)V:com/google/common/collect/Maps.newHashMap()Ljava/util/HashMap;:com/google/javascript/jscomp/graph/DiGraph.isConnectedInDirection(Ljava/lang/Object;Ljava/lang/Object;)Z:com/google/common/base/Predicates.alwaysTrue()Lcom/google/common/base/Predicate;:com/google/javascript/jscomp/graph/LinkedUndirectedGraph.<init>(ZZ)V:com/google/common/collect/Maps.newHashMap()Ljava/util/HashMap;:com/google/javascript/jscomp/graph/LinkedDirectedGraph.getDirectedSuccNodes(Lcom/google/javascript/jscomp/graph/DiGraph$DiGraphNode;)Ljava/util/List;:com/google/common/base/Preconditions.checkNotNull(Ljava/lang/Object;)Ljava/lang/Object;:com/google/javascript/jscomp/graph/LinkedUndirectedGraph.<init>(ZZ)V:com/google/common/collect/Maps.newHashMap()Ljava/util/HashMap;:com/google/javascript/jscomp/graph/LinkedUndirectedGraph.<init>(ZZ)V:com/google/common/collect/Maps.newHashMap()Ljava/util/HashMap;:com/google/javascript/jscomp/graph/LinkedUndirectedGraph.<init>(ZZ)V:com/google/common/collect/Maps.newHashMap()Ljava/util/HashMap;:com/google/javascript/jscomp/graph/LinkedUndirectedGraph.<init>(ZZ)V:com/google/common/collect/Maps.newHashMap()Ljava/util/HashMap;'
p75
I1
sS'com/google/javascript/jscomp/graph/LinkedDirectedGraph.<init>(ZZ)V:com/google/javascript/jscomp/graph/DiGraph.<init>()V'
p76
I1
sS'com/google/javascript/jscomp/graph/LinkedUndirectedGraph.<init>(ZZ)V:com/google/common/collect/Maps.newHashMap()Ljava/util/HashMap;:com/google/javascript/jscomp/graph/LinkedDirectedGraph.getNodeOrFail(Ljava/lang/Object;)Lcom/google/javascript/jscomp/graph/GraphNode;:com/google/javascript/jscomp/graph/Graph.getNode(Ljava/lang/Object;)Lcom/google/javascript/jscomp/graph/GraphNode;:com/google/javascript/jscomp/graph/LinkedDirectedGraph.getDirectedGraphNode(Ljava/lang/Object;)Lcom/google/javascript/jscomp/graph/DiGraph$DiGraphNode;'
p77
I2
sS'com/google/javascript/jscomp/graph/LinkedUndirectedGraph.<init>(ZZ)V:com/google/common/collect/Maps.newHashMap()Ljava/util/HashMap;:com/google/javascript/jscomp/graph/DiGraph.isConnectedInDirection(Ljava/lang/Object;Ljava/lang/Object;)Z:com/google/common/base/Predicates.alwaysTrue()Lcom/google/common/base/Predicate;:com/google/javascript/jscomp/graph/LinkedUndirectedGraph.<init>(ZZ)V:com/google/common/collect/Maps.newHashMap()Ljava/util/HashMap;:com/google/javascript/jscomp/graph/LinkedDirectedGraph.getDirectedSuccNodes(Lcom/google/javascript/jscomp/graph/DiGraph$DiGraphNode;)Ljava/util/List;:com/google/common/base/Preconditions.checkNotNull(Ljava/lang/Object;)Ljava/lang/Object;:com/google/javascript/jscomp/graph/LinkedUndirectedGraph.<init>(ZZ)V:com/google/common/collect/Maps.newHashMap()Ljava/util/HashMap;:com/google/javascript/jscomp/graph/LinkedDirectedGraph.<init>(ZZ)V:com/google/javascript/jscomp/graph/DiGraph.<init>()V:com/google/javascript/jscomp/graph/Graph.<init>()V:java/lang/Object.<init>()V'
p78
I1
sS'com/google/javascript/jscomp/graph/LinkedUndirectedGraph.<init>(ZZ)V:com/google/common/collect/Maps.newHashMap()Ljava/util/HashMap;:com/google/javascript/jscomp/graph/LinkedDirectedGraph.createDirectedGraphNode(Ljava/lang/Object;)Lcom/google/javascript/jscomp/graph/LinkedDirectedGraph$LinkedDirectedGraphNode;:com/google/javascript/jscomp/graph/LinkedDirectedGraph$AnnotatedLinkedDirectedGraphNode.<init>(Ljava/lang/Object;)V:com/google/javascript/jscomp/graph/LinkedDirectedGraph$LinkedDirectedGraphNode.<init>(Ljava/lang/Object;)V:java/util/ArrayList.<init>()V'
p79
I4
sS'com/google/javascript/jscomp/graph/LinkedUndirectedGraph.<init>(ZZ)V:com/google/common/collect/Maps.newHashMap()Ljava/util/HashMap;:com/google/javascript/jscomp/graph/DiGraph.isConnectedInDirection(Ljava/lang/Object;Ljava/lang/Object;)Z:com/google/common/base/Predicates.alwaysTrue()Lcom/google/common/base/Predicate;:com/google/javascript/jscomp/graph/LinkedUndirectedGraph.<init>(ZZ)V:com/google/common/collect/Maps.newHashMap()Ljava/util/HashMap;:com/google/javascript/jscomp/graph/LinkedDirectedGraph.getDirectedSuccNodes(Lcom/google/javascript/jscomp/graph/DiGraph$DiGraphNode;)Ljava/util/List;:com/google/common/base/Preconditions.checkNotNull(Ljava/lang/Object;)Ljava/lang/Object;:com/google/javascript/jscomp/graph/LinkedUndirectedGraph.<init>(ZZ)V:com/google/common/collect/Maps.newHashMap()Ljava/util/HashMap;:com/google/javascript/jscomp/graph/LinkedUndirectedGraph.<init>(ZZ)V:com/google/common/collect/Maps.newHashMap()Ljava/util/HashMap;:com/google/javascript/jscomp/graph/LinkedUndirectedGraph.<init>(ZZ)V:com/google/common/collect/Maps.newHashMap()Ljava/util/HashMap;:com/google/javascript/jscomp/graph/LinkedUndirectedGraph.<init>(ZZ)V:com/google/common/collect/Maps.newHashMap()Ljava/util/HashMap;:com/google/javascript/jscomp/graph/Graph.isConnected(Ljava/lang/Object;Ljava/lang/Object;Ljava/lang/Object;)Z:com/google/javascript/jscomp/graph/DiGraph.isConnectedInDirection(Ljava/lang/Object;Ljava/lang/Object;Ljava/lang/Object;)Z'
p80
I1
sS'com/google/javascript/jscomp/graph/LinkedUndirectedGraph.<init>(ZZ)V:com/google/common/collect/Maps.newHashMap()Ljava/util/HashMap;:com/google/javascript/jscomp/graph/DiGraph.isConnectedInDirection(Ljava/lang/Object;Ljava/lang/Object;)Z:com/google/common/base/Predicates.alwaysTrue()Lcom/google/common/base/Predicate;:com/google/javascript/jscomp/graph/LinkedUndirectedGraph.<init>(ZZ)V:com/google/common/collect/Maps.newHashMap()Ljava/util/HashMap;:com/google/javascript/jscomp/graph/LinkedDirectedGraph.getDirectedSuccNodes(Lcom/google/javascript/jscomp/graph/DiGraph$DiGraphNode;)Ljava/util/List;:com/google/common/base/Preconditions.checkNotNull(Ljava/lang/Object;)Ljava/lang/Object;:com/google/javascript/jscomp/graph/LinkedUndirectedGraph.<init>(ZZ)V:com/google/common/collect/Maps.newHashMap()Ljava/util/HashMap;:com/google/javascript/jscomp/graph/LinkedUndirectedGraph.<init>(ZZ)V:com/google/common/collect/Maps.newHashMap()Ljava/util/HashMap;:com/google/javascript/jscomp/graph/LinkedUndirectedGraph.<init>(ZZ)V:com/google/common/collect/Maps.newHashMap()Ljava/util/HashMap;:com/google/javascript/jscomp/graph/LinkedUndirectedGraph.<init>(ZZ)V:com/google/common/collect/Maps.newHashMap()Ljava/util/HashMap;:com/google/javascript/jscomp/graph/LinkedDirectedGraph.createDirectedGraphNode(Ljava/lang/Object;)Lcom/google/javascript/jscomp/graph/LinkedDirectedGraph$LinkedDirectedGraphNode;:com/google/javascript/jscomp/graph/LinkedDirectedGraph$AnnotatedLinkedDirectedGraphNode.<init>(Ljava/lang/Object;)V:com/google/javascript/jscomp/graph/LinkedDirectedGraph$LinkedDirectedGraphNode.<init>(Ljava/lang/Object;)V'
p81
I6
sS'com/google/javascript/jscomp/graph/LinkedDirectedGraph.<init>(ZZ)V:java/util/HashMap.<init>()V'
p82
I1
sS'com/google/javascript/jscomp/graph/LinkedUndirectedGraph.<init>(ZZ)V:com/google/common/collect/Maps.newHashMap()Ljava/util/HashMap;:com/google/javascript/jscomp/graph/DiGraph.isConnectedInDirection(Ljava/lang/Object;Ljava/lang/Object;)Z:com/google/common/base/Predicates.alwaysTrue()Lcom/google/common/base/Predicate;:com/google/javascript/jscomp/graph/LinkedUndirectedGraph.<init>(ZZ)V:com/google/common/collect/Maps.newHashMap()Ljava/util/HashMap;:com/google/javascript/jscomp/graph/LinkedDirectedGraph.getDirectedSuccNodes(Lcom/google/javascript/jscomp/graph/DiGraph$DiGraphNode;)Ljava/util/List;:com/google/common/base/Preconditions.checkNotNull(Ljava/lang/Object;)Ljava/lang/Object;:com/google/javascript/jscomp/graph/LinkedUndirectedGraph.<init>(ZZ)V:com/google/common/collect/Maps.newHashMap()Ljava/util/HashMap;:com/google/javascript/jscomp/graph/LinkedDirectedGraph$LinkedDirectedGraphNode.getOutEdges()Ljava/util/List;'
p83
I1
sS'com/google/javascript/jscomp/graph/LinkedUndirectedGraph.<init>(ZZ)V:com/google/common/collect/Maps.newHashMap()Ljava/util/HashMap;:com/google/javascript/jscomp/graph/DiGraph.isConnectedInDirection(Ljava/lang/Object;Ljava/lang/Object;)Z:com/google/common/base/Predicates.alwaysTrue()Lcom/google/common/base/Predicate;:com/google/javascript/jscomp/graph/LinkedUndirectedGraph.<init>(ZZ)V:com/google/common/collect/Maps.newHashMap()Ljava/util/HashMap;:com/google/javascript/jscomp/graph/LinkedDirectedGraph.getDirectedSuccNodes(Lcom/google/javascript/jscomp/graph/DiGraph$DiGraphNode;)Ljava/util/List;:com/google/common/base/Preconditions.checkNotNull(Ljava/lang/Object;)Ljava/lang/Object;:com/google/javascript/jscomp/graph/LinkedUndirectedGraph.<init>(ZZ)V:com/google/common/collect/Maps.newHashMap()Ljava/util/HashMap;:com/google/javascript/jscomp/graph/LinkedDirectedGraph.createDirectedGraphNode(Ljava/lang/Object;)Lcom/google/javascript/jscomp/graph/LinkedDirectedGraph$LinkedDirectedGraphNode;:com/google/javascript/jscomp/graph/LinkedDirectedGraph$AnnotatedLinkedDirectedGraphNode.<init>(Ljava/lang/Object;)V:com/google/javascript/jscomp/graph/LinkedDirectedGraph$LinkedDirectedGraphNode.<init>(Ljava/lang/Object;)V:java/util/ArrayList.<init>()V'
p84
I6
sS'com/google/javascript/jscomp/graph/LinkedUndirectedGraph.<init>(ZZ)V:com/google/common/collect/Maps.newHashMap()Ljava/util/HashMap;'
p85
I1
sS'com/google/javascript/jscomp/graph/LinkedUndirectedGraph.<init>(ZZ)V:com/google/common/collect/Maps.newHashMap()Ljava/util/HashMap;:com/google/javascript/jscomp/graph/DiGraph.isConnectedInDirection(Ljava/lang/Object;Ljava/lang/Object;)Z:com/google/common/base/Predicates.alwaysTrue()Lcom/google/common/base/Predicate;:com/google/javascript/jscomp/graph/LinkedUndirectedGraph.<init>(ZZ)V:com/google/common/collect/Maps.newHashMap()Ljava/util/HashMap;:com/google/javascript/jscomp/graph/LinkedDirectedGraph.getDirectedSuccNodes(Lcom/google/javascript/jscomp/graph/DiGraph$DiGraphNode;)Ljava/util/List;:com/google/common/base/Preconditions.checkNotNull(Ljava/lang/Object;)Ljava/lang/Object;:com/google/javascript/jscomp/graph/LinkedUndirectedGraph.<init>(ZZ)V:com/google/common/collect/Maps.newHashMap()Ljava/util/HashMap;:com/google/javascript/jscomp/graph/LinkedDirectedGraph.createDirectedGraphNode(Ljava/lang/Object;)Lcom/google/javascript/jscomp/graph/LinkedDirectedGraph$LinkedDirectedGraphNode;:java/util/Map.get(Ljava/lang/Object;)Ljava/lang/Object;'
p86
I3
sS'com/google/javascript/jscomp/graph/LinkedUndirectedGraph.<init>(ZZ)V:com/google/common/collect/Maps.newHashMap()Ljava/util/HashMap;:com/google/javascript/jscomp/graph/LinkedDirectedGraph.createDirectedGraphNode(Ljava/lang/Object;)Lcom/google/javascript/jscomp/graph/LinkedDirectedGraph$LinkedDirectedGraphNode;'
p87
I2
sS'com/google/javascript/jscomp/graph/LinkedUndirectedGraph.<init>(ZZ)V:com/google/common/collect/Maps.newHashMap()Ljava/util/HashMap;:com/google/javascript/jscomp/graph/DiGraph.isConnectedInDirection(Ljava/lang/Object;Ljava/lang/Object;)Z:com/google/common/base/Predicates.alwaysTrue()Lcom/google/common/base/Predicate;:com/google/javascript/jscomp/graph/LinkedUndirectedGraph.<init>(ZZ)V:com/google/common/collect/Maps.newHashMap()Ljava/util/HashMap;:com/google/javascript/jscomp/graph/LinkedDirectedGraph.createDirectedGraphNode(Ljava/lang/Object;)Lcom/google/javascript/jscomp/graph/LinkedDirectedGraph$LinkedDirectedGraphNode;:java/util/Map.get(Ljava/lang/Object;)Ljava/lang/Object;'
p88
I4
sS'com/google/javascript/jscomp/graph/LinkedUndirectedGraph.<init>(ZZ)V:com/google/common/collect/Maps.newHashMap()Ljava/util/HashMap;:com/google/javascript/jscomp/graph/DiGraph.isConnectedInDirection(Ljava/lang/Object;Ljava/lang/Object;)Z:com/google/common/base/Predicates.alwaysTrue()Lcom/google/common/base/Predicate;:com/google/javascript/jscomp/graph/LinkedUndirectedGraph.<init>(ZZ)V:com/google/common/collect/Maps.newHashMap()Ljava/util/HashMap;:com/google/javascript/jscomp/graph/LinkedDirectedGraph.getDirectedSuccNodes(Lcom/google/javascript/jscomp/graph/DiGraph$DiGraphNode;)Ljava/util/List;:com/google/common/base/Preconditions.checkNotNull(Ljava/lang/Object;)Ljava/lang/Object;:com/google/javascript/jscomp/graph/LinkedUndirectedGraph.<init>(ZZ)V:com/google/common/collect/Maps.newHashMap()Ljava/util/HashMap;:com/google/javascript/jscomp/graph/LinkedUndirectedGraph.<init>(ZZ)V:com/google/common/collect/Maps.newHashMap()Ljava/util/HashMap;:com/google/javascript/jscomp/graph/LinkedUndirectedGraph.<init>(ZZ)V:com/google/common/collect/Maps.newHashMap()Ljava/util/HashMap;:com/google/javascript/jscomp/graph/LinkedUndirectedGraph.<init>(ZZ)V:com/google/common/collect/Maps.newHashMap()Ljava/util/HashMap;:com/google/javascript/jscomp/graph/LinkedDirectedGraph.getNodeOrFail(Ljava/lang/Object;)Lcom/google/javascript/jscomp/graph/GraphNode;:com/google/javascript/jscomp/graph/Graph.getNode(Ljava/lang/Object;)Lcom/google/javascript/jscomp/graph/GraphNode;:com/google/javascript/jscomp/graph/LinkedDirectedGraph.getDirectedGraphNode(Ljava/lang/Object;)Lcom/google/javascript/jscomp/graph/DiGraph$DiGraphNode;:java/util/Map.get(Ljava/lang/Object;)Ljava/lang/Object;'
p89
I1
sS'com/google/javascript/jscomp/graph/LinkedUndirectedGraph.<init>(ZZ)V:com/google/common/collect/Maps.newHashMap()Ljava/util/HashMap;:java/util/List.add(Ljava/lang/Object;)Z'
p90
I2
sS'com/google/javascript/jscomp/graph/LinkedUndirectedGraph.<init>(ZZ)V:com/google/common/collect/Maps.newHashMap()Ljava/util/HashMap;:com/google/javascript/jscomp/graph/DiGraph.isConnectedInDirection(Ljava/lang/Object;Ljava/lang/Object;)Z:com/google/common/base/Predicates.alwaysTrue()Lcom/google/common/base/Predicate;:com/google/javascript/jscomp/graph/LinkedUndirectedGraph.<init>(ZZ)V:com/google/common/collect/Maps.newHashMap()Ljava/util/HashMap;:com/google/javascript/jscomp/graph/LinkedDirectedGraph.getDirectedSuccNodes(Lcom/google/javascript/jscomp/graph/DiGraph$DiGraphNode;)Ljava/util/List;:com/google/common/base/Preconditions.checkNotNull(Ljava/lang/Object;)Ljava/lang/Object;:com/google/javascript/jscomp/graph/LinkedUndirectedGraph.<init>(ZZ)V:com/google/common/collect/Maps.newHashMap()Ljava/util/HashMap;'
p91
I1
sS'com/google/javascript/jscomp/graph/LinkedUndirectedGraph.<init>(ZZ)V:com/google/common/collect/Maps.newHashMap()Ljava/util/HashMap;:com/google/javascript/jscomp/graph/DiGraph.isConnectedInDirection(Ljava/lang/Object;Ljava/lang/Object;)Z:com/google/common/base/Predicates.alwaysTrue()Lcom/google/common/base/Predicate;:com/google/javascript/jscomp/graph/LinkedUndirectedGraph.<init>(ZZ)V:com/google/common/collect/Maps.newHashMap()Ljava/util/HashMap;:com/google/javascript/jscomp/graph/LinkedDirectedGraph.createDirectedGraphNode(Ljava/lang/Object;)Lcom/google/javascript/jscomp/graph/LinkedDirectedGraph$LinkedDirectedGraphNode;:java/util/Map.put(Ljava/lang/Object;Ljava/lang/Object;)Ljava/lang/Object;'
p92
I4
sS'com/google/javascript/jscomp/graph/LinkedUndirectedGraph.<init>(ZZ)V:com/google/common/collect/Maps.newHashMap()Ljava/util/HashMap;:com/google/javascript/jscomp/graph/DiGraph.isConnectedInDirection(Ljava/lang/Object;Ljava/lang/Object;)Z:com/google/common/base/Predicates.alwaysTrue()Lcom/google/common/base/Predicate;:com/google/javascript/jscomp/graph/LinkedUndirectedGraph.<init>(ZZ)V:com/google/common/collect/Maps.newHashMap()Ljava/util/HashMap;:com/google/javascript/jscomp/graph/LinkedDirectedGraph.getDirectedSuccNodes(Lcom/google/javascript/jscomp/graph/DiGraph$DiGraphNode;)Ljava/util/List;:com/google/common/base/Preconditions.checkNotNull(Ljava/lang/Object;)Ljava/lang/Object;:com/google/javascript/jscomp/graph/LinkedUndirectedGraph.<init>(ZZ)V:com/google/common/collect/Maps.newHashMap()Ljava/util/HashMap;:com/google/javascript/jscomp/graph/LinkedDirectedGraph.<init>(ZZ)V:com/google/javascript/jscomp/graph/DiGraph.<init>()V'
p93
I1
sS'com/google/javascript/jscomp/graph/LinkedUndirectedGraph.<init>(ZZ)V:com/google/common/collect/Maps.newHashMap()Ljava/util/HashMap;:com/google/javascript/jscomp/graph/DiGraph.isConnectedInDirection(Ljava/lang/Object;Ljava/lang/Object;)Z:com/google/common/base/Predicates.alwaysTrue()Lcom/google/common/base/Predicate;:com/google/javascript/jscomp/graph/LinkedUndirectedGraph.<init>(ZZ)V:com/google/common/collect/Maps.newHashMap()Ljava/util/HashMap;:com/google/javascript/jscomp/graph/LinkedDirectedGraph.getDirectedSuccNodes(Lcom/google/javascript/jscomp/graph/DiGraph$DiGraphNode;)Ljava/util/List;:com/google/common/base/Preconditions.checkNotNull(Ljava/lang/Object;)Ljava/lang/Object;:com/google/javascript/jscomp/graph/LinkedUndirectedGraph.<init>(ZZ)V:com/google/common/collect/Maps.newHashMap()Ljava/util/HashMap;:com/google/javascript/jscomp/graph/LinkedUndirectedGraph.<init>(ZZ)V:com/google/common/collect/Maps.newHashMap()Ljava/util/HashMap;:com/google/javascript/jscomp/graph/LinkedUndirectedGraph.<init>(ZZ)V:com/google/javascript/jscomp/graph/UndiGraph.<init>()V'
p94
I1
sS'com/google/javascript/jscomp/graph/LinkedUndirectedGraph.<init>(ZZ)V:com/google/common/collect/Maps.newHashMap()Ljava/util/HashMap;:com/google/javascript/jscomp/graph/DiGraph.isConnectedInDirection(Ljava/lang/Object;Ljava/lang/Object;)Z:com/google/common/base/Predicates.alwaysTrue()Lcom/google/common/base/Predicate;:com/google/javascript/jscomp/graph/LinkedUndirectedGraph.<init>(ZZ)V:com/google/common/collect/Maps.newHashMap()Ljava/util/HashMap;:com/google/javascript/jscomp/graph/LinkedDirectedGraph.getDirectedSuccNodes(Lcom/google/javascript/jscomp/graph/DiGraph$DiGraphNode;)Ljava/util/List;:com/google/common/base/Preconditions.checkNotNull(Ljava/lang/Object;)Ljava/lang/Object;:com/google/javascript/jscomp/graph/LinkedUndirectedGraph.<init>(ZZ)V:com/google/common/collect/Maps.newHashMap()Ljava/util/HashMap;:com/google/javascript/jscomp/graph/LinkedUndirectedGraph.<init>(ZZ)V:com/google/common/collect/Maps.newHashMap()Ljava/util/HashMap;:com/google/javascript/jscomp/graph/LinkedUndirectedGraph.<init>(ZZ)V:com/google/common/collect/Maps.newHashMap()Ljava/util/HashMap;:com/google/javascript/jscomp/graph/LinkedUndirectedGraph.<init>(ZZ)V:com/google/common/collect/Maps.newHashMap()Ljava/util/HashMap;:com/google/javascript/jscomp/graph/LinkedDirectedGraph.getNodeOrFail(Ljava/lang/Object;)Lcom/google/javascript/jscomp/graph/GraphNode;'
p95
I1
sS'com/google/javascript/jscomp/graph/LinkedUndirectedGraph.<init>(ZZ)V:com/google/common/collect/Maps.newHashMap()Ljava/util/HashMap;:com/google/javascript/jscomp/graph/DiGraph.isConnectedInDirection(Ljava/lang/Object;Ljava/lang/Object;)Z:com/google/common/base/Predicates.alwaysTrue()Lcom/google/common/base/Predicate;:com/google/javascript/jscomp/graph/LinkedUndirectedGraph.<init>(ZZ)V:com/google/javascript/jscomp/graph/UndiGraph.<init>()V'
p96
I1
sS'com/google/javascript/jscomp/graph/LinkedUndirectedGraph.<init>(ZZ)V:com/google/common/collect/Maps.newHashMap()Ljava/util/HashMap;:com/google/javascript/jscomp/graph/DiGraph.isConnectedInDirection(Ljava/lang/Object;Ljava/lang/Object;)Z:com/google/common/base/Predicates.alwaysTrue()Lcom/google/common/base/Predicate;:com/google/javascript/jscomp/graph/LinkedUndirectedGraph.<init>(ZZ)V:com/google/common/collect/Maps.newHashMap()Ljava/util/HashMap;'
p97
I1
sS'com/google/javascript/jscomp/graph/LinkedUndirectedGraph.<init>(ZZ)V:com/google/common/collect/Maps.newHashMap()Ljava/util/HashMap;:com/google/javascript/jscomp/graph/DiGraph.isConnectedInDirection(Ljava/lang/Object;Ljava/lang/Object;)Z:com/google/common/base/Predicates.alwaysTrue()Lcom/google/common/base/Predicate;:com/google/javascript/jscomp/graph/LinkedUndirectedGraph.<init>(ZZ)V'
p98
I1
sS'com/google/javascript/jscomp/graph/LinkedUndirectedGraph.<init>(ZZ)V:com/google/common/collect/Maps.newHashMap()Ljava/util/HashMap;:com/google/javascript/jscomp/graph/DiGraph.isConnectedInDirection(Ljava/lang/Object;Ljava/lang/Object;)Z:com/google/common/base/Predicates.alwaysTrue()Lcom/google/common/base/Predicate;:com/google/javascript/jscomp/graph/LinkedUndirectedGraph.<init>(ZZ)V:com/google/common/collect/Maps.newHashMap()Ljava/util/HashMap;:com/google/javascript/jscomp/graph/LinkedDirectedGraph.createDirectedGraphNode(Ljava/lang/Object;)Lcom/google/javascript/jscomp/graph/LinkedDirectedGraph$LinkedDirectedGraphNode;:com/google/javascript/jscomp/graph/LinkedDirectedGraph$AnnotatedLinkedDirectedGraphNode.<init>(Ljava/lang/Object;)V:com/google/javascript/jscomp/graph/LinkedDirectedGraph$LinkedDirectedGraphNode.<init>(Ljava/lang/Object;)V:java/lang/Object.<init>()V'
p99
I4
sS'com/google/javascript/jscomp/graph/LinkedDirectedGraph.getNodeOrFail(Ljava/lang/Object;)Lcom/google/javascript/jscomp/graph/GraphNode;:com/google/javascript/jscomp/graph/Graph.getNode(Ljava/lang/Object;)Lcom/google/javascript/jscomp/graph/GraphNode;:com/google/javascript/jscomp/graph/LinkedDirectedGraph.getDirectedGraphNode(Ljava/lang/Object;)Lcom/google/javascript/jscomp/graph/DiGraph$DiGraphNode;'
p100
I2
sS'com/google/javascript/jscomp/graph/LinkedUndirectedGraph.<init>(ZZ)V:com/google/common/collect/Maps.newHashMap()Ljava/util/HashMap;:com/google/javascript/jscomp/graph/LinkedDirectedGraph.createDirectedGraphNode(Ljava/lang/Object;)Lcom/google/javascript/jscomp/graph/LinkedDirectedGraph$LinkedDirectedGraphNode;:com/google/javascript/jscomp/graph/LinkedDirectedGraph$AnnotatedLinkedDirectedGraphNode.<init>(Ljava/lang/Object;)V'
p101
I2
sS'com/google/javascript/jscomp/graph/LinkedUndirectedGraph.<init>(ZZ)V:com/google/common/collect/Maps.newHashMap()Ljava/util/HashMap;:com/google/javascript/jscomp/graph/DiGraph.isConnectedInDirection(Ljava/lang/Object;Ljava/lang/Object;)Z:com/google/common/base/Predicates.alwaysTrue()Lcom/google/common/base/Predicate;:com/google/javascript/jscomp/graph/LinkedUndirectedGraph.<init>(ZZ)V:com/google/common/collect/Maps.newHashMap()Ljava/util/HashMap;:com/google/javascript/jscomp/graph/LinkedDirectedGraph.getDirectedSuccNodes(Lcom/google/javascript/jscomp/graph/DiGraph$DiGraphNode;)Ljava/util/List;:com/google/common/base/Preconditions.checkNotNull(Ljava/lang/Object;)Ljava/lang/Object;:com/google/javascript/jscomp/graph/LinkedUndirectedGraph.<init>(ZZ)V:com/google/common/collect/Maps.newHashMap()Ljava/util/HashMap;:com/google/javascript/jscomp/graph/LinkedUndirectedGraph.<init>(ZZ)V:com/google/common/collect/Maps.newHashMap()Ljava/util/HashMap;:com/google/javascript/jscomp/graph/LinkedUndirectedGraph.<init>(ZZ)V:com/google/common/collect/Maps.newHashMap()Ljava/util/HashMap;:com/google/javascript/jscomp/graph/LinkedUndirectedGraph.<init>(ZZ)V:com/google/common/collect/Maps.newHashMap()Ljava/util/HashMap;:com/google/javascript/jscomp/graph/Graph.isConnected(Ljava/lang/Object;Ljava/lang/Object;Ljava/lang/Object;)Z:com/google/javascript/jscomp/graph/DiGraph.isConnectedInDirection(Ljava/lang/Object;Ljava/lang/Object;Ljava/lang/Object;)Z:com/google/common/base/Predicates.equalTo(Ljava/lang/Object;)Lcom/google/common/base/Predicate;:com/google/javascript/jscomp/graph/LinkedUndirectedGraph.<init>(ZZ)V:com/google/javascript/jscomp/graph/UndiGraph.<init>()V'
p102
I1
sS'com/google/javascript/jscomp/graph/LinkedDirectedGraph$LinkedDirectedGraphNode.getInEdges()Ljava/util/List;'
p103
I1
sS'com/google/javascript/jscomp/graph/LinkedUndirectedGraph.<init>(ZZ)V:com/google/common/collect/Maps.newHashMap()Ljava/util/HashMap;:com/google/javascript/jscomp/graph/DiGraph.isConnectedInDirection(Ljava/lang/Object;Ljava/lang/Object;)Z:com/google/common/base/Predicates.alwaysTrue()Lcom/google/common/base/Predicate;:com/google/javascript/jscomp/graph/LinkedUndirectedGraph.<init>(ZZ)V:com/google/common/collect/Maps.newHashMap()Ljava/util/HashMap;:com/google/javascript/jscomp/graph/LinkedDirectedGraph.createDirectedGraphNode(Ljava/lang/Object;)Lcom/google/javascript/jscomp/graph/LinkedDirectedGraph$LinkedDirectedGraphNode;:com/google/javascript/jscomp/graph/LinkedDirectedGraph$AnnotatedLinkedDirectedGraphNode.<init>(Ljava/lang/Object;)V:com/google/javascript/jscomp/graph/LinkedDirectedGraph$LinkedDirectedGraphNode.<init>(Ljava/lang/Object;)V'
p104
I4
sS'com/google/javascript/jscomp/graph/LinkedUndirectedGraph.<init>(ZZ)V:com/google/common/collect/Maps.newHashMap()Ljava/util/HashMap;:com/google/javascript/jscomp/graph/DiGraph.isConnectedInDirection(Ljava/lang/Object;Ljava/lang/Object;)Z:com/google/common/base/Predicates.alwaysTrue()Lcom/google/common/base/Predicate;:com/google/javascript/jscomp/graph/LinkedUndirectedGraph.<init>(ZZ)V:com/google/common/collect/Maps.newHashMap()Ljava/util/HashMap;:com/google/javascript/jscomp/graph/LinkedDirectedGraph.getDirectedSuccNodes(Lcom/google/javascript/jscomp/graph/DiGraph$DiGraphNode;)Ljava/util/List;:com/google/common/base/Preconditions.checkNotNull(Ljava/lang/Object;)Ljava/lang/Object;:com/google/javascript/jscomp/graph/LinkedUndirectedGraph.<init>(ZZ)V:com/google/common/collect/Maps.newHashMap()Ljava/util/HashMap;:com/google/javascript/jscomp/graph/LinkedUndirectedGraph.<init>(ZZ)V:com/google/common/collect/Maps.newHashMap()Ljava/util/HashMap;:com/google/javascript/jscomp/graph/LinkedUndirectedGraph.<init>(ZZ)V:com/google/common/collect/Maps.newHashMap()Ljava/util/HashMap;:com/google/javascript/jscomp/graph/LinkedUndirectedGraph.<init>(ZZ)V:com/google/javascript/jscomp/graph/UndiGraph.<init>()V:com/google/javascript/jscomp/graph/Graph.<init>()V'
p105
I1
sS'com/google/javascript/jscomp/graph/LinkedUndirectedGraph.<init>(ZZ)V:com/google/common/collect/Maps.newHashMap()Ljava/util/HashMap;:com/google/javascript/jscomp/graph/DiGraph.isConnectedInDirection(Ljava/lang/Object;Ljava/lang/Object;)Z:com/google/common/base/Predicates.alwaysTrue()Lcom/google/common/base/Predicate;:com/google/javascript/jscomp/graph/LinkedUndirectedGraph.<init>(ZZ)V:com/google/common/collect/Maps.newHashMap()Ljava/util/HashMap;:com/google/javascript/jscomp/graph/LinkedDirectedGraph.getDirectedSuccNodes(Lcom/google/javascript/jscomp/graph/DiGraph$DiGraphNode;)Ljava/util/List;:com/google/common/base/Preconditions.checkNotNull(Ljava/lang/Object;)Ljava/lang/Object;:com/google/javascript/jscomp/graph/LinkedUndirectedGraph.<init>(ZZ)V:com/google/common/collect/Maps.newHashMap()Ljava/util/HashMap;:com/google/javascript/jscomp/graph/LinkedUndirectedGraph.<init>(ZZ)V:com/google/javascript/jscomp/graph/UndiGraph.<init>()V:com/google/javascript/jscomp/graph/Graph.<init>()V:java/lang/Object.<init>()V'
p106
I1
sS'com/google/javascript/jscomp/graph/LinkedUndirectedGraph.<init>(ZZ)V:com/google/common/collect/Maps.newHashMap()Ljava/util/HashMap;:com/google/javascript/jscomp/graph/DiGraph.isConnectedInDirection(Ljava/lang/Object;Ljava/lang/Object;)Z:com/google/common/base/Predicates.alwaysTrue()Lcom/google/common/base/Predicate;:com/google/javascript/jscomp/graph/LinkedUndirectedGraph.<init>(ZZ)V:com/google/common/collect/Maps.newHashMap()Ljava/util/HashMap;:com/google/javascript/jscomp/graph/LinkedDirectedGraph.getDirectedSuccNodes(Lcom/google/javascript/jscomp/graph/DiGraph$DiGraphNode;)Ljava/util/List;:com/google/common/base/Preconditions.checkNotNull(Ljava/lang/Object;)Ljava/lang/Object;'
p107
I1
sS'com/google/javascript/jscomp/graph/LinkedUndirectedGraph.<init>(ZZ)V:com/google/common/collect/Maps.newHashMap()Ljava/util/HashMap;:com/google/javascript/jscomp/graph/DiGraph.isConnectedInDirection(Ljava/lang/Object;Ljava/lang/Object;)Z:com/google/common/base/Predicates.alwaysTrue()Lcom/google/common/base/Predicate;:com/google/javascript/jscomp/graph/LinkedUndirectedGraph.<init>(ZZ)V:com/google/common/collect/Maps.newHashMap()Ljava/util/HashMap;:com/google/javascript/jscomp/graph/LinkedDirectedGraph.getDirectedSuccNodes(Lcom/google/javascript/jscomp/graph/DiGraph$DiGraphNode;)Ljava/util/List;:com/google/common/base/Preconditions.checkNotNull(Ljava/lang/Object;)Ljava/lang/Object;:com/google/javascript/jscomp/graph/LinkedUndirectedGraph.<init>(ZZ)V:com/google/common/collect/Maps.newHashMap()Ljava/util/HashMap;:com/google/javascript/jscomp/graph/LinkedUndirectedGraph.<init>(ZZ)V:com/google/common/collect/Maps.newHashMap()Ljava/util/HashMap;:com/google/javascript/jscomp/graph/LinkedUndirectedGraph.<init>(ZZ)V:com/google/common/collect/Maps.newHashMap()Ljava/util/HashMap;:com/google/javascript/jscomp/graph/LinkedUndirectedGraph.<init>(ZZ)V:com/google/common/collect/Maps.newHashMap()Ljava/util/HashMap;:com/google/javascript/jscomp/graph/LinkedDirectedGraph.createDirectedGraphNode(Ljava/lang/Object;)Lcom/google/javascript/jscomp/graph/LinkedDirectedGraph$LinkedDirectedGraphNode;:com/google/javascript/jscomp/graph/LinkedDirectedGraph$AnnotatedLinkedDirectedGraphNode.<init>(Ljava/lang/Object;)V:com/google/javascript/jscomp/graph/LinkedDirectedGraph$LinkedDirectedGraphNode.<init>(Ljava/lang/Object;)V:java/util/ArrayList.<init>()V'
p108
I12
sS'java/util/List.add(Ljava/lang/Object;)Z'
p109
I2
sS'com/google/javascript/jscomp/graph/LinkedUndirectedGraph.<init>(ZZ)V:com/google/common/collect/Maps.newHashMap()Ljava/util/HashMap;:com/google/javascript/jscomp/graph/DiGraph.isConnectedInDirection(Ljava/lang/Object;Ljava/lang/Object;)Z:com/google/common/base/Predicates.alwaysTrue()Lcom/google/common/base/Predicate;:com/google/javascript/jscomp/graph/LinkedUndirectedGraph.<init>(ZZ)V:com/google/common/collect/Maps.newHashMap()Ljava/util/HashMap;:com/google/javascript/jscomp/graph/LinkedDirectedGraph.getDirectedSuccNodes(Lcom/google/javascript/jscomp/graph/DiGraph$DiGraphNode;)Ljava/util/List;:com/google/common/base/Preconditions.checkNotNull(Ljava/lang/Object;)Ljava/lang/Object;:com/google/javascript/jscomp/graph/LinkedUndirectedGraph.<init>(ZZ)V:com/google/common/collect/Maps.newHashMap()Ljava/util/HashMap;:com/google/javascript/jscomp/graph/LinkedUndirectedGraph.<init>(ZZ)V:com/google/common/collect/Maps.newHashMap()Ljava/util/HashMap;:com/google/javascript/jscomp/graph/LinkedUndirectedGraph.<init>(ZZ)V:com/google/common/collect/Maps.newHashMap()Ljava/util/HashMap;:com/google/javascript/jscomp/graph/LinkedUndirectedGraph.<init>(ZZ)V:com/google/common/collect/Maps.newHashMap()Ljava/util/HashMap;:com/google/javascript/jscomp/graph/DiGraph$DiGraphNode.getInEdges()Ljava/util/List;'
p110
I1
sS'com/google/javascript/jscomp/graph/LinkedDirectedGraph.<init>(ZZ)V:com/google/javascript/jscomp/graph/DiGraph.<init>()V:com/google/javascript/jscomp/graph/Graph.<init>()V'
p111
I1
sS'com/google/javascript/jscomp/graph/LinkedUndirectedGraph.<init>(ZZ)V:com/google/common/collect/Maps.newHashMap()Ljava/util/HashMap;:com/google/javascript/jscomp/graph/LinkedDirectedGraph.createDirectedGraphNode(Ljava/lang/Object;)Lcom/google/javascript/jscomp/graph/LinkedDirectedGraph$LinkedDirectedGraphNode;:com/google/javascript/jscomp/graph/LinkedDirectedGraph$AnnotatedLinkedDirectedGraphNode.<init>(Ljava/lang/Object;)V:com/google/javascript/jscomp/graph/LinkedDirectedGraph$LinkedDirectedGraphNode.<init>(Ljava/lang/Object;)V:java/lang/Object.<init>()V'
p112
I2
sS'com/google/javascript/jscomp/graph/LinkedUndirectedGraph.<init>(ZZ)V:com/google/common/collect/Maps.newHashMap()Ljava/util/HashMap;:com/google/javascript/jscomp/graph/DiGraph.isConnectedInDirection(Ljava/lang/Object;Ljava/lang/Object;)Z:com/google/common/base/Predicates.alwaysTrue()Lcom/google/common/base/Predicate;:com/google/javascript/jscomp/graph/LinkedUndirectedGraph.<init>(ZZ)V:com/google/common/collect/Maps.newHashMap()Ljava/util/HashMap;:com/google/javascript/jscomp/graph/LinkedDirectedGraph.getDirectedSuccNodes(Lcom/google/javascript/jscomp/graph/DiGraph$DiGraphNode;)Ljava/util/List;:com/google/common/base/Preconditions.checkNotNull(Ljava/lang/Object;)Ljava/lang/Object;:com/google/javascript/jscomp/graph/LinkedUndirectedGraph.<init>(ZZ)V:com/google/javascript/jscomp/graph/UndiGraph.<init>()V:com/google/javascript/jscomp/graph/Graph.<init>()V:java/lang/Object.<init>()V'
p113
I1
sS'com/google/javascript/jscomp/graph/LinkedUndirectedGraph.<init>(ZZ)V:com/google/common/collect/Maps.newHashMap()Ljava/util/HashMap;:com/google/javascript/jscomp/graph/LinkedDirectedGraph$AnnotatedLinkedDirectedGraphEdge.<init>(Lcom/google/javascript/jscomp/graph/DiGraph$DiGraphNode;Ljava/lang/Object;Lcom/google/javascript/jscomp/graph/DiGraph$DiGraphNode;)V'
p114
I1
sS'com/google/javascript/jscomp/graph/LinkedUndirectedGraph.<init>(ZZ)V:com/google/common/collect/Maps.newHashMap()Ljava/util/HashMap;:com/google/javascript/jscomp/graph/DiGraph.isConnectedInDirection(Ljava/lang/Object;Ljava/lang/Object;)Z:com/google/common/base/Predicates.alwaysTrue()Lcom/google/common/base/Predicate;:com/google/javascript/jscomp/graph/LinkedUndirectedGraph.<init>(ZZ)V:com/google/common/collect/Maps.newHashMap()Ljava/util/HashMap;:com/google/javascript/jscomp/graph/LinkedDirectedGraph.createDirectedGraphNode(Ljava/lang/Object;)Lcom/google/javascript/jscomp/graph/LinkedDirectedGraph$LinkedDirectedGraphNode;'
p115
I4
sS'com/google/javascript/jscomp/graph/LinkedUndirectedGraph.<init>(ZZ)V:com/google/common/collect/Maps.newHashMap()Ljava/util/HashMap;:com/google/javascript/jscomp/graph/DiGraph.isConnectedInDirection(Ljava/lang/Object;Ljava/lang/Object;)Z:com/google/common/base/Predicates.alwaysTrue()Lcom/google/common/base/Predicate;:com/google/javascript/jscomp/graph/LinkedUndirectedGraph.<init>(ZZ)V:com/google/common/collect/Maps.newHashMap()Ljava/util/HashMap;:com/google/javascript/jscomp/graph/LinkedDirectedGraph.getDirectedSuccNodes(Lcom/google/javascript/jscomp/graph/DiGraph$DiGraphNode;)Ljava/util/List;:com/google/common/base/Preconditions.checkNotNull(Ljava/lang/Object;)Ljava/lang/Object;:com/google/javascript/jscomp/graph/LinkedUndirectedGraph.<init>(ZZ)V:com/google/common/collect/Maps.newHashMap()Ljava/util/HashMap;:com/google/javascript/jscomp/graph/LinkedUndirectedGraph.<init>(ZZ)V:com/google/common/collect/Maps.newHashMap()Ljava/util/HashMap;:com/google/javascript/jscomp/graph/LinkedUndirectedGraph.<init>(ZZ)V:com/google/common/collect/Maps.newHashMap()Ljava/util/HashMap;:com/google/javascript/jscomp/graph/LinkedUndirectedGraph.<init>(ZZ)V:com/google/common/collect/Maps.newHashMap()Ljava/util/HashMap;:com/google/javascript/jscomp/graph/LinkedDirectedGraph.createDirectedGraphNode(Ljava/lang/Object;)Lcom/google/javascript/jscomp/graph/LinkedDirectedGraph$LinkedDirectedGraphNode;'
p116
I6
sS'com/google/javascript/jscomp/graph/LinkedUndirectedGraph.<init>(ZZ)V:com/google/common/collect/Maps.newHashMap()Ljava/util/HashMap;:com/google/javascript/jscomp/graph/DiGraph.isConnectedInDirection(Ljava/lang/Object;Ljava/lang/Object;)Z:com/google/common/base/Predicates.alwaysTrue()Lcom/google/common/base/Predicate;:com/google/javascript/jscomp/graph/LinkedUndirectedGraph.<init>(ZZ)V:com/google/common/collect/Maps.newHashMap()Ljava/util/HashMap;:com/google/javascript/jscomp/graph/LinkedDirectedGraph.getDirectedSuccNodes(Lcom/google/javascript/jscomp/graph/DiGraph$DiGraphNode;)Ljava/util/List;:com/google/common/base/Preconditions.checkNotNull(Ljava/lang/Object;)Ljava/lang/Object;:com/google/javascript/jscomp/graph/LinkedUndirectedGraph.<init>(ZZ)V:com/google/common/collect/Maps.newHashMap()Ljava/util/HashMap;:com/google/javascript/jscomp/graph/LinkedDirectedGraph.createDirectedGraphNode(Ljava/lang/Object;)Lcom/google/javascript/jscomp/graph/LinkedDirectedGraph$LinkedDirectedGraphNode;:com/google/javascript/jscomp/graph/LinkedDirectedGraph$AnnotatedLinkedDirectedGraphNode.<init>(Ljava/lang/Object;)V:com/google/javascript/jscomp/graph/LinkedDirectedGraph$LinkedDirectedGraphNode.<init>(Ljava/lang/Object;)V'
p117
I3
sS'com/google/javascript/jscomp/graph/LinkedDirectedGraph.<init>(ZZ)V'
p118
I1
sS'com/google/javascript/jscomp/graph/LinkedUndirectedGraph.<init>(ZZ)V:com/google/common/collect/Maps.newHashMap()Ljava/util/HashMap;:com/google/javascript/jscomp/graph/LinkedDirectedGraph$AnnotatedLinkedDirectedGraphEdge.<init>(Lcom/google/javascript/jscomp/graph/DiGraph$DiGraphNode;Ljava/lang/Object;Lcom/google/javascript/jscomp/graph/DiGraph$DiGraphNode;)V:com/google/javascript/jscomp/graph/LinkedDirectedGraph$LinkedDirectedGraphEdge.<init>(Lcom/google/javascript/jscomp/graph/DiGraph$DiGraphNode;Ljava/lang/Object;Lcom/google/javascript/jscomp/graph/DiGraph$DiGraphNode;)V:java/lang/Object.<init>()V'
p119
I1
sS'com/google/javascript/jscomp/graph/LinkedUndirectedGraph.<init>(ZZ)V:com/google/common/collect/Maps.newHashMap()Ljava/util/HashMap;:com/google/javascript/jscomp/graph/DiGraph.isConnectedInDirection(Ljava/lang/Object;Ljava/lang/Object;)Z:com/google/common/base/Predicates.alwaysTrue()Lcom/google/common/base/Predicate;:com/google/javascript/jscomp/graph/LinkedUndirectedGraph.<init>(ZZ)V:com/google/common/collect/Maps.newHashMap()Ljava/util/HashMap;:com/google/javascript/jscomp/graph/LinkedDirectedGraph.getNodeOrFail(Ljava/lang/Object;)Lcom/google/javascript/jscomp/graph/GraphNode;'
p120
I10
sS'com/google/javascript/jscomp/graph/LinkedUndirectedGraph.<init>(ZZ)V:com/google/common/collect/Maps.newHashMap()Ljava/util/HashMap;:com/google/javascript/jscomp/graph/DiGraph.isConnectedInDirection(Ljava/lang/Object;Ljava/lang/Object;)Z:com/google/common/base/Predicates.alwaysTrue()Lcom/google/common/base/Predicate;:com/google/javascript/jscomp/graph/LinkedUndirectedGraph.<init>(ZZ)V:com/google/common/collect/Maps.newHashMap()Ljava/util/HashMap;:com/google/javascript/jscomp/graph/LinkedDirectedGraph.getDirectedSuccNodes(Lcom/google/javascript/jscomp/graph/DiGraph$DiGraphNode;)Ljava/util/List;:com/google/common/base/Preconditions.checkNotNull(Ljava/lang/Object;)Ljava/lang/Object;:com/google/javascript/jscomp/graph/LinkedUndirectedGraph.<init>(ZZ)V:com/google/common/collect/Maps.newHashMap()Ljava/util/HashMap;:com/google/javascript/jscomp/graph/LinkedUndirectedGraph.<init>(ZZ)V:com/google/common/collect/Maps.newHashMap()Ljava/util/HashMap;:com/google/javascript/jscomp/graph/LinkedUndirectedGraph.<init>(ZZ)V:com/google/common/collect/Maps.newHashMap()Ljava/util/HashMap;:com/google/javascript/jscomp/graph/LinkedUndirectedGraph.<init>(ZZ)V:com/google/common/collect/Maps.newHashMap()Ljava/util/HashMap;:com/google/javascript/jscomp/graph/LinkedDirectedGraph.createDirectedGraphNode(Ljava/lang/Object;)Lcom/google/javascript/jscomp/graph/LinkedDirectedGraph$LinkedDirectedGraphNode;:java/util/Map.put(Ljava/lang/Object;Ljava/lang/Object;)Ljava/lang/Object;'
p121
I6
sS'com/google/javascript/jscomp/graph/LinkedUndirectedGraph.<init>(ZZ)V:com/google/common/collect/Maps.newHashMap()Ljava/util/HashMap;:com/google/javascript/jscomp/graph/LinkedDirectedGraph.<init>(ZZ)V'
p122
I1
sS'com/google/javascript/jscomp/graph/LinkedUndirectedGraph.<init>(ZZ)V:com/google/common/collect/Maps.newHashMap()Ljava/util/HashMap;:com/google/javascript/jscomp/graph/DiGraph.isConnectedInDirection(Ljava/lang/Object;Ljava/lang/Object;)Z:com/google/common/base/Predicates.alwaysTrue()Lcom/google/common/base/Predicate;:com/google/javascript/jscomp/graph/LinkedUndirectedGraph.<init>(ZZ)V:com/google/common/collect/Maps.newHashMap()Ljava/util/HashMap;:com/google/javascript/jscomp/graph/LinkedDirectedGraph.getDirectedSuccNodes(Lcom/google/javascript/jscomp/graph/DiGraph$DiGraphNode;)Ljava/util/List;:com/google/common/base/Preconditions.checkNotNull(Ljava/lang/Object;)Ljava/lang/Object;:com/google/javascript/jscomp/graph/LinkedUndirectedGraph.<init>(ZZ)V:com/google/common/collect/Maps.newHashMap()Ljava/util/HashMap;:com/google/javascript/jscomp/graph/LinkedUndirectedGraph.<init>(ZZ)V:com/google/common/collect/Maps.newHashMap()Ljava/util/HashMap;'
p123
I1
sS'com/google/javascript/jscomp/graph/LinkedUndirectedGraph.<init>(ZZ)V:com/google/common/collect/Maps.newHashMap()Ljava/util/HashMap;:com/google/javascript/jscomp/graph/DiGraph.isConnectedInDirection(Ljava/lang/Object;Ljava/lang/Object;)Z:com/google/common/base/Predicates.alwaysTrue()Lcom/google/common/base/Predicate;:com/google/javascript/jscomp/graph/LinkedUndirectedGraph.<init>(ZZ)V:com/google/common/collect/Maps.newHashMap()Ljava/util/HashMap;:com/google/javascript/jscomp/graph/LinkedDirectedGraph.getDirectedSuccNodes(Lcom/google/javascript/jscomp/graph/DiGraph$DiGraphNode;)Ljava/util/List;:com/google/common/base/Preconditions.checkNotNull(Ljava/lang/Object;)Ljava/lang/Object;:com/google/javascript/jscomp/graph/LinkedUndirectedGraph.<init>(ZZ)V:com/google/common/collect/Maps.newHashMap()Ljava/util/HashMap;:com/google/javascript/jscomp/graph/LinkedUndirectedGraph.<init>(ZZ)V:com/google/common/collect/Maps.newHashMap()Ljava/util/HashMap;:com/google/javascript/jscomp/graph/LinkedUndirectedGraph.<init>(ZZ)V:com/google/common/collect/Maps.newHashMap()Ljava/util/HashMap;:com/google/javascript/jscomp/graph/LinkedUndirectedGraph.<init>(ZZ)V:com/google/common/collect/Maps.newHashMap()Ljava/util/HashMap;:com/google/javascript/jscomp/graph/LinkedDirectedGraph.createDirectedGraphNode(Ljava/lang/Object;)Lcom/google/javascript/jscomp/graph/LinkedDirectedGraph$LinkedDirectedGraphNode;:com/google/javascript/jscomp/graph/LinkedDirectedGraph$AnnotatedLinkedDirectedGraphNode.<init>(Ljava/lang/Object;)V'
p124
I6
sS'com/google/javascript/jscomp/graph/LinkedUndirectedGraph.<init>(ZZ)V:com/google/common/collect/Maps.newHashMap()Ljava/util/HashMap;:com/google/javascript/jscomp/graph/DiGraph.isConnectedInDirection(Ljava/lang/Object;Ljava/lang/Object;)Z:com/google/common/base/Predicates.alwaysTrue()Lcom/google/common/base/Predicate;:com/google/javascript/jscomp/graph/LinkedUndirectedGraph.<init>(ZZ)V:com/google/common/collect/Maps.newHashMap()Ljava/util/HashMap;:com/google/javascript/jscomp/graph/LinkedDirectedGraph.getDirectedSuccNodes(Lcom/google/javascript/jscomp/graph/DiGraph$DiGraphNode;)Ljava/util/List;:com/google/common/base/Preconditions.checkNotNull(Ljava/lang/Object;)Ljava/lang/Object;:com/google/javascript/jscomp/graph/LinkedUndirectedGraph.<init>(ZZ)V:com/google/common/collect/Maps.newHashMap()Ljava/util/HashMap;:com/google/javascript/jscomp/graph/LinkedDirectedGraph.getNodeOrFail(Ljava/lang/Object;)Lcom/google/javascript/jscomp/graph/GraphNode;:com/google/javascript/jscomp/graph/Graph.getNode(Ljava/lang/Object;)Lcom/google/javascript/jscomp/graph/GraphNode;:com/google/javascript/jscomp/graph/LinkedDirectedGraph.getDirectedGraphNode(Ljava/lang/Object;)Lcom/google/javascript/jscomp/graph/DiGraph$DiGraphNode;:java/util/Map.get(Ljava/lang/Object;)Ljava/lang/Object;'
p125
I2
sS'com/google/javascript/jscomp/graph/LinkedDirectedGraph.<init>(ZZ)V:com/google/javascript/jscomp/graph/DiGraph.<init>()V:com/google/javascript/jscomp/graph/Graph.<init>()V:java/lang/Object.<init>()V'
p126
I1
sS'com/google/javascript/jscomp/graph/LinkedUndirectedGraph.<init>(ZZ)V:com/google/common/collect/Maps.newHashMap()Ljava/util/HashMap;:com/google/javascript/jscomp/graph/DiGraph.isConnectedInDirection(Ljava/lang/Object;Ljava/lang/Object;)Z:com/google/common/base/Predicates.alwaysTrue()Lcom/google/common/base/Predicate;:com/google/javascript/jscomp/graph/LinkedUndirectedGraph.<init>(ZZ)V:com/google/common/collect/Maps.newHashMap()Ljava/util/HashMap;:com/google/javascript/jscomp/graph/LinkedDirectedGraph.<init>(ZZ)V:com/google/javascript/jscomp/graph/DiGraph.<init>()V'
p127
I1
sS'com/google/javascript/jscomp/graph/LinkedUndirectedGraph.<init>(ZZ)V:com/google/common/collect/Maps.newHashMap()Ljava/util/HashMap;:com/google/javascript/jscomp/graph/DiGraph.isConnectedInDirection(Ljava/lang/Object;Ljava/lang/Object;)Z:com/google/common/base/Predicates.alwaysTrue()Lcom/google/common/base/Predicate;:com/google/javascript/jscomp/graph/LinkedUndirectedGraph.<init>(ZZ)V:com/google/common/collect/Maps.newHashMap()Ljava/util/HashMap;:com/google/javascript/jscomp/graph/LinkedDirectedGraph.getDirectedSuccNodes(Lcom/google/javascript/jscomp/graph/DiGraph$DiGraphNode;)Ljava/util/List;:com/google/common/base/Preconditions.checkNotNull(Ljava/lang/Object;)Ljava/lang/Object;:com/google/javascript/jscomp/graph/LinkedUndirectedGraph.<init>(ZZ)V:com/google/common/collect/Maps.newHashMap()Ljava/util/HashMap;:com/google/javascript/jscomp/graph/LinkedDirectedGraph.<init>(ZZ)V:java/util/HashMap.<init>()V'
p128
I1
sS'com/google/javascript/jscomp/graph/LinkedUndirectedGraph.<init>(ZZ)V:com/google/common/collect/Maps.newHashMap()Ljava/util/HashMap;:com/google/javascript/jscomp/graph/LinkedDirectedGraph.getNodeOrFail(Ljava/lang/Object;)Lcom/google/javascript/jscomp/graph/GraphNode;:com/google/javascript/jscomp/graph/Graph.getNode(Ljava/lang/Object;)Lcom/google/javascript/jscomp/graph/GraphNode;:com/google/javascript/jscomp/graph/LinkedDirectedGraph.getDirectedGraphNode(Ljava/lang/Object;)Lcom/google/javascript/jscomp/graph/DiGraph$DiGraphNode;:java/util/Map.get(Ljava/lang/Object;)Ljava/lang/Object;'
p129
I2
sS'com/google/javascript/jscomp/graph/LinkedUndirectedGraph.<init>(ZZ)V:com/google/common/collect/Maps.newHashMap()Ljava/util/HashMap;:com/google/javascript/jscomp/graph/DiGraph.isConnectedInDirection(Ljava/lang/Object;Ljava/lang/Object;)Z:com/google/common/base/Predicates.alwaysTrue()Lcom/google/common/base/Predicate;:com/google/javascript/jscomp/graph/LinkedUndirectedGraph.<init>(ZZ)V:com/google/common/collect/Maps.newHashMap()Ljava/util/HashMap;:com/google/javascript/jscomp/graph/LinkedDirectedGraph.getDirectedSuccNodes(Lcom/google/javascript/jscomp/graph/DiGraph$DiGraphNode;)Ljava/util/List;:com/google/common/base/Preconditions.checkNotNull(Ljava/lang/Object;)Ljava/lang/Object;:com/google/javascript/jscomp/graph/LinkedUndirectedGraph.<init>(ZZ)V:com/google/common/collect/Maps.newHashMap()Ljava/util/HashMap;:com/google/javascript/jscomp/graph/LinkedDirectedGraph.getNodeOrFail(Ljava/lang/Object;)Lcom/google/javascript/jscomp/graph/GraphNode;'
p130
I2
sS'com/google/javascript/jscomp/graph/LinkedUndirectedGraph.<init>(ZZ)V:com/google/common/collect/Maps.newHashMap()Ljava/util/HashMap;:com/google/javascript/jscomp/graph/DiGraph.isConnectedInDirection(Ljava/lang/Object;Ljava/lang/Object;)Z:com/google/common/base/Predicates.alwaysTrue()Lcom/google/common/base/Predicate;:com/google/javascript/jscomp/graph/LinkedUndirectedGraph.<init>(ZZ)V:com/google/common/collect/Maps.newHashMap()Ljava/util/HashMap;:com/google/javascript/jscomp/graph/LinkedDirectedGraph.getDirectedSuccNodes(Lcom/google/javascript/jscomp/graph/DiGraph$DiGraphNode;)Ljava/util/List;:com/google/common/base/Preconditions.checkNotNull(Ljava/lang/Object;)Ljava/lang/Object;:com/google/javascript/jscomp/graph/LinkedUndirectedGraph.<init>(ZZ)V:com/google/common/collect/Maps.newHashMap()Ljava/util/HashMap;:com/google/javascript/jscomp/graph/LinkedUndirectedGraph.<init>(ZZ)V:com/google/common/collect/Maps.newHashMap()Ljava/util/HashMap;:com/google/javascript/jscomp/graph/LinkedUndirectedGraph.<init>(ZZ)V:com/google/javascript/jscomp/graph/UndiGraph.<init>()V:com/google/javascript/jscomp/graph/Graph.<init>()V:java/lang/Object.<init>()V'
p131
I1
sS'com/google/javascript/jscomp/graph/LinkedUndirectedGraph.<init>(ZZ)V:com/google/common/collect/Maps.newHashMap()Ljava/util/HashMap;:com/google/javascript/jscomp/graph/LinkedDirectedGraph.createDirectedGraphNode(Ljava/lang/Object;)Lcom/google/javascript/jscomp/graph/LinkedDirectedGraph$LinkedDirectedGraphNode;:com/google/javascript/jscomp/graph/LinkedDirectedGraph$AnnotatedLinkedDirectedGraphNode.<init>(Ljava/lang/Object;)V:com/google/javascript/jscomp/graph/LinkedDirectedGraph$LinkedDirectedGraphNode.<init>(Ljava/lang/Object;)V'
p132
I2
sS'com/google/javascript/jscomp/graph/LinkedUndirectedGraph.<init>(ZZ)V:com/google/common/collect/Maps.newHashMap()Ljava/util/HashMap;:com/google/javascript/jscomp/graph/DiGraph.isConnectedInDirection(Ljava/lang/Object;Ljava/lang/Object;)Z:com/google/common/base/Predicates.alwaysTrue()Lcom/google/common/base/Predicate;:com/google/javascript/jscomp/graph/LinkedUndirectedGraph.<init>(ZZ)V:com/google/common/collect/Maps.newHashMap()Ljava/util/HashMap;:com/google/javascript/jscomp/graph/LinkedDirectedGraph.getDirectedSuccNodes(Lcom/google/javascript/jscomp/graph/DiGraph$DiGraphNode;)Ljava/util/List;:com/google/common/base/Preconditions.checkNotNull(Ljava/lang/Object;)Ljava/lang/Object;:com/google/javascript/jscomp/graph/LinkedUndirectedGraph.<init>(ZZ)V:com/google/common/collect/Maps.newHashMap()Ljava/util/HashMap;:com/google/javascript/jscomp/graph/LinkedDirectedGraph$AnnotatedLinkedDirectedGraphEdge.<init>(Lcom/google/javascript/jscomp/graph/DiGraph$DiGraphNode;Ljava/lang/Object;Lcom/google/javascript/jscomp/graph/DiGraph$DiGraphNode;)V:com/google/javascript/jscomp/graph/LinkedDirectedGraph$LinkedDirectedGraphEdge.<init>(Lcom/google/javascript/jscomp/graph/DiGraph$DiGraphNode;Ljava/lang/Object;Lcom/google/javascript/jscomp/graph/DiGraph$DiGraphNode;)V'
p133
I1
sS'com/google/javascript/jscomp/graph/LinkedUndirectedGraph.<init>(ZZ)V:com/google/common/collect/Maps.newHashMap()Ljava/util/HashMap;:com/google/javascript/jscomp/graph/DiGraph.isConnectedInDirection(Ljava/lang/Object;Ljava/lang/Object;)Z:com/google/common/base/Predicates.alwaysTrue()Lcom/google/common/base/Predicate;:com/google/javascript/jscomp/graph/LinkedUndirectedGraph.<init>(ZZ)V:com/google/common/collect/Maps.newHashMap()Ljava/util/HashMap;:com/google/javascript/jscomp/graph/LinkedDirectedGraph.getDirectedSuccNodes(Lcom/google/javascript/jscomp/graph/DiGraph$DiGraphNode;)Ljava/util/List;:com/google/common/base/Preconditions.checkNotNull(Ljava/lang/Object;)Ljava/lang/Object;:com/google/javascript/jscomp/graph/LinkedUndirectedGraph.<init>(ZZ)V:com/google/common/collect/Maps.newHashMap()Ljava/util/HashMap;:com/google/javascript/jscomp/graph/LinkedDirectedGraph.createDirectedGraphNode(Ljava/lang/Object;)Lcom/google/javascript/jscomp/graph/LinkedDirectedGraph$LinkedDirectedGraphNode;'
p134
I3
sS'com/google/javascript/jscomp/graph/LinkedUndirectedGraph.<init>(ZZ)V:com/google/common/collect/Maps.newHashMap()Ljava/util/HashMap;:com/google/javascript/jscomp/graph/DiGraph.isConnectedInDirection(Ljava/lang/Object;Ljava/lang/Object;)Z:com/google/common/base/Predicates.alwaysTrue()Lcom/google/common/base/Predicate;:com/google/javascript/jscomp/graph/LinkedUndirectedGraph.<init>(ZZ)V:com/google/common/collect/Maps.newHashMap()Ljava/util/HashMap;:com/google/javascript/jscomp/graph/LinkedDirectedGraph.<init>(ZZ)V'
p135
I1
sS'com/google/javascript/jscomp/graph/LinkedUndirectedGraph.<init>(ZZ)V:com/google/javascript/jscomp/graph/UndiGraph.<init>()V:com/google/javascript/jscomp/graph/Graph.<init>()V:java/lang/Object.<init>()V'
p136
I1
sS'com/google/javascript/jscomp/graph/LinkedUndirectedGraph.<init>(ZZ)V:com/google/common/collect/Maps.newHashMap()Ljava/util/HashMap;:com/google/javascript/jscomp/graph/LinkedDirectedGraph.<init>(ZZ)V:com/google/javascript/jscomp/graph/DiGraph.<init>()V:com/google/javascript/jscomp/graph/Graph.<init>()V:java/lang/Object.<init>()V'
p137
I1
sS'com/google/javascript/jscomp/graph/LinkedDirectedGraph.createDirectedGraphNode(Ljava/lang/Object;)Lcom/google/javascript/jscomp/graph/LinkedDirectedGraph$LinkedDirectedGraphNode;'
p138
I3
sS'com/google/javascript/jscomp/graph/LinkedUndirectedGraph.<init>(ZZ)V:com/google/common/collect/Maps.newHashMap()Ljava/util/HashMap;:com/google/javascript/jscomp/graph/DiGraph.isConnectedInDirection(Ljava/lang/Object;Ljava/lang/Object;)Z:com/google/common/base/Predicates.alwaysTrue()Lcom/google/common/base/Predicate;:com/google/javascript/jscomp/graph/LinkedUndirectedGraph.<init>(ZZ)V:com/google/common/collect/Maps.newHashMap()Ljava/util/HashMap;:com/google/javascript/jscomp/graph/LinkedDirectedGraph$AnnotatedLinkedDirectedGraphEdge.<init>(Lcom/google/javascript/jscomp/graph/DiGraph$DiGraphNode;Ljava/lang/Object;Lcom/google/javascript/jscomp/graph/DiGraph$DiGraphNode;)V:com/google/javascript/jscomp/graph/LinkedDirectedGraph$LinkedDirectedGraphEdge.<init>(Lcom/google/javascript/jscomp/graph/DiGraph$DiGraphNode;Ljava/lang/Object;Lcom/google/javascript/jscomp/graph/DiGraph$DiGraphNode;)V'
p139
I5
sS'com/google/javascript/jscomp/graph/LinkedUndirectedGraph.<init>(ZZ)V:com/google/common/collect/Maps.newHashMap()Ljava/util/HashMap;:com/google/javascript/jscomp/graph/LinkedDirectedGraph.<init>(ZZ)V:com/google/javascript/jscomp/graph/DiGraph.<init>()V'
p140
I1
sS'com/google/javascript/jscomp/graph/LinkedUndirectedGraph.<init>(ZZ)V:com/google/common/collect/Maps.newHashMap()Ljava/util/HashMap;:com/google/javascript/jscomp/graph/DiGraph.isConnectedInDirection(Ljava/lang/Object;Ljava/lang/Object;)Z:com/google/common/base/Predicates.alwaysTrue()Lcom/google/common/base/Predicate;:com/google/javascript/jscomp/graph/LinkedUndirectedGraph.<init>(ZZ)V:com/google/common/collect/Maps.newHashMap()Ljava/util/HashMap;:com/google/javascript/jscomp/graph/LinkedDirectedGraph$LinkedDirectedGraphNode.getOutEdges()Ljava/util/List;'
p141
I5
sS'com/google/javascript/jscomp/graph/LinkedUndirectedGraph.<init>(ZZ)V:com/google/common/collect/Maps.newHashMap()Ljava/util/HashMap;:com/google/javascript/jscomp/graph/DiGraph.isConnectedInDirection(Ljava/lang/Object;Ljava/lang/Object;)Z:com/google/common/base/Predicates.alwaysTrue()Lcom/google/common/base/Predicate;:com/google/javascript/jscomp/graph/LinkedUndirectedGraph.<init>(ZZ)V:com/google/common/collect/Maps.newHashMap()Ljava/util/HashMap;:com/google/javascript/jscomp/graph/LinkedDirectedGraph.getDirectedSuccNodes(Lcom/google/javascript/jscomp/graph/DiGraph$DiGraphNode;)Ljava/util/List;:com/google/common/base/Preconditions.checkNotNull(Ljava/lang/Object;)Ljava/lang/Object;:com/google/javascript/jscomp/graph/LinkedUndirectedGraph.<init>(ZZ)V:com/google/common/collect/Maps.newHashMap()Ljava/util/HashMap;:com/google/javascript/jscomp/graph/LinkedUndirectedGraph.<init>(ZZ)V:com/google/common/collect/Maps.newHashMap()Ljava/util/HashMap;:com/google/javascript/jscomp/graph/LinkedUndirectedGraph.<init>(ZZ)V:com/google/common/collect/Maps.newHashMap()Ljava/util/HashMap;:com/google/javascript/jscomp/graph/LinkedUndirectedGraph.<init>(ZZ)V:com/google/common/collect/Maps.newHashMap()Ljava/util/HashMap;:com/google/javascript/jscomp/graph/LinkedDirectedGraph.<init>(ZZ)V:com/google/javascript/jscomp/graph/DiGraph.<init>()V:com/google/javascript/jscomp/graph/Graph.<init>()V'
p142
I2
sS'com/google/javascript/jscomp/graph/LinkedUndirectedGraph.<init>(ZZ)V:com/google/common/collect/Maps.newHashMap()Ljava/util/HashMap;:com/google/javascript/jscomp/graph/LinkedDirectedGraph.<init>(ZZ)V:java/util/HashMap.<init>()V'
p143
I1
sS'com/google/javascript/jscomp/graph/LinkedUndirectedGraph.<init>(ZZ)V:com/google/common/collect/Maps.newHashMap()Ljava/util/HashMap;:com/google/javascript/jscomp/graph/DiGraph.isConnectedInDirection(Ljava/lang/Object;Ljava/lang/Object;)Z:com/google/common/base/Predicates.alwaysTrue()Lcom/google/common/base/Predicate;:com/google/javascript/jscomp/graph/LinkedUndirectedGraph.<init>(ZZ)V:com/google/common/collect/Maps.newHashMap()Ljava/util/HashMap;:com/google/javascript/jscomp/graph/LinkedDirectedGraph.getDirectedSuccNodes(Lcom/google/javascript/jscomp/graph/DiGraph$DiGraphNode;)Ljava/util/List;:com/google/common/base/Preconditions.checkNotNull(Ljava/lang/Object;)Ljava/lang/Object;:com/google/javascript/jscomp/graph/LinkedUndirectedGraph.<init>(ZZ)V:com/google/common/collect/Maps.newHashMap()Ljava/util/HashMap;:com/google/javascript/jscomp/graph/LinkedDirectedGraph.createDirectedGraphNode(Ljava/lang/Object;)Lcom/google/javascript/jscomp/graph/LinkedDirectedGraph$LinkedDirectedGraphNode;:com/google/javascript/jscomp/graph/LinkedDirectedGraph$AnnotatedLinkedDirectedGraphNode.<init>(Ljava/lang/Object;)V'
p144
I3
sS'com/google/javascript/jscomp/graph/LinkedDirectedGraph$AnnotatedLinkedDirectedGraphEdge.<init>(Lcom/google/javascript/jscomp/graph/DiGraph$DiGraphNode;Ljava/lang/Object;Lcom/google/javascript/jscomp/graph/DiGraph$DiGraphNode;)V'
p145
I1
sS'com/google/javascript/jscomp/graph/LinkedUndirectedGraph.<init>(ZZ)V:com/google/javascript/jscomp/graph/UndiGraph.<init>()V'
p146
I1
sS'com/google/javascript/jscomp/graph/LinkedUndirectedGraph.<init>(ZZ)V:com/google/common/collect/Maps.newHashMap()Ljava/util/HashMap;:com/google/javascript/jscomp/graph/DiGraph.isConnectedInDirection(Ljava/lang/Object;Ljava/lang/Object;)Z:com/google/common/base/Predicates.alwaysTrue()Lcom/google/common/base/Predicate;:com/google/javascript/jscomp/graph/LinkedUndirectedGraph.<init>(ZZ)V:com/google/common/collect/Maps.newHashMap()Ljava/util/HashMap;:com/google/javascript/jscomp/graph/LinkedDirectedGraph.getDirectedSuccNodes(Lcom/google/javascript/jscomp/graph/DiGraph$DiGraphNode;)Ljava/util/List;:com/google/common/base/Preconditions.checkNotNull(Ljava/lang/Object;)Ljava/lang/Object;:com/google/javascript/jscomp/graph/LinkedUndirectedGraph.<init>(ZZ)V:com/google/common/collect/Maps.newHashMap()Ljava/util/HashMap;:com/google/javascript/jscomp/graph/LinkedUndirectedGraph.<init>(ZZ)V:com/google/common/collect/Maps.newHashMap()Ljava/util/HashMap;:com/google/javascript/jscomp/graph/LinkedUndirectedGraph.<init>(ZZ)V:com/google/common/collect/Maps.newHashMap()Ljava/util/HashMap;:com/google/javascript/jscomp/graph/LinkedUndirectedGraph.<init>(ZZ)V:com/google/common/collect/Maps.newHashMap()Ljava/util/HashMap;:com/google/javascript/jscomp/graph/LinkedDirectedGraph.getNodeOrFail(Ljava/lang/Object;)Lcom/google/javascript/jscomp/graph/GraphNode;:com/google/javascript/jscomp/graph/Graph.getNode(Ljava/lang/Object;)Lcom/google/javascript/jscomp/graph/GraphNode;'
p147
I1
sS'com/google/javascript/jscomp/graph/LinkedUndirectedGraph.<init>(ZZ)V:com/google/common/collect/Maps.newHashMap()Ljava/util/HashMap;:com/google/javascript/jscomp/graph/DiGraph.isConnectedInDirection(Ljava/lang/Object;Ljava/lang/Object;)Z:com/google/common/base/Predicates.alwaysTrue()Lcom/google/common/base/Predicate;:com/google/javascript/jscomp/graph/LinkedUndirectedGraph.<init>(ZZ)V:com/google/common/collect/Maps.newHashMap()Ljava/util/HashMap;:com/google/javascript/jscomp/graph/LinkedDirectedGraph.getDirectedSuccNodes(Lcom/google/javascript/jscomp/graph/DiGraph$DiGraphNode;)Ljava/util/List;:com/google/common/base/Preconditions.checkNotNull(Ljava/lang/Object;)Ljava/lang/Object;:com/google/javascript/jscomp/graph/LinkedUndirectedGraph.<init>(ZZ)V:com/google/common/collect/Maps.newHashMap()Ljava/util/HashMap;:com/google/javascript/jscomp/graph/LinkedUndirectedGraph.<init>(ZZ)V:com/google/common/collect/Maps.newHashMap()Ljava/util/HashMap;:com/google/javascript/jscomp/graph/LinkedUndirectedGraph.<init>(ZZ)V:com/google/common/collect/Maps.newHashMap()Ljava/util/HashMap;:com/google/javascript/jscomp/graph/LinkedUndirectedGraph.<init>(ZZ)V:com/google/common/collect/Maps.newHashMap()Ljava/util/HashMap;:com/google/javascript/jscomp/graph/DiGraph$DiGraphNode.getOutEdges()Ljava/util/List;'
p148
I1
sS'com/google/javascript/jscomp/graph/LinkedUndirectedGraph.<init>(ZZ)V:com/google/common/collect/Maps.newHashMap()Ljava/util/HashMap;:com/google/javascript/jscomp/graph/DiGraph.isConnectedInDirection(Ljava/lang/Object;Ljava/lang/Object;)Z:com/google/common/base/Predicates.alwaysTrue()Lcom/google/common/base/Predicate;:com/google/javascript/jscomp/graph/LinkedUndirectedGraph.<init>(ZZ)V:com/google/common/collect/Maps.newHashMap()Ljava/util/HashMap;:com/google/javascript/jscomp/graph/LinkedDirectedGraph.getNodeOrFail(Ljava/lang/Object;)Lcom/google/javascript/jscomp/graph/GraphNode;:com/google/javascript/jscomp/graph/Graph.getNode(Ljava/lang/Object;)Lcom/google/javascript/jscomp/graph/GraphNode;'
p149
I10
sS'com/google/javascript/jscomp/graph/LinkedUndirectedGraph.<init>(ZZ)V:com/google/common/collect/Maps.newHashMap()Ljava/util/HashMap;:com/google/javascript/jscomp/graph/DiGraph.isConnectedInDirection(Ljava/lang/Object;Ljava/lang/Object;)Z:com/google/common/base/Predicates.alwaysTrue()Lcom/google/common/base/Predicate;:com/google/javascript/jscomp/graph/LinkedUndirectedGraph.<init>(ZZ)V:com/google/common/collect/Maps.newHashMap()Ljava/util/HashMap;:com/google/javascript/jscomp/graph/LinkedDirectedGraph.getDirectedSuccNodes(Lcom/google/javascript/jscomp/graph/DiGraph$DiGraphNode;)Ljava/util/List;'
p150
I1
sS'com/google/javascript/jscomp/graph/LinkedUndirectedGraph.<init>(ZZ)V:com/google/common/collect/Maps.newHashMap()Ljava/util/HashMap;:com/google/javascript/jscomp/graph/DiGraph.isConnectedInDirection(Ljava/lang/Object;Ljava/lang/Object;)Z:com/google/common/base/Predicates.alwaysTrue()Lcom/google/common/base/Predicate;:com/google/javascript/jscomp/graph/LinkedUndirectedGraph.<init>(ZZ)V:com/google/common/collect/Maps.newHashMap()Ljava/util/HashMap;:com/google/javascript/jscomp/graph/LinkedDirectedGraph.getDirectedSuccNodes(Lcom/google/javascript/jscomp/graph/DiGraph$DiGraphNode;)Ljava/util/List;:com/google/common/base/Preconditions.checkNotNull(Ljava/lang/Object;)Ljava/lang/Object;:com/google/javascript/jscomp/graph/LinkedUndirectedGraph.<init>(ZZ)V:com/google/common/collect/Maps.newHashMap()Ljava/util/HashMap;:com/google/javascript/jscomp/graph/LinkedDirectedGraph.createDirectedGraphNode(Ljava/lang/Object;)Lcom/google/javascript/jscomp/graph/LinkedDirectedGraph$LinkedDirectedGraphNode;:com/google/javascript/jscomp/graph/LinkedDirectedGraph$AnnotatedLinkedDirectedGraphNode.<init>(Ljava/lang/Object;)V:com/google/javascript/jscomp/graph/LinkedDirectedGraph$LinkedDirectedGraphNode.<init>(Ljava/lang/Object;)V:java/lang/Object.<init>()V'
p151
I3
sS'com/google/javascript/jscomp/graph/LinkedUndirectedGraph.<init>(ZZ)V:com/google/common/collect/Maps.newHashMap()Ljava/util/HashMap;:com/google/javascript/jscomp/graph/DiGraph.isConnectedInDirection(Ljava/lang/Object;Ljava/lang/Object;)Z'
p152
I1
sS'com/google/javascript/jscomp/graph/LinkedUndirectedGraph.<init>(ZZ)V:com/google/common/collect/Maps.newHashMap()Ljava/util/HashMap;:com/google/javascript/jscomp/graph/DiGraph.isConnectedInDirection(Ljava/lang/Object;Ljava/lang/Object;)Z:com/google/common/base/Predicates.alwaysTrue()Lcom/google/common/base/Predicate;:com/google/javascript/jscomp/graph/LinkedUndirectedGraph.<init>(ZZ)V:com/google/common/collect/Maps.newHashMap()Ljava/util/HashMap;:com/google/javascript/jscomp/graph/LinkedDirectedGraph.getDirectedSuccNodes(Lcom/google/javascript/jscomp/graph/DiGraph$DiGraphNode;)Ljava/util/List;:com/google/common/base/Preconditions.checkNotNull(Ljava/lang/Object;)Ljava/lang/Object;:com/google/javascript/jscomp/graph/LinkedUndirectedGraph.<init>(ZZ)V:com/google/common/collect/Maps.newHashMap()Ljava/util/HashMap;:com/google/javascript/jscomp/graph/LinkedDirectedGraph.<init>(ZZ)V:com/google/javascript/jscomp/graph/DiGraph.<init>()V:com/google/javascript/jscomp/graph/Graph.<init>()V'
p153
I1
s.