(dp0
S'com/google/javascript/rhino/JSDocInfo.getTemplateTypeNames()Lcom/google/common/collect/ImmutableList;:com/google/javascript/rhino/JSDocInfo.getTemplateTypeNames()Lcom/google/common/collect/ImmutableList;:com/google/javascript/rhino/JSDocInfoBuilder.<init>(Lcom/google/javascript/rhino/JSDocInfo;ZZ)V:java/lang/Object.<init>()V'
p1
I1
sS'java/util/Iterator.hasNext()Z'
p2
I1
sS'java/lang/StringBuilder.append(Ljava/lang/String;)Ljava/lang/StringBuilder;'
p3
I1
sS'java/lang/StringBuilder.<init>(Ljava/lang/String;)V'
p4
I1
sS'com/google/javascript/rhino/JSDocInfoBuilder.populateDefaults(Lcom/google/javascript/rhino/JSDocInfo;)V:com/google/javascript/rhino/JSDocInfo.setVisibility(Lcom/google/javascript/rhino/JSDocInfo$Visibility;)V'
p5
I1
sS'com/google/javascript/rhino/JSDocInfo.getTemplateTypeNames()Lcom/google/common/collect/ImmutableList;:com/google/javascript/rhino/JSDocInfo.getTemplateTypeNames()Lcom/google/common/collect/ImmutableList;:com/google/common/collect/ImmutableSet.of(Ljava/lang/Object;Ljava/lang/Object;)Lcom/google/common/collect/ImmutableSet;:com/google/javascript/rhino/JSDocInfoBuilder.<init>(Lcom/google/javascript/rhino/JSDocInfo;ZZ)V'
p6
I1
sS'com/google/javascript/rhino/JSDocInfo.getTemplateTypeNames()Lcom/google/common/collect/ImmutableList;:com/google/javascript/rhino/JSDocInfoBuilder.populateDefaults(Lcom/google/javascript/rhino/JSDocInfo;)V:com/google/javascript/rhino/JSDocInfo.getVisibility()Lcom/google/javascript/rhino/JSDocInfo$Visibility;'
p7
I1
sS'com/google/javascript/rhino/JSDocInfoBuilder.populateDefaults(Lcom/google/javascript/rhino/JSDocInfo;)V:com/google/javascript/rhino/JSDocInfo$Visibility.<init>(Ljava/lang/String;I)V:java/lang/Enum.<init>(Ljava/lang/String;I)V'
p8
I5
sS'java/util/Set.iterator()Ljava/util/Iterator;'
p9
I1
sS'com/google/javascript/rhino/JSDocInfoBuilder.populateDefaults(Lcom/google/javascript/rhino/JSDocInfo;)V:com/google/javascript/rhino/JSDocInfo.getVisibility()Lcom/google/javascript/rhino/JSDocInfo$Visibility;'
p10
I1
sS'com/google/javascript/rhino/JSDocInfo.getTemplateTypeNames()Lcom/google/common/collect/ImmutableList;:com/google/javascript/rhino/JSDocInfo.isOverride()Z'
p11
I1
sS'com/google/javascript/rhino/JSDocInfo.getTemplateTypeNames()Lcom/google/common/collect/ImmutableList;:com/google/javascript/rhino/JSDocInfo.isConstructor()Z'
p12
I1
sS'com/google/javascript/rhino/JSDocInfo.getTemplateTypeNames()Lcom/google/common/collect/ImmutableList;:com/google/javascript/rhino/JSDocInfo.makesStructs()Z'
p13
I1
sS'com/google/javascript/rhino/JSDocInfo.setConstant(Z)V'
p14
I1
sS'com/google/javascript/rhino/JSDocInfo.isConstructor()Z'
p15
I1
sS'com/google/javascript/rhino/JSDocInfo.getTemplateTypeNames()Lcom/google/common/collect/ImmutableList;:com/google/javascript/rhino/JSDocInfo.makesUnrestricted()Z'
p16
I1
sS'com/google/javascript/rhino/JSDocInfo.makesUnrestricted()Z'
p17
I1
sS'com/google/javascript/rhino/JSDocInfo.getTemplateTypeNames()Lcom/google/common/collect/ImmutableList;:com/google/javascript/rhino/JSDocInfoBuilder.<init>(Lcom/google/javascript/rhino/JSDocInfo;ZZ)V'
p18
I1
sS'com/google/javascript/rhino/JSDocInfo.<init>(Z)V'
p19
I2
sS'com/google/javascript/rhino/JSDocInfo.isDeprecated()Z'
p20
I1
sS'com/google/javascript/rhino/JSDocInfo.getTemplateTypeNames()Lcom/google/common/collect/ImmutableList;:com/google/javascript/rhino/JSDocInfo.isDefine()Z'
p21
I1
sS'com/google/javascript/rhino/JSDocInfo.makesStructs()Z'
p22
I1
sS'com/google/javascript/rhino/JSDocInfo.getTemplateTypeNames()Lcom/google/common/collect/ImmutableList;:com/google/javascript/rhino/JSDocInfo.declareTemplateTypeName(Ljava/lang/String;)Z:com/google/javascript/rhino/JSDocInfo$LazilyInitializedInfo.<init>()V:java/lang/Object.<init>()V'
p23
I1
sS'com/google/javascript/rhino/JSDocInfo.getTemplateTypeNames()Lcom/google/common/collect/ImmutableList;:com/google/javascript/rhino/JSDocInfo.getTemplateTypeNames()Lcom/google/common/collect/ImmutableList;'
p24
I1
sS'com/google/javascript/rhino/JSDocInfo.isConstant()Z'
p25
I2
sS'com/google/javascript/rhino/JSDocInfo.getTemplateTypeNames()Lcom/google/common/collect/ImmutableList;:com/google/javascript/rhino/JSDocInfo.setAssociatedNode(Lcom/google/javascript/rhino/Node;)V'
p26
I1
sS'com/google/javascript/rhino/JSDocInfo.getTemplateTypeNames()Lcom/google/common/collect/ImmutableList;:com/google/javascript/rhino/JSDocInfo.makesDicts()Z'
p27
I1
sS'com/google/javascript/rhino/JSDocInfo.getTemplateTypeNames()Lcom/google/common/collect/ImmutableList;:java/util/Set.iterator()Ljava/util/Iterator;'
p28
I1
sS'com/google/javascript/rhino/JSDocInfo.getTemplateTypeNames()Lcom/google/common/collect/ImmutableList;:com/google/javascript/rhino/JSDocInfo.getTemplateTypeNames()Lcom/google/common/collect/ImmutableList;:com/google/common/collect/ImmutableSet.of(Ljava/lang/Object;Ljava/lang/Object;)Lcom/google/common/collect/ImmutableSet;'
p29
I1
sS'com/google/javascript/rhino/JSDocInfo.getTemplateTypeNames()Lcom/google/common/collect/ImmutableList;:com/google/javascript/rhino/JSDocInfo.getTemplateTypeNames()Lcom/google/common/collect/ImmutableList;:com/google/javascript/rhino/JSDocInfo.<init>(Z)V'
p30
I1
sS'com/google/javascript/rhino/JSDocInfo.getTemplateTypeNames()Lcom/google/common/collect/ImmutableList;:java/util/Iterator.hasNext()Z'
p31
I1
sS'com/google/javascript/rhino/JSDocInfo.getTemplateTypeNames()Lcom/google/common/collect/ImmutableList;:com/google/javascript/rhino/JSDocInfoBuilder.populateDefaults(Lcom/google/javascript/rhino/JSDocInfo;)V'
p32
I1
sS'com/google/javascript/rhino/JSDocInfo.getTemplateTypeNames()Lcom/google/common/collect/ImmutableList;:com/google/javascript/rhino/JSDocInfo.isInterface()Z'
p33
I1
sS'com/google/javascript/rhino/JSDocInfo.getTemplateTypeNames()Lcom/google/common/collect/ImmutableList;:com/google/javascript/rhino/JSDocInfo.getTemplateTypeNames()Lcom/google/common/collect/ImmutableList;:com/google/javascript/rhino/JSDocInfoBuilder.<init>(Lcom/google/javascript/rhino/JSDocInfo;ZZ)V'
p34
I1
sS'com/google/javascript/rhino/JSDocInfo.getSuppressions()Ljava/util/Set;'
p35
I1
sS'com/google/javascript/rhino/JSDocInfo.isInterface()Z'
p36
I1
sS'com/google/javascript/rhino/JSDocInfo.getTemplateTypeNames()Lcom/google/common/collect/ImmutableList;'
p37
I1
sS'com/google/javascript/rhino/JSDocInfo.getTemplateTypeNames()Lcom/google/common/collect/ImmutableList;:java/lang/StringBuilder.<init>(Ljava/lang/String;)V'
p38
I1
sS'com/google/javascript/rhino/JSDocInfo.getTemplateTypeNames()Lcom/google/common/collect/ImmutableList;:com/google/javascript/rhino/JSDocInfo.getTemplateTypeNames()Lcom/google/common/collect/ImmutableList;:com/google/common/collect/ImmutableSet.of(Ljava/lang/Object;Ljava/lang/Object;)Lcom/google/common/collect/ImmutableSet;:com/google/javascript/rhino/JSDocInfo.<init>(Z)V'
p39
I1
sS'com/google/javascript/rhino/JSDocInfo.makesDicts()Z'
p40
I1
sS'com/google/javascript/rhino/JSDocInfo.isDefine()Z'
p41
I1
sS'com/google/javascript/rhino/JSDocInfo.getTemplateTypeNames()Lcom/google/common/collect/ImmutableList;:com/google/javascript/rhino/JSDocInfo.getTemplateTypeNames()Lcom/google/common/collect/ImmutableList;:com/google/common/collect/ImmutableSet.of(Ljava/lang/Object;Ljava/lang/Object;)Lcom/google/common/collect/ImmutableSet;:com/google/javascript/rhino/JSDocInfoBuilder.<init>(Lcom/google/javascript/rhino/JSDocInfo;ZZ)V:java/lang/Object.<init>()V'
p42
I1
sS'com/google/javascript/rhino/JSDocInfo.getVisibility()Lcom/google/javascript/rhino/JSDocInfo$Visibility;'
p43
I2
sS'com/google/javascript/rhino/JSDocInfo.getTemplateTypeNames()Lcom/google/common/collect/ImmutableList;:com/google/javascript/rhino/JSDocInfo.getVisibility()Lcom/google/javascript/rhino/JSDocInfo$Visibility;'
p44
I2
sS'com/google/javascript/rhino/JSDocInfo.getTemplateTypeNames()Lcom/google/common/collect/ImmutableList;:com/google/javascript/rhino/JSDocInfo.isConstant()Z'
p45
I1
sS'com/google/javascript/rhino/JSDocInfo.getTemplateTypeNames()Lcom/google/common/collect/ImmutableList;:com/google/javascript/rhino/JSDocInfo.declareTemplateTypeName(Ljava/lang/String;)Z:com/google/javascript/rhino/JSDocInfo$LazilyInitializedInfo.<init>()V'
p46
I1
sS'com/google/javascript/rhino/JSDocInfo.getTemplateTypeNames()Lcom/google/common/collect/ImmutableList;:com/google/javascript/rhino/JSDocInfo.declareTemplateTypeName(Ljava/lang/String;)Z'
p47
I2
sS'com/google/javascript/rhino/JSDocInfo.getTemplateTypeNames()Lcom/google/common/collect/ImmutableList;:com/google/javascript/rhino/JSDocInfoBuilder.<init>(Lcom/google/javascript/rhino/JSDocInfo;ZZ)V:java/lang/Object.<init>()V'
p48
I1
sS'com/google/javascript/rhino/JSDocInfo.getTemplateTypeNames()Lcom/google/common/collect/ImmutableList;:com/google/javascript/rhino/JSDocInfoBuilder.populateDefaults(Lcom/google/javascript/rhino/JSDocInfo;)V:com/google/javascript/rhino/JSDocInfo.setVisibility(Lcom/google/javascript/rhino/JSDocInfo$Visibility;)V'
p49
I1
sS'com/google/javascript/rhino/JSDocInfo.getTemplateTypeNames()Lcom/google/common/collect/ImmutableList;:com/google/javascript/rhino/JSDocInfo.getSuppressions()Ljava/util/Set;'
p50
I1
sS'com/google/javascript/rhino/JSDocInfo.setAssociatedNode(Lcom/google/javascript/rhino/Node;)V'
p51
I1
sS'com/google/javascript/rhino/JSDocInfoBuilder.populateDefaults(Lcom/google/javascript/rhino/JSDocInfo;)V:com/google/javascript/rhino/JSDocInfo$Visibility.<init>(Ljava/lang/String;I)V'
p52
I5
sS'com/google/javascript/rhino/JSDocInfo.isOverride()Z'
p53
I1
sS'com/google/javascript/rhino/JSDocInfo.getTemplateTypeNames()Lcom/google/common/collect/ImmutableList;:com/google/javascript/rhino/JSDocInfo.<init>(Z)V'
p54
I2
sS'com/google/javascript/rhino/JSDocInfoBuilder.<init>(Lcom/google/javascript/rhino/JSDocInfo;ZZ)V'
p55
I1
sS'com/google/javascript/rhino/JSDocInfoBuilder.populateDefaults(Lcom/google/javascript/rhino/JSDocInfo;)V'
p56
I1
sS'com/google/javascript/rhino/JSDocInfoBuilder.<init>(Lcom/google/javascript/rhino/JSDocInfo;ZZ)V:java/lang/Object.<init>()V'
p57
I1
sS'com/google/javascript/rhino/JSDocInfo.getTemplateTypeNames()Lcom/google/common/collect/ImmutableList;:com/google/javascript/rhino/JSDocInfo.isDeprecated()Z'
p58
I1
s.