(dp0
S'com/google/javascript/jscomp/JsMessage$Builder.<init>(Ljava/lang/String;)V:com/google/common/collect/Lists.newLinkedList()Ljava/util/LinkedList;:com/google/javascript/jscomp/JsMessage$Builder.<init>(Ljava/lang/String;)V:com/google/common/collect/Lists.newLinkedList()Ljava/util/LinkedList;'
p1
I1
sS'com/google/javascript/jscomp/JsMessage$Builder.<init>(Ljava/lang/String;)V:java/lang/Object.<init>()V'
p2
I1
sS'com/google/javascript/jscomp/JsMessage$Builder.<init>(Ljava/lang/String;)V:com/google/common/collect/Lists.newLinkedList()Ljava/util/LinkedList;:com/google/javascript/jscomp/JsMessage$Builder.<init>(Ljava/lang/String;)V:java/lang/Object.<init>()V'
p3
I1
sS'com/google/javascript/jscomp/JsMessage$Builder.<init>(Ljava/lang/String;)V:com/google/common/collect/Lists.newLinkedList()Ljava/util/LinkedList;:com/google/javascript/jscomp/JsMessage$Builder.<init>(Ljava/lang/String;)V:com/google/common/collect/Lists.newLinkedList()Ljava/util/LinkedList;:com/google/javascript/jscomp/JsMessage$Hash.hash64(Ljava/lang/String;J)J:com/google/javascript/jscomp/JsMessage$Hash.hash64([BJ)J'
p4
I2
sS'com/google/javascript/jscomp/JsMessage$Builder.<init>(Ljava/lang/String;)V:com/google/common/collect/Lists.newLinkedList()Ljava/util/LinkedList;'
p5
I1
sS'com/google/javascript/jscomp/JsMessage$Builder.<init>(Ljava/lang/String;)V'
p6
I1
sS'com/google/javascript/jscomp/JsMessage$Builder.<init>(Ljava/lang/String;)V:com/google/common/collect/Lists.newLinkedList()Ljava/util/LinkedList;:com/google/javascript/jscomp/JsMessage$Builder.<init>(Ljava/lang/String;)V:com/google/common/collect/Lists.newLinkedList()Ljava/util/LinkedList;:com/google/javascript/jscomp/JsMessage$Hash.hash64(Ljava/lang/String;J)J:com/google/javascript/jscomp/JsMessage$Hash.hash64([BJ)J:com/google/javascript/jscomp/JsMessage$Hash.hash64([BIIJ)J'
p7
I2
sS'java/util/regex/Pattern.compile(Ljava/lang/String;)Ljava/util/regex/Pattern;'
p8
I1
sS'com/google/javascript/jscomp/JsMessage$Builder.<init>(Ljava/lang/String;)V:com/google/common/collect/Lists.newLinkedList()Ljava/util/LinkedList;:com/google/javascript/jscomp/JsMessage$Builder.<init>(Ljava/lang/String;)V:com/google/common/collect/Lists.newLinkedList()Ljava/util/LinkedList;:com/google/javascript/jscomp/JsMessage$Hash.hash64(Ljava/lang/String;J)J:com/google/javascript/jscomp/JsMessage$Hash.hash64([BJ)J:com/google/javascript/jscomp/JsMessage$Hash.hash64([BIIJ)J:com/google/javascript/jscomp/JsMessage$Hash.word64At([BI)J'
p9
I1
sS'com/google/javascript/jscomp/JsMessage$Builder.<init>(Ljava/lang/String;)V:com/google/common/collect/Lists.newLinkedList()Ljava/util/LinkedList;:com/google/javascript/jscomp/JsMessage$Builder.<init>(Ljava/lang/String;)V:com/google/common/collect/Lists.newLinkedList()Ljava/util/LinkedList;:com/google/javascript/jscomp/JsMessage$Hash.hash64(Ljava/lang/String;J)J:java/lang/String.getBytes(Ljava/nio/charset/Charset;)[B'
p10
I2
sS'com/google/javascript/jscomp/JsMessage$Builder.<init>(Ljava/lang/String;)V:com/google/common/collect/Lists.newLinkedList()Ljava/util/LinkedList;:com/google/javascript/jscomp/JsMessage$Builder.<init>(Ljava/lang/String;)V:com/google/common/collect/Lists.newLinkedList()Ljava/util/LinkedList;:com/google/javascript/jscomp/JsMessage$Hash.hash64(Ljava/lang/String;J)J:com/google/javascript/jscomp/JsMessage$Hash.hash64([BJ)J:com/google/javascript/jscomp/JsMessage$Hash.hash64([BIIJ)J:com/google/javascript/jscomp/JsMessage$Hash.mix64(JJJ)J'
p11
I2
sS'com/google/javascript/jscomp/JsMessage$Builder.<init>(Ljava/lang/String;)V:com/google/common/collect/Lists.newLinkedList()Ljava/util/LinkedList;:com/google/javascript/jscomp/JsMessage$Builder.<init>(Ljava/lang/String;)V:com/google/common/collect/Lists.newLinkedList()Ljava/util/LinkedList;:com/google/javascript/jscomp/JsMessage$Hash.hash64(Ljava/lang/String;J)J'
p12
I2
sS'com/google/javascript/jscomp/JsMessage$Builder.<init>(Ljava/lang/String;)V:com/google/common/collect/Lists.newLinkedList()Ljava/util/LinkedList;:com/google/javascript/jscomp/JsMessage$Builder.<init>(Ljava/lang/String;)V'
p13
I1
s.