(dp0
S'com/google/javascript/jscomp/CheckLevel.values()[Lcom/google/javascript/jscomp/CheckLevel;'
p1
I1
sS'com/google/javascript/jscomp/CheckLevel.values()[Lcom/google/javascript/jscomp/CheckLevel;:com/google/javascript/jscomp/CheckLevel.<init>(Ljava/lang/String;I)V'
p2
I3
sS'com/google/javascript/jscomp/CheckLevel.values()[Lcom/google/javascript/jscomp/CheckLevel;:com/google/javascript/jscomp/CheckLevel.<init>(Ljava/lang/String;I)V:java/lang/Enum.<init>(Ljava/lang/String;I)V'
p3
I3
sS'com/google/javascript/jscomp/CheckLevel.values()[Lcom/google/javascript/jscomp/CheckLevel;:[Lcom/google/javascript/jscomp/CheckLevel;.clone()Ljava/lang/Object;'
p4
I1
sS'com/google/javascript/jscomp/CheckLevel.ordinal()I'
p5
I3
s.