(dp0
S'java/lang/Class.forName(Ljava/lang/String;)Ljava/lang/Class;:com/google/javascript/jscomp/newtypes/NaivePersistentMap.create()Lcom/google/javascript/jscomp/newtypes/PersistentMap;:com/google/javascript/jscomp/newtypes/NaivePersistentMap.<init>(Ljava/util/Map;)V'
p1
I1
sS'java/lang/Class.forName(Ljava/lang/String;)Ljava/lang/Class;:com/google/javascript/jscomp/newtypes/NaivePersistentMap.create()Lcom/google/javascript/jscomp/newtypes/PersistentMap;'
p2
I1
sS'java/lang/Class.forName(Ljava/lang/String;)Ljava/lang/Class;:com/google/javascript/jscomp/newtypes/NaivePersistentMap.create()Lcom/google/javascript/jscomp/newtypes/PersistentMap;:java/util/HashMap.<init>()V'
p3
I1
sS'java/lang/Class.forName(Ljava/lang/String;)Ljava/lang/Class;:com/google/javascript/jscomp/newtypes/NaivePersistentMap.create()Lcom/google/javascript/jscomp/newtypes/PersistentMap;:com/google/javascript/jscomp/newtypes/NaivePersistentMap.<init>(Ljava/util/Map;)V:com/google/javascript/jscomp/newtypes/PersistentMap.<init>()V'
p4
I1
sS'java/lang/Class.forName(Ljava/lang/String;)Ljava/lang/Class;'
p5
I1
sS'java/lang/Class.forName(Ljava/lang/String;)Ljava/lang/Class;:com/google/javascript/jscomp/newtypes/NaivePersistentMap.create()Lcom/google/javascript/jscomp/newtypes/PersistentMap;:com/google/javascript/jscomp/newtypes/NaivePersistentMap.<init>(Ljava/util/Map;)V:com/google/javascript/jscomp/newtypes/PersistentMap.<init>()V:java/util/AbstractMap.<init>()V'
p6
I1
s.