(dp0
S'java/lang/Class.forName(Ljava/lang/String;)Ljava/lang/Class;:com/google/javascript/jscomp/newtypes/NaivePersistentSet.create()Lcom/google/javascript/jscomp/newtypes/PersistentSet;'
p1
I1
sS'java/lang/Class.forName(Ljava/lang/String;)Ljava/lang/Class;:com/google/javascript/jscomp/newtypes/NaivePersistentSet.create()Lcom/google/javascript/jscomp/newtypes/PersistentSet;:com/google/javascript/jscomp/newtypes/NaivePersistentSet.<init>(Ljava/util/Set;)V:com/google/javascript/jscomp/newtypes/PersistentSet.<init>()V:java/util/AbstractSet.<init>()V'
p2
I1
sS'java/lang/Class.forName(Ljava/lang/String;)Ljava/lang/Class;:com/google/javascript/jscomp/newtypes/NaivePersistentSet.create()Lcom/google/javascript/jscomp/newtypes/PersistentSet;:java/util/HashSet.<init>()V'
p3
I1
sS'java/lang/Class.forName(Ljava/lang/String;)Ljava/lang/Class;'
p4
I1
sS'java/lang/Class.forName(Ljava/lang/String;)Ljava/lang/Class;:com/google/javascript/jscomp/newtypes/NaivePersistentSet.create()Lcom/google/javascript/jscomp/newtypes/PersistentSet;:com/google/javascript/jscomp/newtypes/NaivePersistentSet.<init>(Ljava/util/Set;)V'
p5
I1
sS'java/lang/Class.forName(Ljava/lang/String;)Ljava/lang/Class;:com/google/javascript/jscomp/newtypes/NaivePersistentSet.create()Lcom/google/javascript/jscomp/newtypes/PersistentSet;:com/google/javascript/jscomp/newtypes/NaivePersistentSet.<init>(Ljava/util/Set;)V:com/google/javascript/jscomp/newtypes/PersistentSet.<init>()V'
p6
I1
s.