(dp0
S'com/google/javascript/jscomp/newtypes/ObjectKind.<init>(I)V'
p1
I4
sS'com/google/javascript/jscomp/newtypes/ObjectType.makeObjectType(Lcom/google/javascript/jscomp/newtypes/NominalType;Lcom/google/javascript/jscomp/newtypes/PersistentMap;Lcom/google/javascript/jscomp/newtypes/FunctionType;ZLcom/google/javascript/jscomp/newtypes/ObjectKind;)Lcom/google/javascript/jscomp/newtypes/ObjectType;:com/google/javascript/jscomp/newtypes/PersistentMap.create()Lcom/google/javascript/jscomp/newtypes/PersistentMap;:java/lang/Class.forName(Ljava/lang/String;)Ljava/lang/Class;:com/google/javascript/jscomp/newtypes/NaivePersistentMap.create()Lcom/google/javascript/jscomp/newtypes/PersistentMap;'
p2
I1
sS'com/google/javascript/jscomp/newtypes/ObjectType.makeObjectType(Lcom/google/javascript/jscomp/newtypes/NominalType;Lcom/google/javascript/jscomp/newtypes/PersistentMap;Lcom/google/javascript/jscomp/newtypes/FunctionType;ZLcom/google/javascript/jscomp/newtypes/ObjectKind;)Lcom/google/javascript/jscomp/newtypes/ObjectType;:com/google/javascript/jscomp/newtypes/PersistentMap.create()Lcom/google/javascript/jscomp/newtypes/PersistentMap;:java/lang/Class.forName(Ljava/lang/String;)Ljava/lang/Class;:com/google/javascript/jscomp/newtypes/NaivePersistentMap.create()Lcom/google/javascript/jscomp/newtypes/PersistentMap;:com/google/javascript/jscomp/newtypes/NaivePersistentMap.<init>(Ljava/util/Map;)V:com/google/javascript/jscomp/newtypes/PersistentMap.<init>()V:java/util/AbstractMap.<init>()V'
p3
I1
sS'com/google/javascript/jscomp/newtypes/ObjectType.makeObjectType(Lcom/google/javascript/jscomp/newtypes/NominalType;Lcom/google/javascript/jscomp/newtypes/PersistentMap;Lcom/google/javascript/jscomp/newtypes/FunctionType;ZLcom/google/javascript/jscomp/newtypes/ObjectKind;)Lcom/google/javascript/jscomp/newtypes/ObjectType;:com/google/javascript/jscomp/newtypes/PersistentMap.create()Lcom/google/javascript/jscomp/newtypes/PersistentMap;:com/google/javascript/jscomp/newtypes/ObjectType.<init>(Lcom/google/javascript/jscomp/newtypes/NominalType;Lcom/google/javascript/jscomp/newtypes/PersistentMap;Lcom/google/javascript/jscomp/newtypes/FunctionType;ZLcom/google/javascript/jscomp/newtypes/ObjectKind;)V:java/lang/Object.<init>()V'
p4
I1
sS'com/google/javascript/jscomp/newtypes/ObjectType.makeObjectType(Lcom/google/javascript/jscomp/newtypes/NominalType;Lcom/google/javascript/jscomp/newtypes/PersistentMap;Lcom/google/javascript/jscomp/newtypes/FunctionType;ZLcom/google/javascript/jscomp/newtypes/ObjectKind;)Lcom/google/javascript/jscomp/newtypes/ObjectType;:com/google/javascript/jscomp/newtypes/PersistentMap.create()Lcom/google/javascript/jscomp/newtypes/PersistentMap;:com/google/javascript/jscomp/newtypes/ObjectType.<init>(Lcom/google/javascript/jscomp/newtypes/NominalType;Lcom/google/javascript/jscomp/newtypes/PersistentMap;Lcom/google/javascript/jscomp/newtypes/FunctionType;ZLcom/google/javascript/jscomp/newtypes/ObjectKind;)V:java/lang/Boolean.valueOf(Z)Ljava/lang/Boolean;'
p5
I1
sS'com/google/javascript/jscomp/newtypes/ObjectType.makeObjectType(Lcom/google/javascript/jscomp/newtypes/NominalType;Lcom/google/javascript/jscomp/newtypes/PersistentMap;Lcom/google/javascript/jscomp/newtypes/FunctionType;ZLcom/google/javascript/jscomp/newtypes/ObjectKind;)Lcom/google/javascript/jscomp/newtypes/ObjectType;:com/google/javascript/jscomp/newtypes/PersistentMap.create()Lcom/google/javascript/jscomp/newtypes/PersistentMap;:java/lang/Class.forName(Ljava/lang/String;)Ljava/lang/Class;:com/google/javascript/jscomp/newtypes/NaivePersistentMap.create()Lcom/google/javascript/jscomp/newtypes/PersistentMap;:com/google/javascript/jscomp/newtypes/NaivePersistentMap.<init>(Ljava/util/Map;)V'
p6
I1
sS'com/google/javascript/jscomp/newtypes/ObjectType.makeObjectType(Lcom/google/javascript/jscomp/newtypes/NominalType;Lcom/google/javascript/jscomp/newtypes/PersistentMap;Lcom/google/javascript/jscomp/newtypes/FunctionType;ZLcom/google/javascript/jscomp/newtypes/ObjectKind;)Lcom/google/javascript/jscomp/newtypes/ObjectType;:com/google/javascript/jscomp/newtypes/PersistentMap.create()Lcom/google/javascript/jscomp/newtypes/PersistentMap;:com/google/javascript/jscomp/newtypes/ObjectType.<init>(Lcom/google/javascript/jscomp/newtypes/NominalType;Lcom/google/javascript/jscomp/newtypes/PersistentMap;Lcom/google/javascript/jscomp/newtypes/FunctionType;ZLcom/google/javascript/jscomp/newtypes/ObjectKind;)V:com/google/common/base/Preconditions.checkArgument(ZLjava/lang/String;[Ljava/lang/Object;)V'
p7
I1
sS'com/google/javascript/jscomp/newtypes/ObjectType.makeObjectType(Lcom/google/javascript/jscomp/newtypes/NominalType;Lcom/google/javascript/jscomp/newtypes/PersistentMap;Lcom/google/javascript/jscomp/newtypes/FunctionType;ZLcom/google/javascript/jscomp/newtypes/ObjectKind;)Lcom/google/javascript/jscomp/newtypes/ObjectType;:com/google/javascript/jscomp/newtypes/PersistentMap.create()Lcom/google/javascript/jscomp/newtypes/PersistentMap;:java/lang/Class.forName(Ljava/lang/String;)Ljava/lang/Class;'
p8
I1
sS'com/google/javascript/jscomp/newtypes/ObjectType.makeObjectType(Lcom/google/javascript/jscomp/newtypes/NominalType;Lcom/google/javascript/jscomp/newtypes/PersistentMap;Lcom/google/javascript/jscomp/newtypes/FunctionType;ZLcom/google/javascript/jscomp/newtypes/ObjectKind;)Lcom/google/javascript/jscomp/newtypes/ObjectType;:com/google/javascript/jscomp/newtypes/PersistentMap.create()Lcom/google/javascript/jscomp/newtypes/PersistentMap;:com/google/javascript/jscomp/newtypes/ObjectType.<init>(Lcom/google/javascript/jscomp/newtypes/NominalType;Lcom/google/javascript/jscomp/newtypes/PersistentMap;Lcom/google/javascript/jscomp/newtypes/FunctionType;ZLcom/google/javascript/jscomp/newtypes/ObjectKind;)V'
p9
I1
sS'com/google/javascript/jscomp/newtypes/ObjectKind.<init>(I)V:java/lang/Object.<init>()V'
p10
I4
sS'com/google/javascript/jscomp/newtypes/ObjectType.makeObjectType(Lcom/google/javascript/jscomp/newtypes/NominalType;Lcom/google/javascript/jscomp/newtypes/PersistentMap;Lcom/google/javascript/jscomp/newtypes/FunctionType;ZLcom/google/javascript/jscomp/newtypes/ObjectKind;)Lcom/google/javascript/jscomp/newtypes/ObjectType;:com/google/javascript/jscomp/newtypes/PersistentMap.create()Lcom/google/javascript/jscomp/newtypes/PersistentMap;:java/lang/Class.forName(Ljava/lang/String;)Ljava/lang/Class;:com/google/javascript/jscomp/newtypes/NaivePersistentMap.create()Lcom/google/javascript/jscomp/newtypes/PersistentMap;:com/google/javascript/jscomp/newtypes/NaivePersistentMap.<init>(Ljava/util/Map;)V:com/google/javascript/jscomp/newtypes/PersistentMap.<init>()V'
p11
I1
sS'com/google/javascript/jscomp/newtypes/ObjectType.makeObjectType(Lcom/google/javascript/jscomp/newtypes/NominalType;Lcom/google/javascript/jscomp/newtypes/PersistentMap;Lcom/google/javascript/jscomp/newtypes/FunctionType;ZLcom/google/javascript/jscomp/newtypes/ObjectKind;)Lcom/google/javascript/jscomp/newtypes/ObjectType;:com/google/javascript/jscomp/newtypes/PersistentMap.create()Lcom/google/javascript/jscomp/newtypes/PersistentMap;:java/lang/Class.forName(Ljava/lang/String;)Ljava/lang/Class;:com/google/javascript/jscomp/newtypes/NaivePersistentMap.create()Lcom/google/javascript/jscomp/newtypes/PersistentMap;:java/util/HashMap.<init>()V'
p12
I1
sS'com/google/javascript/jscomp/newtypes/ObjectType.makeObjectType(Lcom/google/javascript/jscomp/newtypes/NominalType;Lcom/google/javascript/jscomp/newtypes/PersistentMap;Lcom/google/javascript/jscomp/newtypes/FunctionType;ZLcom/google/javascript/jscomp/newtypes/ObjectKind;)Lcom/google/javascript/jscomp/newtypes/ObjectType;:com/google/javascript/jscomp/newtypes/PersistentMap.create()Lcom/google/javascript/jscomp/newtypes/PersistentMap;'
p13
I1
sS'com/google/javascript/jscomp/newtypes/ObjectType.makeObjectType(Lcom/google/javascript/jscomp/newtypes/NominalType;Lcom/google/javascript/jscomp/newtypes/PersistentMap;Lcom/google/javascript/jscomp/newtypes/FunctionType;ZLcom/google/javascript/jscomp/newtypes/ObjectKind;)Lcom/google/javascript/jscomp/newtypes/ObjectType;'
p14
I1
s.