(dp0
S'com/google/javascript/jscomp/NodeUtil$ValueType.values()[Lcom/google/javascript/jscomp/NodeUtil$ValueType;'
p1
I1
sS'com/google/javascript/jscomp/NodeUtil$ValueType.values()[Lcom/google/javascript/jscomp/NodeUtil$ValueType;:[Lcom/google/javascript/jscomp/NodeUtil$ValueType;.clone()Ljava/lang/Object;'
p2
I1
sS'com/google/javascript/jscomp/NodeUtil$ValueType.values()[Lcom/google/javascript/jscomp/NodeUtil$ValueType;:com/google/javascript/jscomp/NodeUtil$ValueType.<init>(Ljava/lang/String;I)V'
p3
I6
sS'com/google/javascript/jscomp/NodeUtil$ValueType.ordinal()I'
p4
I6
sS'com/google/javascript/jscomp/NodeUtil$ValueType.values()[Lcom/google/javascript/jscomp/NodeUtil$ValueType;:com/google/javascript/jscomp/NodeUtil$ValueType.<init>(Ljava/lang/String;I)V:java/lang/Enum.<init>(Ljava/lang/String;I)V'
p5
I6
s.