(dp0
S'com/google/javascript/jscomp/DiagnosticType.make(Ljava/lang/String;Lcom/google/javascript/jscomp/CheckLevel;Ljava/lang/String;)Lcom/google/javascript/jscomp/DiagnosticType;'
p1
I2
sS'com/google/javascript/jscomp/JSError.<init>(Ljava/lang/String;Lcom/google/javascript/rhino/Node;IILcom/google/javascript/jscomp/DiagnosticType;Lcom/google/javascript/jscomp/CheckLevel;[Ljava/lang/String;)V:java/lang/Object.<init>()V'
p2
I16
sS'java/lang/String.compareTo(Ljava/lang/String;)I'
p3
I4
sS'com/google/javascript/jscomp/JSError.<init>(Ljava/lang/String;Lcom/google/javascript/rhino/Node;IILcom/google/javascript/jscomp/DiagnosticType;Lcom/google/javascript/jscomp/CheckLevel;[Ljava/lang/String;)V:java/text/MessageFormat.format(Ljava/lang/Object;)Ljava/lang/String;'
p4
I16
sS'com/google/javascript/jscomp/DiagnosticType.make(Ljava/lang/String;Lcom/google/javascript/jscomp/CheckLevel;Ljava/lang/String;)Lcom/google/javascript/jscomp/DiagnosticType;:com/google/javascript/jscomp/DiagnosticType.<init>(Ljava/lang/String;Lcom/google/javascript/jscomp/CheckLevel;Ljava/text/MessageFormat;)V:java/lang/Object.<init>()V'
p5
I2
sS'com/google/javascript/jscomp/CheckLevel.compareTo(Ljava/lang/Enum;)I'
p6
I6
sS'java/lang/Object.<init>()V'
p7
I29
sS'com/google/javascript/jscomp/CheckLevel.<init>(Ljava/lang/String;I)V'
p8
I3
sS'com/google/javascript/jscomp/JSError.getCharno()I'
p9
I12
sS'com/google/javascript/jscomp/CheckLevel.<init>(Ljava/lang/String;I)V:java/lang/Enum.<init>(Ljava/lang/String;I)V'
p10
I3
sS'com/google/javascript/jscomp/JSError.<init>(Ljava/lang/String;Lcom/google/javascript/rhino/Node;IILcom/google/javascript/jscomp/DiagnosticType;Lcom/google/javascript/jscomp/CheckLevel;[Ljava/lang/String;)V'
p11
I16
sS'com/google/javascript/jscomp/DiagnosticType.make(Ljava/lang/String;Lcom/google/javascript/jscomp/CheckLevel;Ljava/lang/String;)Lcom/google/javascript/jscomp/DiagnosticType;:java/text/MessageFormat.<init>(Ljava/lang/String;)V'
p12
I2
sS'com/google/javascript/jscomp/DiagnosticType.make(Ljava/lang/String;Lcom/google/javascript/jscomp/CheckLevel;Ljava/lang/String;)Lcom/google/javascript/jscomp/DiagnosticType;:com/google/javascript/jscomp/DiagnosticType.<init>(Ljava/lang/String;Lcom/google/javascript/jscomp/CheckLevel;Ljava/text/MessageFormat;)V'
p13
I2
s.