(dp0
S'com/google/javascript/jscomp/parsing/JsDocToken.<init>(Ljava/lang/String;I)V'
p1
I21
sS'com/google/javascript/jscomp/parsing/JsDocToken.<init>(Ljava/lang/String;I)V:java/lang/Enum.<init>(Ljava/lang/String;I)V'
p2
I21
s.