(dp0
S'com/google/javascript/jscomp/parsing/parser/TokenType.values()[Lcom/google/javascript/jscomp/parsing/parser/TokenType;:com/google/javascript/jscomp/parsing/parser/TokenType.<init>(Ljava/lang/String;ILjava/lang/String;)V'
p1
I61
sS'com/google/javascript/jscomp/parsing/parser/TokenType.ordinal()I'
p2
I9
sS'com/google/javascript/jscomp/parsing/parser/TokenType.values()[Lcom/google/javascript/jscomp/parsing/parser/TokenType;:com/google/javascript/jscomp/parsing/parser/TokenType.<init>(Ljava/lang/String;ILjava/lang/String;)V:java/lang/Enum.<init>(Ljava/lang/String;I)V'
p3
I61
sS'com/google/javascript/jscomp/parsing/parser/TokenType.values()[Lcom/google/javascript/jscomp/parsing/parser/TokenType;:com/google/javascript/jscomp/parsing/parser/TokenType.<init>(Ljava/lang/String;I)V:com/google/javascript/jscomp/parsing/parser/TokenType.<init>(Ljava/lang/String;ILjava/lang/String;)V:java/lang/Enum.<init>(Ljava/lang/String;I)V'
p4
I45
sS'com/google/javascript/jscomp/parsing/parser/TokenType.values()[Lcom/google/javascript/jscomp/parsing/parser/TokenType;:[Lcom/google/javascript/jscomp/parsing/parser/TokenType;.clone()Ljava/lang/Object;'
p5
I1
sS'com/google/javascript/jscomp/parsing/parser/TokenType.values()[Lcom/google/javascript/jscomp/parsing/parser/TokenType;:com/google/javascript/jscomp/parsing/parser/TokenType.<init>(Ljava/lang/String;I)V:com/google/javascript/jscomp/parsing/parser/TokenType.<init>(Ljava/lang/String;ILjava/lang/String;)V'
p6
I45
sS'com/google/javascript/jscomp/parsing/parser/TokenType.values()[Lcom/google/javascript/jscomp/parsing/parser/TokenType;'
p7
I1
sS'com/google/javascript/jscomp/parsing/parser/TokenType.values()[Lcom/google/javascript/jscomp/parsing/parser/TokenType;:com/google/javascript/jscomp/parsing/parser/TokenType.<init>(Ljava/lang/String;I)V'
p8
I45
s.