(dp0
S'com/google/javascript/jscomp/parsing/parser/TokenType.<init>(Ljava/lang/String;I)V:com/google/javascript/jscomp/parsing/parser/TokenType.<init>(Ljava/lang/String;ILjava/lang/String;)V:java/lang/Enum.<init>(Ljava/lang/String;I)V'
p1
I45
sS'com/google/javascript/jscomp/parsing/parser/TokenType.<init>(Ljava/lang/String;ILjava/lang/String;)V'
p2
I61
sS'com/google/javascript/jscomp/parsing/parser/TokenType.<init>(Ljava/lang/String;ILjava/lang/String;)V:java/lang/Enum.<init>(Ljava/lang/String;I)V'
p3
I61
sS'com/google/javascript/jscomp/parsing/parser/TokenType.<init>(Ljava/lang/String;I)V:com/google/javascript/jscomp/parsing/parser/TokenType.<init>(Ljava/lang/String;ILjava/lang/String;)V'
p4
I45
sS'com/google/javascript/jscomp/parsing/parser/TokenType.<init>(Ljava/lang/String;I)V'
p5
I45
s.