(dp0
S'com/google/javascript/jscomp/parsing/Config$LanguageMode.values()[Lcom/google/javascript/jscomp/parsing/Config$LanguageMode;:com/google/javascript/jscomp/parsing/Config$LanguageMode.<init>(Ljava/lang/String;I)V:java/lang/Enum.<init>(Ljava/lang/String;I)V'
p1
I6
sS'com/google/javascript/jscomp/parsing/Config$LanguageMode.ordinal()I'
p2
I6
sS'com/google/javascript/jscomp/parsing/Config$LanguageMode.values()[Lcom/google/javascript/jscomp/parsing/Config$LanguageMode;:[Lcom/google/javascript/jscomp/parsing/Config$LanguageMode;.clone()Ljava/lang/Object;'
p3
I1
sS'com/google/javascript/jscomp/parsing/Config$LanguageMode.values()[Lcom/google/javascript/jscomp/parsing/Config$LanguageMode;'
p4
I1
sS'com/google/javascript/jscomp/parsing/Config$LanguageMode.values()[Lcom/google/javascript/jscomp/parsing/Config$LanguageMode;:com/google/javascript/jscomp/parsing/Config$LanguageMode.<init>(Ljava/lang/String;I)V'
p5
I6
s.