(dp0
S'com/google/javascript/jscomp/CompilerOptions$TracerMode.values()[Lcom/google/javascript/jscomp/CompilerOptions$TracerMode;'
p1
I1
sS'com/google/javascript/jscomp/CompilerOptions$TracerMode.ordinal()I'
p2
I4
sS'com/google/javascript/jscomp/CompilerOptions$TracerMode.values()[Lcom/google/javascript/jscomp/CompilerOptions$TracerMode;:com/google/javascript/jscomp/CompilerOptions$TracerMode.<init>(Ljava/lang/String;I)V'
p3
I4
sS'com/google/javascript/jscomp/CompilerOptions$TracerMode.values()[Lcom/google/javascript/jscomp/CompilerOptions$TracerMode;:[Lcom/google/javascript/jscomp/CompilerOptions$TracerMode;.clone()Ljava/lang/Object;'
p4
I1
sS'com/google/javascript/jscomp/CompilerOptions$TracerMode.values()[Lcom/google/javascript/jscomp/CompilerOptions$TracerMode;:com/google/javascript/jscomp/CompilerOptions$TracerMode.<init>(Ljava/lang/String;I)V:java/lang/Enum.<init>(Ljava/lang/String;I)V'
p5
I4
s.