(dp0
S'com/google/javascript/jscomp/ProcessTweaks$TweakFunction.<init>(Ljava/lang/String;ILjava/lang/String;)V'
p1
I2
sS'com/google/javascript/jscomp/ProcessTweaks$TweakFunction.<init>(Ljava/lang/String;ILjava/lang/String;Ljava/lang/String;II)V:com/google/javascript/jscomp/ProcessTweaks$TweakFunction.<init>(Ljava/lang/String;ILjava/lang/String;Ljava/lang/String;IILcom/google/javascript/jscomp/ProcessTweaks$TweakFunction;)V:java/lang/Enum.<init>(Ljava/lang/String;I)V'
p2
I1
sS'com/google/javascript/jscomp/ProcessTweaks$TweakFunction.<init>(Ljava/lang/String;ILjava/lang/String;)V:com/google/javascript/jscomp/ProcessTweaks$TweakFunction.<init>(Ljava/lang/String;ILjava/lang/String;Ljava/lang/String;IILcom/google/javascript/jscomp/ProcessTweaks$TweakFunction;)V'
p3
I2
sS'com/google/javascript/jscomp/ProcessTweaks$TweakFunction.<init>(Ljava/lang/String;ILjava/lang/String;Ljava/lang/String;I)V:com/google/javascript/jscomp/ProcessTweaks$TweakFunction.<init>(Ljava/lang/String;ILjava/lang/String;Ljava/lang/String;IILcom/google/javascript/jscomp/ProcessTweaks$TweakFunction;)V:java/lang/Enum.<init>(Ljava/lang/String;I)V'
p4
I2
sS'com/google/javascript/jscomp/ProcessTweaks$TweakFunction.<init>(Ljava/lang/String;ILjava/lang/String;Lcom/google/javascript/jscomp/ProcessTweaks$TweakFunction;)V:com/google/javascript/jscomp/ProcessTweaks$TweakFunction.<init>(Ljava/lang/String;ILjava/lang/String;Ljava/lang/String;IILcom/google/javascript/jscomp/ProcessTweaks$TweakFunction;)V'
p5
I3
sS'com/google/javascript/jscomp/ProcessTweaks$TweakFunction.<init>(Ljava/lang/String;ILjava/lang/String;Ljava/lang/String;I)V'
p6
I2
sS'com/google/javascript/jscomp/ProcessTweaks$TweakFunction.<init>(Ljava/lang/String;ILjava/lang/String;Ljava/lang/String;II)V'
p7
I1
sS'com/google/javascript/jscomp/ProcessTweaks$TweakFunction.<init>(Ljava/lang/String;ILjava/lang/String;)V:com/google/javascript/jscomp/ProcessTweaks$TweakFunction.<init>(Ljava/lang/String;ILjava/lang/String;Ljava/lang/String;IILcom/google/javascript/jscomp/ProcessTweaks$TweakFunction;)V:java/lang/Enum.<init>(Ljava/lang/String;I)V'
p8
I2
sS'com/google/javascript/jscomp/ProcessTweaks$TweakFunction.<init>(Ljava/lang/String;ILjava/lang/String;Ljava/lang/String;I)V:com/google/javascript/jscomp/ProcessTweaks$TweakFunction.<init>(Ljava/lang/String;ILjava/lang/String;Ljava/lang/String;IILcom/google/javascript/jscomp/ProcessTweaks$TweakFunction;)V'
p9
I2
sS'com/google/javascript/jscomp/ProcessTweaks$TweakFunction.<init>(Ljava/lang/String;ILjava/lang/String;Lcom/google/javascript/jscomp/ProcessTweaks$TweakFunction;)V:com/google/javascript/jscomp/ProcessTweaks$TweakFunction.<init>(Ljava/lang/String;ILjava/lang/String;Ljava/lang/String;IILcom/google/javascript/jscomp/ProcessTweaks$TweakFunction;)V:java/lang/Enum.<init>(Ljava/lang/String;I)V'
p10
I3
sS'com/google/javascript/jscomp/ProcessTweaks$TweakFunction.<init>(Ljava/lang/String;ILjava/lang/String;Lcom/google/javascript/jscomp/ProcessTweaks$TweakFunction;)V'
p11
I3
sS'com/google/javascript/jscomp/ProcessTweaks$TweakFunction.<init>(Ljava/lang/String;ILjava/lang/String;Ljava/lang/String;II)V:com/google/javascript/jscomp/ProcessTweaks$TweakFunction.<init>(Ljava/lang/String;ILjava/lang/String;Ljava/lang/String;IILcom/google/javascript/jscomp/ProcessTweaks$TweakFunction;)V'
p12
I1
s.