(dp0
S'com/google/javascript/jscomp/regex/CaseCanonicalize$DeltaSet.<init>(ILcom/google/javascript/jscomp/regex/CharRanges;)V'
p1
I118
sS'com/google/javascript/jscomp/regex/CharRanges.withMembers([I)Lcom/google/javascript/jscomp/regex/CharRanges;:com/google/javascript/jscomp/regex/CharRanges.<init>([I)V'
p2
I82
sS'com/google/javascript/jscomp/regex/CharRanges.withMembers([I)Lcom/google/javascript/jscomp/regex/CharRanges;:[I.clone()Ljava/lang/Object;'
p3
I82
sS'com/google/javascript/jscomp/regex/CaseCanonicalize$DeltaSet.<init>(ILcom/google/javascript/jscomp/regex/CharRanges;)V:java/lang/Object.<init>()V'
p4
I118
sS'com/google/javascript/jscomp/regex/CharRanges.withMembers([I)Lcom/google/javascript/jscomp/regex/CharRanges;:com/google/javascript/jscomp/regex/CharRanges.<init>([I)V:java/lang/Object.<init>()V'
p5
I82
sS'com/google/javascript/jscomp/regex/CharRanges.withMembers([I)Lcom/google/javascript/jscomp/regex/CharRanges;:com/google/javascript/jscomp/regex/CharRanges.intArrayToRanges([I)[I'
p6
I82
sS'com/google/javascript/jscomp/regex/CharRanges.inclusive(II)Lcom/google/javascript/jscomp/regex/CharRanges;'
p7
I1
sS'com/google/javascript/jscomp/regex/CharRanges.withRanges([I)Lcom/google/javascript/jscomp/regex/CharRanges;:[I.clone()Ljava/lang/Object;'
p8
I37
sS'com/google/javascript/jscomp/regex/CharRanges.withRanges([I)Lcom/google/javascript/jscomp/regex/CharRanges;:com/google/javascript/jscomp/regex/CharRanges.<init>([I)V'
p9
I39
sS'com/google/javascript/jscomp/regex/CharRanges.inclusive(II)Lcom/google/javascript/jscomp/regex/CharRanges;:com/google/javascript/jscomp/regex/CharRanges.<init>([I)V'
p10
I1
sS'com/google/javascript/jscomp/regex/CharRanges.inclusive(II)Lcom/google/javascript/jscomp/regex/CharRanges;:com/google/javascript/jscomp/regex/CharRanges.<init>([I)V:java/lang/Object.<init>()V'
p11
I1
sS'com/google/javascript/jscomp/regex/CharRanges.withRanges([I)Lcom/google/javascript/jscomp/regex/CharRanges;:com/google/javascript/jscomp/regex/CharRanges.<init>([I)V:java/lang/Object.<init>()V'
p12
I39
sS'com/google/common/collect/ImmutableList.of(Ljava/lang/Object;Ljava/lang/Object;Ljava/lang/Object;Ljava/lang/Object;Ljava/lang/Object;Ljava/lang/Object;Ljava/lang/Object;Ljava/lang/Object;Ljava/lang/Object;Ljava/lang/Object;Ljava/lang/Object;Ljava/lang/Object;[Ljava/lang/Object;)Lcom/google/common/collect/ImmutableList;'
p13
I1
sS'com/google/javascript/jscomp/regex/CharRanges.withMembers([I)Lcom/google/javascript/jscomp/regex/CharRanges;:com/google/javascript/jscomp/regex/CharRanges.intArrayToRanges([I)[I:java/util/Arrays.sort([I)V'
p14
I82
sS'com/google/javascript/jscomp/regex/CharRanges.withRanges([I)Lcom/google/javascript/jscomp/regex/CharRanges;'
p15
I37
sS'com/google/javascript/jscomp/regex/CharRanges.withMembers([I)Lcom/google/javascript/jscomp/regex/CharRanges;'
p16
I82
s.