(dp0
S'com/google/javascript/jscomp/VariableVisibilityAnalysis$VariableVisibility.values()[Lcom/google/javascript/jscomp/VariableVisibilityAnalysis$VariableVisibility;:com/google/javascript/jscomp/VariableVisibilityAnalysis$VariableVisibility.<init>(Ljava/lang/String;I)V'
p1
I4
sS'com/google/javascript/jscomp/SideEffectsAnalysis$LocationAbstractionMode.values()[Lcom/google/javascript/jscomp/SideEffectsAnalysis$LocationAbstractionMode;:com/google/javascript/jscomp/SideEffectsAnalysis$LocationAbstractionMode.<init>(Ljava/lang/String;I)V'
p2
I2
sS'com/google/javascript/jscomp/VariableVisibilityAnalysis$VariableVisibility.values()[Lcom/google/javascript/jscomp/VariableVisibilityAnalysis$VariableVisibility;:com/google/javascript/jscomp/VariableVisibilityAnalysis$VariableVisibility.<init>(Ljava/lang/String;I)V:java/lang/Enum.<init>(Ljava/lang/String;I)V'
p3
I4
sS'com/google/javascript/jscomp/VariableVisibilityAnalysis$VariableVisibility.ordinal()I'
p4
I4
sS'com/google/javascript/jscomp/SideEffectsAnalysis$LocationAbstractionMode.ordinal()I'
p5
I2
sS'com/google/javascript/jscomp/SideEffectsAnalysis$LocationAbstractionMode.values()[Lcom/google/javascript/jscomp/SideEffectsAnalysis$LocationAbstractionMode;'
p6
I1
sS'com/google/javascript/jscomp/VariableVisibilityAnalysis$VariableVisibility.values()[Lcom/google/javascript/jscomp/VariableVisibilityAnalysis$VariableVisibility;:[Lcom/google/javascript/jscomp/VariableVisibilityAnalysis$VariableVisibility;.clone()Ljava/lang/Object;'
p7
I1
sS'com/google/javascript/jscomp/SideEffectsAnalysis$LocationAbstractionMode.values()[Lcom/google/javascript/jscomp/SideEffectsAnalysis$LocationAbstractionMode;:[Lcom/google/javascript/jscomp/SideEffectsAnalysis$LocationAbstractionMode;.clone()Ljava/lang/Object;'
p8
I1
sS'com/google/javascript/jscomp/SideEffectsAnalysis$LocationAbstractionMode.values()[Lcom/google/javascript/jscomp/SideEffectsAnalysis$LocationAbstractionMode;:com/google/javascript/jscomp/SideEffectsAnalysis$LocationAbstractionMode.<init>(Ljava/lang/String;I)V:java/lang/Enum.<init>(Ljava/lang/String;I)V'
p9
I2
sS'com/google/javascript/jscomp/VariableVisibilityAnalysis$VariableVisibility.values()[Lcom/google/javascript/jscomp/VariableVisibilityAnalysis$VariableVisibility;'
p10
I1
s.