(dp0
S'com/google/javascript/jscomp/SideEffectsAnalysis$DegenerateLocationAbstraction$DegenerateEffectLocation.<init>(Lcom/google/javascript/jscomp/SideEffectsAnalysis$1;)V:com/google/javascript/jscomp/SideEffectsAnalysis$DegenerateLocationAbstraction$DegenerateEffectLocation.<init>()V'
p1
I2
sS'com/google/javascript/jscomp/SideEffectsAnalysis$DegenerateLocationAbstraction$DegenerateEffectLocation.<init>(Lcom/google/javascript/jscomp/SideEffectsAnalysis$1;)V'
p2
I2
sS'com/google/javascript/jscomp/SideEffectsAnalysis$DegenerateLocationAbstraction$DegenerateEffectLocation.<init>(Lcom/google/javascript/jscomp/SideEffectsAnalysis$1;)V:com/google/javascript/jscomp/SideEffectsAnalysis$DegenerateLocationAbstraction$DegenerateEffectLocation.<init>()V:java/lang/Object.<init>()V'
p3
I2
s.