(dp0
S'com/google/javascript/jscomp/SourceExcerptProvider$SourceExcerpt$1.<init>(Ljava/lang/String;I)V:com/google/javascript/jscomp/SourceExcerptProvider$SourceExcerpt.<init>(Ljava/lang/String;ILcom/google/javascript/jscomp/SourceExcerptProvider$1;)V'
p1
I1
sS'com/google/javascript/jscomp/SourceExcerptProvider$SourceExcerpt$2.<init>(Ljava/lang/String;I)V:com/google/javascript/jscomp/SourceExcerptProvider$SourceExcerpt.<init>(Ljava/lang/String;ILcom/google/javascript/jscomp/SourceExcerptProvider$1;)V'
p2
I1
sS'com/google/javascript/jscomp/SourceExcerptProvider$SourceExcerpt$2.<init>(Ljava/lang/String;I)V:com/google/javascript/jscomp/SourceExcerptProvider$SourceExcerpt.<init>(Ljava/lang/String;ILcom/google/javascript/jscomp/SourceExcerptProvider$1;)V:com/google/javascript/jscomp/SourceExcerptProvider$SourceExcerpt.<init>(Ljava/lang/String;I)V'
p3
I1
sS'com/google/javascript/jscomp/SourceExcerptProvider$SourceExcerpt$2.<init>(Ljava/lang/String;I)V:com/google/javascript/jscomp/SourceExcerptProvider$SourceExcerpt.<init>(Ljava/lang/String;ILcom/google/javascript/jscomp/SourceExcerptProvider$1;)V:com/google/javascript/jscomp/SourceExcerptProvider$SourceExcerpt.<init>(Ljava/lang/String;I)V:java/lang/Enum.<init>(Ljava/lang/String;I)V'
p4
I1
sS'com/google/javascript/jscomp/SourceExcerptProvider$SourceExcerpt$1.<init>(Ljava/lang/String;I)V:com/google/javascript/jscomp/SourceExcerptProvider$SourceExcerpt.<init>(Ljava/lang/String;ILcom/google/javascript/jscomp/SourceExcerptProvider$1;)V:com/google/javascript/jscomp/SourceExcerptProvider$SourceExcerpt.<init>(Ljava/lang/String;I)V:java/lang/Enum.<init>(Ljava/lang/String;I)V'
p5
I1
sS'com/google/javascript/jscomp/SourceExcerptProvider$SourceExcerpt$1.<init>(Ljava/lang/String;I)V'
p6
I1
sS'com/google/javascript/jscomp/SourceExcerptProvider$SourceExcerpt$2.<init>(Ljava/lang/String;I)V'
p7
I1
sS'com/google/javascript/jscomp/SourceExcerptProvider$SourceExcerpt$1.<init>(Ljava/lang/String;I)V:com/google/javascript/jscomp/SourceExcerptProvider$SourceExcerpt.<init>(Ljava/lang/String;ILcom/google/javascript/jscomp/SourceExcerptProvider$1;)V:com/google/javascript/jscomp/SourceExcerptProvider$SourceExcerpt.<init>(Ljava/lang/String;I)V'
p8
I1
s.