(dp0
S'com/google/javascript/jscomp/SourceFile.builder()Lcom/google/javascript/jscomp/SourceFile$Builder;'
p1
I20
sS'com/google/javascript/jscomp/SourceFile$Builder.buildFromCode(Ljava/lang/String;Ljava/lang/String;)Lcom/google/javascript/jscomp/SourceFile;:com/google/javascript/jscomp/SourceFile$Preloaded.<init>(Ljava/lang/String;Ljava/lang/String;Ljava/lang/String;)V:com/google/javascript/jscomp/SourceFile.access$000(Lcom/google/javascript/jscomp/SourceFile;Ljava/lang/String;)V:com/google/javascript/jscomp/SourceFile.setCode(Ljava/lang/String;)V'
p2
I20
sS'com/google/javascript/jscomp/SourceFile.builder()Lcom/google/javascript/jscomp/SourceFile$Builder;:com/google/javascript/jscomp/SourceFile$Builder.<init>()V'
p3
I20
sS'com/google/javascript/jscomp/SourceFile.builder()Lcom/google/javascript/jscomp/SourceFile$Builder;:com/google/javascript/jscomp/SourceFile$Builder.<init>()V:java/lang/Object.<init>()V'
p4
I20
sS'com/google/javascript/jscomp/SourceFile$Builder.buildFromCode(Ljava/lang/String;Ljava/lang/String;)Lcom/google/javascript/jscomp/SourceFile;:com/google/javascript/jscomp/SourceFile$Preloaded.<init>(Ljava/lang/String;Ljava/lang/String;Ljava/lang/String;)V:com/google/javascript/jscomp/SourceFile.<init>(Ljava/lang/String;)V'
p5
I20
sS'com/google/javascript/jscomp/SourceFile$Builder.buildFromCode(Ljava/lang/String;Ljava/lang/String;)Lcom/google/javascript/jscomp/SourceFile;:com/google/javascript/jscomp/SourceFile$Preloaded.<init>(Ljava/lang/String;Ljava/lang/String;Ljava/lang/String;)V:com/google/javascript/jscomp/SourceFile.<init>(Ljava/lang/String;)V:java/lang/String.isEmpty()Z'
p6
I20
sS'com/google/javascript/jscomp/SourceFile$Builder.buildFromCode(Ljava/lang/String;Ljava/lang/String;)Lcom/google/javascript/jscomp/SourceFile;:com/google/javascript/jscomp/SourceFile$Preloaded.<init>(Ljava/lang/String;Ljava/lang/String;Ljava/lang/String;)V'
p7
I20
sS'com/google/javascript/jscomp/SourceFile$Builder.buildFromCode(Ljava/lang/String;Ljava/lang/String;)Lcom/google/javascript/jscomp/SourceFile;'
p8
I20
sS'com/google/javascript/jscomp/CompilerOptions$LanguageMode.<init>(Ljava/lang/String;I)V'
p9
I7
sS'com/google/javascript/jscomp/SourceFile$Builder.buildFromCode(Ljava/lang/String;Ljava/lang/String;)Lcom/google/javascript/jscomp/SourceFile;:com/google/javascript/jscomp/SourceFile$Preloaded.<init>(Ljava/lang/String;Ljava/lang/String;Ljava/lang/String;)V:com/google/javascript/jscomp/SourceFile.<init>(Ljava/lang/String;)V:java/lang/Object.<init>()V'
p10
I20
sS'com/google/javascript/jscomp/SourceFile$Builder.buildFromCode(Ljava/lang/String;Ljava/lang/String;)Lcom/google/javascript/jscomp/SourceFile;:com/google/javascript/jscomp/SourceFile$Preloaded.<init>(Ljava/lang/String;Ljava/lang/String;Ljava/lang/String;)V:com/google/javascript/jscomp/SourceFile.access$000(Lcom/google/javascript/jscomp/SourceFile;Ljava/lang/String;)V'
p11
I20
sS'com/google/javascript/jscomp/CompilerOptions$LanguageMode.<init>(Ljava/lang/String;I)V:java/lang/Enum.<init>(Ljava/lang/String;I)V'
p12
I7
sS'com/google/javascript/jscomp/SourceFile$Builder.buildFromCode(Ljava/lang/String;Ljava/lang/String;)Lcom/google/javascript/jscomp/SourceFile;:com/google/javascript/jscomp/SourceFile$Preloaded.<init>(Ljava/lang/String;Ljava/lang/String;Ljava/lang/String;)V:com/google/javascript/jscomp/SourceFile.setOriginalPath(Ljava/lang/String;)V'
p13
I20
s.