(dp0
S'java/util/logging/Logger.getLogger(Ljava/lang/String;)Ljava/util/logging/Logger;'
p1
I1
sS'com/google/javascript/jscomp/Tracer$Stat.<init>()V:java/lang/Object.<init>()V'
p2
I1
sS'java/lang/Class.getName()Ljava/lang/String;'
p3
I1
sS'com/google/javascript/jscomp/Tracer$Stat.<init>()V'
p4
I1
sS'java/util/concurrent/CopyOnWriteArrayList.<init>()V'
p5
I1
sS'com/google/javascript/jscomp/Tracer$1.<init>()V'
p6
I1
sS'java/lang/ThreadLocal.<init>()V'
p7
I1
sS'com/google/javascript/jscomp/Tracer$1.<init>()V:java/lang/Object.<init>()V'
p8
I1
s.