(dp0
S'com/google/javascript/jscomp/CheckPathsBetweenNodes$2.<init>()V:java/lang/Object.<init>()V'
p1
I1
sS'com/google/javascript/jscomp/CheckPathsBetweenNodes$3.<init>()V:java/lang/Object.<init>()V'
p2
I1
sS'com/google/javascript/jscomp/CheckPathsBetweenNodes$3.<init>()V'
p3
I1
sS'com/google/javascript/jscomp/CheckPathsBetweenNodes$2.<init>()V'
p4
I1
sS'com/google/javascript/jscomp/CheckPathsBetweenNodes$1.<init>()V'
p5
I1
sS'com/google/javascript/jscomp/CheckPathsBetweenNodes$4.<init>()V:java/lang/Object.<init>()V'
p6
I1
sS'com/google/javascript/jscomp/CheckPathsBetweenNodes$1.<init>()V:java/lang/Object.<init>()V'
p7
I1
sS'com/google/javascript/jscomp/CheckPathsBetweenNodes$4.<init>()V'
p8
I1
s.