(dp0
S'com/google/javascript/jscomp/parsing/TypeTransformationParser$OperationKind.ordinal()I'
p1
I5
sS'com/google/javascript/jscomp/parsing/TypeTransformationParser$Keywords.values()[Lcom/google/javascript/jscomp/parsing/TypeTransformationParser$Keywords;:com/google/javascript/jscomp/parsing/TypeTransformationParser$OperationKind.<init>(Ljava/lang/String;I)V'
p2
I5
sS'com/google/javascript/jscomp/parsing/TypeTransformationParser$Keywords.values()[Lcom/google/javascript/jscomp/parsing/TypeTransformationParser$Keywords;:com/google/javascript/jscomp/parsing/TypeTransformationParser$OperationKind.<init>(Ljava/lang/String;I)V:java/lang/Enum.<init>(Ljava/lang/String;I)V'
p3
I5
sS'com/google/javascript/jscomp/parsing/TypeTransformationParser$OperationKind.values()[Lcom/google/javascript/jscomp/parsing/TypeTransformationParser$OperationKind;:[Lcom/google/javascript/jscomp/parsing/TypeTransformationParser$OperationKind;.clone()Ljava/lang/Object;'
p4
I1
sS'com/google/javascript/jscomp/parsing/TypeTransformationParser$Keywords.values()[Lcom/google/javascript/jscomp/parsing/TypeTransformationParser$Keywords;'
p5
I1
sS'com/google/javascript/jscomp/parsing/TypeTransformationParser$Keywords.ordinal()I'
p6
I24
sS'com/google/javascript/jscomp/parsing/TypeTransformationParser$Keywords.values()[Lcom/google/javascript/jscomp/parsing/TypeTransformationParser$Keywords;:[Lcom/google/javascript/jscomp/parsing/TypeTransformationParser$Keywords;.clone()Ljava/lang/Object;'
p7
I1
sS'com/google/javascript/jscomp/parsing/TypeTransformationParser$Keywords.values()[Lcom/google/javascript/jscomp/parsing/TypeTransformationParser$Keywords;:com/google/javascript/jscomp/parsing/TypeTransformationParser$Keywords.<init>(Ljava/lang/String;ILjava/lang/String;IILcom/google/javascript/jscomp/parsing/TypeTransformationParser$OperationKind;)V'
p8
I24
sS'com/google/javascript/jscomp/parsing/TypeTransformationParser$OperationKind.values()[Lcom/google/javascript/jscomp/parsing/TypeTransformationParser$OperationKind;'
p9
I1
sS'com/google/javascript/jscomp/parsing/TypeTransformationParser$Keywords.values()[Lcom/google/javascript/jscomp/parsing/TypeTransformationParser$Keywords;:com/google/javascript/jscomp/parsing/TypeTransformationParser$Keywords.<init>(Ljava/lang/String;ILjava/lang/String;IILcom/google/javascript/jscomp/parsing/TypeTransformationParser$OperationKind;)V:java/lang/Enum.<init>(Ljava/lang/String;I)V'
p10
I24
s.