(dp0
S'com/google/javascript/jscomp/WarningLevel.ordinal()I'
p1
I3
sS'com/google/javascript/jscomp/WarningLevel.values()[Lcom/google/javascript/jscomp/WarningLevel;'
p2
I1
sS'com/google/javascript/jscomp/WarningLevel.values()[Lcom/google/javascript/jscomp/WarningLevel;:[Lcom/google/javascript/jscomp/WarningLevel;.clone()Ljava/lang/Object;'
p3
I1
sS'com/google/javascript/jscomp/WarningLevel.values()[Lcom/google/javascript/jscomp/WarningLevel;:com/google/javascript/jscomp/WarningLevel.<init>(Ljava/lang/String;I)V:java/lang/Enum.<init>(Ljava/lang/String;I)V'
p4
I3
sS'com/google/javascript/jscomp/WarningLevel.values()[Lcom/google/javascript/jscomp/WarningLevel;:com/google/javascript/jscomp/WarningLevel.<init>(Ljava/lang/String;I)V'
p5
I3
s.