(dp0
S'com/google/javascript/jscomp/XtbMessageBundle$SecureEntityResolver.<init>(Lcom/google/javascript/jscomp/XtbMessageBundle$1;)V'
p1
I1
sS'com/google/common/base/Preconditions.checkState(Z)V'
p2
I1
sS'java/lang/String.equals(Ljava/lang/Object;)Z'
p3
I1
sS'com/google/javascript/jscomp/XtbMessageBundle$SecureEntityResolver.<init>(Lcom/google/javascript/jscomp/XtbMessageBundle$1;)V:com/google/javascript/jscomp/XtbMessageBundle$SecureEntityResolver.<init>()V:java/lang/Object.<init>()V'
p4
I1
sS'java/lang/Object.<init>()V'
p5
I1
sS'com/google/javascript/jscomp/XtbMessageBundle$SecureEntityResolver.<init>(Lcom/google/javascript/jscomp/XtbMessageBundle$1;)V:com/google/javascript/jscomp/XtbMessageBundle$SecureEntityResolver.<init>()V'
p6
I1
s.