(dp0
S'com/google/javascript/rhino/jstype/JSType$1.<init>()V:java/lang/Object.<init>()V'
p1
I1
sS'com/google/javascript/rhino/jstype/CanCastToVisitor.<init>()V'
p2
I1
sS'com/google/javascript/rhino/jstype/CanCastToVisitor.<init>()V:java/lang/Object.<init>()V'
p3
I1
sS'com/google/javascript/rhino/jstype/JSType$1.<init>()V'
p4
I1
s.