(dp0
S'com/google/javascript/jscomp/CodeGenerator$Context.<init>(Ljava/lang/String;I)V:java/lang/Enum.<init>(Ljava/lang/String;I)V'
p1
I6
sS'com/google/javascript/jscomp/CodeGenerator$Context.<init>(Ljava/lang/String;I)V'
p2
I6
s.