(dp0
S'com/google/javascript/jscomp/AbstractCompiler$ConfigContext.values()[Lcom/google/javascript/jscomp/AbstractCompiler$ConfigContext;:com/google/javascript/jscomp/AbstractCompiler$ConfigContext.<init>(Ljava/lang/String;I)V:java/lang/Enum.<init>(Ljava/lang/String;I)V'
p1
I2
sS'com/google/javascript/jscomp/CompilerOptions$LanguageMode.values()[Lcom/google/javascript/jscomp/CompilerOptions$LanguageMode;:com/google/javascript/jscomp/CompilerOptions$LanguageMode.<init>(Ljava/lang/String;I)V'
p2
I7
sS'com/google/javascript/jscomp/CompilerOptions$LanguageMode.ordinal()I'
p3
I6
sS'com/google/javascript/jscomp/CompilerOptions$LanguageMode.values()[Lcom/google/javascript/jscomp/CompilerOptions$LanguageMode;:[Lcom/google/javascript/jscomp/CompilerOptions$LanguageMode;.clone()Ljava/lang/Object;'
p4
I1
sS'com/google/javascript/jscomp/CompilerOptions$LanguageMode.values()[Lcom/google/javascript/jscomp/CompilerOptions$LanguageMode;:com/google/javascript/jscomp/CompilerOptions$LanguageMode.<init>(Ljava/lang/String;I)V:java/lang/Enum.<init>(Ljava/lang/String;I)V'
p5
I7
sS'com/google/javascript/jscomp/CompilerOptions$LanguageMode.values()[Lcom/google/javascript/jscomp/CompilerOptions$LanguageMode;'
p6
I1
sS'com/google/javascript/jscomp/AbstractCompiler$ConfigContext.values()[Lcom/google/javascript/jscomp/AbstractCompiler$ConfigContext;'
p7
I1
sS'com/google/javascript/jscomp/AbstractCompiler$ConfigContext.ordinal()I'
p8
I1
sS'com/google/javascript/jscomp/AbstractCompiler$ConfigContext.values()[Lcom/google/javascript/jscomp/AbstractCompiler$ConfigContext;:com/google/javascript/jscomp/AbstractCompiler$ConfigContext.<init>(Ljava/lang/String;I)V'
p9
I2
sS'com/google/javascript/jscomp/AbstractCompiler$ConfigContext.values()[Lcom/google/javascript/jscomp/AbstractCompiler$ConfigContext;:[Lcom/google/javascript/jscomp/AbstractCompiler$ConfigContext;.clone()Ljava/lang/Object;'
p10
I1
s.