(dp0
S'com/google/javascript/jscomp/CompilerOptions$LanguageMode.<init>(Ljava/lang/String;I)V'
p1
I7
sS'com/google/javascript/jscomp/CompilerOptions$LanguageMode.<init>(Ljava/lang/String;I)V:java/lang/Enum.<init>(Ljava/lang/String;I)V'
p2
I7
s.