(dp0
S'com/google/javascript/jscomp/CompilerOptions$ExtractPrototypeMemberDeclarationsMode.values()[Lcom/google/javascript/jscomp/CompilerOptions$ExtractPrototypeMemberDeclarationsMode;:com/google/javascript/jscomp/CompilerOptions$ExtractPrototypeMemberDeclarationsMode.<init>(Ljava/lang/String;I)V:java/lang/Enum.<init>(Ljava/lang/String;I)V'
p1
I3
sS'com/google/javascript/jscomp/CompilerOptions$ExtractPrototypeMemberDeclarationsMode.values()[Lcom/google/javascript/jscomp/CompilerOptions$ExtractPrototypeMemberDeclarationsMode;'
p2
I1
sS'com/google/javascript/jscomp/CompilerOptions$ExtractPrototypeMemberDeclarationsMode.ordinal()I'
p3
I2
sS'com/google/javascript/jscomp/PropertyRenamingPolicy.values()[Lcom/google/javascript/jscomp/PropertyRenamingPolicy;:[Lcom/google/javascript/jscomp/PropertyRenamingPolicy;.clone()Ljava/lang/Object;'
p4
I1
sS'com/google/javascript/jscomp/PropertyRenamingPolicy.values()[Lcom/google/javascript/jscomp/PropertyRenamingPolicy;:com/google/javascript/jscomp/PropertyRenamingPolicy.<init>(Ljava/lang/String;I)V'
p5
I5
sS'com/google/javascript/jscomp/PropertyRenamingPolicy.values()[Lcom/google/javascript/jscomp/PropertyRenamingPolicy;:com/google/javascript/jscomp/PropertyRenamingPolicy.<init>(Ljava/lang/String;I)V:java/lang/Enum.<init>(Ljava/lang/String;I)V'
p6
I5
sS'com/google/javascript/jscomp/CompilerOptions$ExtractPrototypeMemberDeclarationsMode.values()[Lcom/google/javascript/jscomp/CompilerOptions$ExtractPrototypeMemberDeclarationsMode;:[Lcom/google/javascript/jscomp/CompilerOptions$ExtractPrototypeMemberDeclarationsMode;.clone()Ljava/lang/Object;'
p7
I1
sS'com/google/javascript/jscomp/PropertyRenamingPolicy.values()[Lcom/google/javascript/jscomp/PropertyRenamingPolicy;'
p8
I1
sS'com/google/javascript/jscomp/PropertyRenamingPolicy.ordinal()I'
p9
I3
sS'com/google/javascript/jscomp/CompilerOptions$ExtractPrototypeMemberDeclarationsMode.values()[Lcom/google/javascript/jscomp/CompilerOptions$ExtractPrototypeMemberDeclarationsMode;:com/google/javascript/jscomp/CompilerOptions$ExtractPrototypeMemberDeclarationsMode.<init>(Ljava/lang/String;I)V'
p10
I3
s.