(dp0
S'com/google/javascript/jscomp/AbstractCompiler$ConfigContext.<init>(Ljava/lang/String;I)V:java/lang/Enum.<init>(Ljava/lang/String;I)V'
p1
I2
sS'com/google/javascript/jscomp/AbstractCompiler$ConfigContext.<init>(Ljava/lang/String;I)V'
p2
I2
s.