(dp0
S'com/google/debugging/sourcemap/Base64.toBase64(I)C:java/lang/Class.desiredAssertionStatus()Z'
p1
I1
sS'com/google/debugging/sourcemap/Base64.toBase64(I)C:java/util/Arrays.fill([II)V'
p2
I1
sS'java/lang/Appendable.append(C)Ljava/lang/Appendable;'
p3
I7
sS'com/google/debugging/sourcemap/Base64VLQ.toVLQSigned(I)I'
p4
I5
sS'com/google/debugging/sourcemap/Base64.toBase64(I)C:java/lang/String.length()I'
p5
I65
sS'com/google/debugging/sourcemap/Base64.toBase64(I)C:java/lang/String.charAt(I)C'
p6
I71
sS'com/google/debugging/sourcemap/Base64.toBase64(I)C'
p7
I7
sS'com/google/debugging/sourcemap/Base64.fromBase64(C)I'
p8
I7
sS'com/google/debugging/sourcemap/Base64VLQ$CharIterator.next()C'
p9
I7
sS'com/google/debugging/sourcemap/Base64VLQ.fromVLQSigned(I)I'
p10
I5
s.