(dp0
S'com/google/javascript/jscomp/ErrorFormat$3.<init>(Ljava/lang/String;I)V'
p1
I1
sS'com/google/javascript/jscomp/ErrorFormat.toFormatter(Lcom/google/javascript/jscomp/SourceExcerptProvider;Z)Lcom/google/javascript/jscomp/MessageFormatter;:com/google/javascript/jscomp/LightweightMessageFormatter.withoutSource()Lcom/google/javascript/jscomp/LightweightMessageFormatter;:com/google/common/collect/ImmutableSet.of(Ljava/lang/Object;Ljava/lang/Object;Ljava/lang/Object;Ljava/lang/Object;)Lcom/google/common/collect/ImmutableSet;:com/google/javascript/jscomp/ErrorFormat.toFormatter(Lcom/google/javascript/jscomp/SourceExcerptProvider;Z)Lcom/google/javascript/jscomp/MessageFormatter;:com/google/javascript/jscomp/LightweightMessageFormatter.withoutSource()Lcom/google/javascript/jscomp/LightweightMessageFormatter;:com/google/javascript/jscomp/ErrorFormat.toFormatter(Lcom/google/javascript/jscomp/SourceExcerptProvider;Z)Lcom/google/javascript/jscomp/MessageFormatter;'
p2
I1
sS'com/google/javascript/jscomp/ErrorFormat$4.<init>(Ljava/lang/String;I)V'
p3
I1
sS'com/google/javascript/jscomp/ErrorFormat.toFormatter(Lcom/google/javascript/jscomp/SourceExcerptProvider;Z)Lcom/google/javascript/jscomp/MessageFormatter;:com/google/javascript/jscomp/LightweightMessageFormatter.withoutSource()Lcom/google/javascript/jscomp/LightweightMessageFormatter;:com/google/common/collect/ImmutableSet.of(Ljava/lang/Object;Ljava/lang/Object;Ljava/lang/Object;Ljava/lang/Object;)Lcom/google/common/collect/ImmutableSet;:com/google/javascript/jscomp/ErrorFormat.toFormatter(Lcom/google/javascript/jscomp/SourceExcerptProvider;Z)Lcom/google/javascript/jscomp/MessageFormatter;'
p4
I1
sS'com/google/javascript/jscomp/ErrorFormat.toFormatter(Lcom/google/javascript/jscomp/SourceExcerptProvider;Z)Lcom/google/javascript/jscomp/MessageFormatter;:com/google/javascript/jscomp/LightweightMessageFormatter.withoutSource()Lcom/google/javascript/jscomp/LightweightMessageFormatter;:com/google/common/collect/ImmutableSet.of(Ljava/lang/Object;Ljava/lang/Object;Ljava/lang/Object;Ljava/lang/Object;)Lcom/google/common/collect/ImmutableSet;:com/google/javascript/jscomp/ErrorFormat.toFormatter(Lcom/google/javascript/jscomp/SourceExcerptProvider;Z)Lcom/google/javascript/jscomp/MessageFormatter;:com/google/javascript/jscomp/LightweightMessageFormatter.withoutSource()Lcom/google/javascript/jscomp/LightweightMessageFormatter;:com/google/javascript/jscomp/ErrorFormat.toFormatter(Lcom/google/javascript/jscomp/SourceExcerptProvider;Z)Lcom/google/javascript/jscomp/MessageFormatter;:com/google/javascript/jscomp/LightweightMessageFormatter.withoutSource()Lcom/google/javascript/jscomp/LightweightMessageFormatter;'
p5
I1
sS'com/google/javascript/jscomp/ErrorFormat$3.<init>(Ljava/lang/String;I)V:com/google/javascript/jscomp/ErrorFormat.<init>(Ljava/lang/String;ILcom/google/javascript/jscomp/ErrorFormat$1;)V:com/google/javascript/jscomp/ErrorFormat.<init>(Ljava/lang/String;I)V:java/lang/Enum.<init>(Ljava/lang/String;I)V'
p6
I1
sS'com/google/javascript/jscomp/ErrorFormat$1.<init>(Ljava/lang/String;I)V'
p7
I1
sS'com/google/javascript/jscomp/ErrorFormat.toFormatter(Lcom/google/javascript/jscomp/SourceExcerptProvider;Z)Lcom/google/javascript/jscomp/MessageFormatter;:com/google/javascript/jscomp/LightweightMessageFormatter.withoutSource()Lcom/google/javascript/jscomp/LightweightMessageFormatter;:com/google/common/collect/ImmutableSet.of(Ljava/lang/Object;Ljava/lang/Object;Ljava/lang/Object;Ljava/lang/Object;)Lcom/google/common/collect/ImmutableSet;:com/google/javascript/jscomp/ErrorFormat.toFormatter(Lcom/google/javascript/jscomp/SourceExcerptProvider;Z)Lcom/google/javascript/jscomp/MessageFormatter;:com/google/javascript/jscomp/LightweightMessageFormatter.withoutSource()Lcom/google/javascript/jscomp/LightweightMessageFormatter;:com/google/javascript/jscomp/ErrorFormat.toFormatter(Lcom/google/javascript/jscomp/SourceExcerptProvider;Z)Lcom/google/javascript/jscomp/MessageFormatter;:com/google/javascript/jscomp/LightweightMessageFormatter.withoutSource()Lcom/google/javascript/jscomp/LightweightMessageFormatter;:com/google/javascript/jscomp/ErrorFormat.toFormatter(Lcom/google/javascript/jscomp/SourceExcerptProvider;Z)Lcom/google/javascript/jscomp/MessageFormatter;:com/google/javascript/jscomp/LightweightMessageFormatter.withoutSource()Lcom/google/javascript/jscomp/LightweightMessageFormatter;:com/google/javascript/jscomp/ErrorFormat.toFormatter(Lcom/google/javascript/jscomp/SourceExcerptProvider;Z)Lcom/google/javascript/jscomp/MessageFormatter;:com/google/javascript/jscomp/LightweightMessageFormatter.withoutSource()Lcom/google/javascript/jscomp/LightweightMessageFormatter;:com/google/javascript/jscomp/ErrorFormat.toFormatter(Lcom/google/javascript/jscomp/SourceExcerptProvider;Z)Lcom/google/javascript/jscomp/MessageFormatter;:com/google/javascript/jscomp/LightweightMessageFormatter.withoutSource()Lcom/google/javascript/jscomp/LightweightMessageFormatter;:com/google/javascript/jscomp/ErrorFormat.toFormatter(Lcom/google/javascript/jscomp/SourceExcerptProvider;Z)Lcom/google/javascript/jscomp/MessageFormatter;:com/google/javascript/jscomp/LightweightMessageFormatter.withoutSource()Lcom/google/javascript/jscomp/LightweightMessageFormatter;:com/google/javascript/jscomp/ErrorFormat.toFormatter(Lcom/google/javascript/jscomp/SourceExcerptProvider;Z)Lcom/google/javascript/jscomp/MessageFormatter;:com/google/javascript/jscomp/LightweightMessageFormatter.withoutSource()Lcom/google/javascript/jscomp/LightweightMessageFormatter;:com/google/javascript/jscomp/ErrorFormat.toFormatter(Lcom/google/javascript/jscomp/SourceExcerptProvider;Z)Lcom/google/javascript/jscomp/MessageFormatter;'
p8
I1
sS'com/google/javascript/jscomp/ErrorFormat.toFormatter(Lcom/google/javascript/jscomp/SourceExcerptProvider;Z)Lcom/google/javascript/jscomp/MessageFormatter;:com/google/javascript/jscomp/LightweightMessageFormatter.withoutSource()Lcom/google/javascript/jscomp/LightweightMessageFormatter;:com/google/common/collect/ImmutableSet.of(Ljava/lang/Object;Ljava/lang/Object;Ljava/lang/Object;Ljava/lang/Object;)Lcom/google/common/collect/ImmutableSet;:com/google/javascript/jscomp/ErrorFormat.toFormatter(Lcom/google/javascript/jscomp/SourceExcerptProvider;Z)Lcom/google/javascript/jscomp/MessageFormatter;:com/google/javascript/jscomp/LightweightMessageFormatter.withoutSource()Lcom/google/javascript/jscomp/LightweightMessageFormatter;:com/google/javascript/jscomp/ErrorFormat.toFormatter(Lcom/google/javascript/jscomp/SourceExcerptProvider;Z)Lcom/google/javascript/jscomp/MessageFormatter;:com/google/javascript/jscomp/LightweightMessageFormatter.withoutSource()Lcom/google/javascript/jscomp/LightweightMessageFormatter;:com/google/javascript/jscomp/ErrorFormat.toFormatter(Lcom/google/javascript/jscomp/SourceExcerptProvider;Z)Lcom/google/javascript/jscomp/MessageFormatter;'
p9
I1
sS'com/google/javascript/jscomp/ErrorFormat.toFormatter(Lcom/google/javascript/jscomp/SourceExcerptProvider;Z)Lcom/google/javascript/jscomp/MessageFormatter;:com/google/javascript/jscomp/LightweightMessageFormatter.withoutSource()Lcom/google/javascript/jscomp/LightweightMessageFormatter;:com/google/common/collect/ImmutableSet.of(Ljava/lang/Object;Ljava/lang/Object;Ljava/lang/Object;Ljava/lang/Object;)Lcom/google/common/collect/ImmutableSet;:com/google/javascript/jscomp/ErrorFormat.toFormatter(Lcom/google/javascript/jscomp/SourceExcerptProvider;Z)Lcom/google/javascript/jscomp/MessageFormatter;:com/google/javascript/jscomp/LightweightMessageFormatter.withoutSource()Lcom/google/javascript/jscomp/LightweightMessageFormatter;:com/google/javascript/jscomp/ErrorFormat.toFormatter(Lcom/google/javascript/jscomp/SourceExcerptProvider;Z)Lcom/google/javascript/jscomp/MessageFormatter;:com/google/javascript/jscomp/LightweightMessageFormatter.withoutSource()Lcom/google/javascript/jscomp/LightweightMessageFormatter;:com/google/javascript/jscomp/ErrorFormat.toFormatter(Lcom/google/javascript/jscomp/SourceExcerptProvider;Z)Lcom/google/javascript/jscomp/MessageFormatter;:com/google/javascript/jscomp/LightweightMessageFormatter.withoutSource()Lcom/google/javascript/jscomp/LightweightMessageFormatter;:com/google/javascript/jscomp/ErrorFormat.toFormatter(Lcom/google/javascript/jscomp/SourceExcerptProvider;Z)Lcom/google/javascript/jscomp/MessageFormatter;:com/google/javascript/jscomp/LightweightMessageFormatter.withoutSource()Lcom/google/javascript/jscomp/LightweightMessageFormatter;:com/google/javascript/jscomp/ErrorFormat.toFormatter(Lcom/google/javascript/jscomp/SourceExcerptProvider;Z)Lcom/google/javascript/jscomp/MessageFormatter;:com/google/javascript/jscomp/LightweightMessageFormatter.withoutSource()Lcom/google/javascript/jscomp/LightweightMessageFormatter;:com/google/javascript/jscomp/ErrorFormat.toFormatter(Lcom/google/javascript/jscomp/SourceExcerptProvider;Z)Lcom/google/javascript/jscomp/MessageFormatter;:com/google/javascript/jscomp/LightweightMessageFormatter.withoutSource()Lcom/google/javascript/jscomp/LightweightMessageFormatter;:com/google/javascript/jscomp/ErrorFormat.toFormatter(Lcom/google/javascript/jscomp/SourceExcerptProvider;Z)Lcom/google/javascript/jscomp/MessageFormatter;:com/google/javascript/jscomp/LightweightMessageFormatter.withoutSource()Lcom/google/javascript/jscomp/LightweightMessageFormatter;:com/google/javascript/jscomp/ErrorFormat.toFormatter(Lcom/google/javascript/jscomp/SourceExcerptProvider;Z)Lcom/google/javascript/jscomp/MessageFormatter;:com/google/javascript/jscomp/LightweightMessageFormatter.withoutSource()Lcom/google/javascript/jscomp/LightweightMessageFormatter;:com/google/javascript/jscomp/ErrorFormat.toFormatter(Lcom/google/javascript/jscomp/SourceExcerptProvider;Z)Lcom/google/javascript/jscomp/MessageFormatter;:com/google/javascript/jscomp/LightweightMessageFormatter.withoutSource()Lcom/google/javascript/jscomp/LightweightMessageFormatter;'
p10
I1
sS'com/google/javascript/jscomp/ErrorFormat.toFormatter(Lcom/google/javascript/jscomp/SourceExcerptProvider;Z)Lcom/google/javascript/jscomp/MessageFormatter;:com/google/javascript/jscomp/LightweightMessageFormatter.withoutSource()Lcom/google/javascript/jscomp/LightweightMessageFormatter;:com/google/common/collect/ImmutableSet.of(Ljava/lang/Object;Ljava/lang/Object;Ljava/lang/Object;Ljava/lang/Object;)Lcom/google/common/collect/ImmutableSet;:com/google/javascript/jscomp/ErrorFormat.toFormatter(Lcom/google/javascript/jscomp/SourceExcerptProvider;Z)Lcom/google/javascript/jscomp/MessageFormatter;:com/google/javascript/jscomp/LightweightMessageFormatter.withoutSource()Lcom/google/javascript/jscomp/LightweightMessageFormatter;:com/google/javascript/jscomp/ErrorFormat.toFormatter(Lcom/google/javascript/jscomp/SourceExcerptProvider;Z)Lcom/google/javascript/jscomp/MessageFormatter;:com/google/javascript/jscomp/LightweightMessageFormatter.withoutSource()Lcom/google/javascript/jscomp/LightweightMessageFormatter;:com/google/javascript/jscomp/ErrorFormat.toFormatter(Lcom/google/javascript/jscomp/SourceExcerptProvider;Z)Lcom/google/javascript/jscomp/MessageFormatter;:com/google/javascript/jscomp/LightweightMessageFormatter.withoutSource()Lcom/google/javascript/jscomp/LightweightMessageFormatter;:com/google/javascript/jscomp/ErrorFormat.toFormatter(Lcom/google/javascript/jscomp/SourceExcerptProvider;Z)Lcom/google/javascript/jscomp/MessageFormatter;:com/google/javascript/jscomp/LightweightMessageFormatter.withoutSource()Lcom/google/javascript/jscomp/LightweightMessageFormatter;:com/google/javascript/jscomp/ErrorFormat.toFormatter(Lcom/google/javascript/jscomp/SourceExcerptProvider;Z)Lcom/google/javascript/jscomp/MessageFormatter;:com/google/javascript/jscomp/LightweightMessageFormatter.withoutSource()Lcom/google/javascript/jscomp/LightweightMessageFormatter;:com/google/javascript/jscomp/ErrorFormat.toFormatter(Lcom/google/javascript/jscomp/SourceExcerptProvider;Z)Lcom/google/javascript/jscomp/MessageFormatter;:com/google/javascript/jscomp/LightweightMessageFormatter.withoutSource()Lcom/google/javascript/jscomp/LightweightMessageFormatter;'
p11
I1
sS'com/google/javascript/jscomp/ErrorFormat$2.<init>(Ljava/lang/String;I)V:com/google/javascript/jscomp/ErrorFormat.<init>(Ljava/lang/String;ILcom/google/javascript/jscomp/ErrorFormat$1;)V:com/google/javascript/jscomp/ErrorFormat.<init>(Ljava/lang/String;I)V:java/lang/Enum.<init>(Ljava/lang/String;I)V'
p12
I1
sS'com/google/javascript/jscomp/ErrorFormat.toFormatter(Lcom/google/javascript/jscomp/SourceExcerptProvider;Z)Lcom/google/javascript/jscomp/MessageFormatter;:com/google/javascript/jscomp/LightweightMessageFormatter.withoutSource()Lcom/google/javascript/jscomp/LightweightMessageFormatter;:com/google/common/collect/ImmutableSet.of(Ljava/lang/Object;Ljava/lang/Object;Ljava/lang/Object;Ljava/lang/Object;)Lcom/google/common/collect/ImmutableSet;:com/google/javascript/jscomp/ErrorFormat.toFormatter(Lcom/google/javascript/jscomp/SourceExcerptProvider;Z)Lcom/google/javascript/jscomp/MessageFormatter;:com/google/javascript/jscomp/LightweightMessageFormatter.withoutSource()Lcom/google/javascript/jscomp/LightweightMessageFormatter;:com/google/javascript/jscomp/ErrorFormat.toFormatter(Lcom/google/javascript/jscomp/SourceExcerptProvider;Z)Lcom/google/javascript/jscomp/MessageFormatter;:com/google/javascript/jscomp/LightweightMessageFormatter.withoutSource()Lcom/google/javascript/jscomp/LightweightMessageFormatter;:com/google/javascript/jscomp/ErrorFormat.toFormatter(Lcom/google/javascript/jscomp/SourceExcerptProvider;Z)Lcom/google/javascript/jscomp/MessageFormatter;:com/google/javascript/jscomp/LightweightMessageFormatter.withoutSource()Lcom/google/javascript/jscomp/LightweightMessageFormatter;:com/google/javascript/jscomp/ErrorFormat.toFormatter(Lcom/google/javascript/jscomp/SourceExcerptProvider;Z)Lcom/google/javascript/jscomp/MessageFormatter;:com/google/javascript/jscomp/LightweightMessageFormatter.withoutSource()Lcom/google/javascript/jscomp/LightweightMessageFormatter;:com/google/javascript/jscomp/ErrorFormat.toFormatter(Lcom/google/javascript/jscomp/SourceExcerptProvider;Z)Lcom/google/javascript/jscomp/MessageFormatter;'
p13
I1
sS'com/google/javascript/jscomp/ErrorFormat.toFormatter(Lcom/google/javascript/jscomp/SourceExcerptProvider;Z)Lcom/google/javascript/jscomp/MessageFormatter;:com/google/javascript/jscomp/LightweightMessageFormatter.withoutSource()Lcom/google/javascript/jscomp/LightweightMessageFormatter;:com/google/common/collect/ImmutableSet.of(Ljava/lang/Object;Ljava/lang/Object;Ljava/lang/Object;Ljava/lang/Object;)Lcom/google/common/collect/ImmutableSet;:com/google/javascript/jscomp/ErrorFormat.toFormatter(Lcom/google/javascript/jscomp/SourceExcerptProvider;Z)Lcom/google/javascript/jscomp/MessageFormatter;:com/google/javascript/jscomp/LightweightMessageFormatter.withoutSource()Lcom/google/javascript/jscomp/LightweightMessageFormatter;:com/google/javascript/jscomp/ErrorFormat.toFormatter(Lcom/google/javascript/jscomp/SourceExcerptProvider;Z)Lcom/google/javascript/jscomp/MessageFormatter;:com/google/javascript/jscomp/LightweightMessageFormatter.withoutSource()Lcom/google/javascript/jscomp/LightweightMessageFormatter;:com/google/javascript/jscomp/ErrorFormat.toFormatter(Lcom/google/javascript/jscomp/SourceExcerptProvider;Z)Lcom/google/javascript/jscomp/MessageFormatter;:com/google/javascript/jscomp/LightweightMessageFormatter.withoutSource()Lcom/google/javascript/jscomp/LightweightMessageFormatter;:com/google/javascript/jscomp/ErrorFormat.toFormatter(Lcom/google/javascript/jscomp/SourceExcerptProvider;Z)Lcom/google/javascript/jscomp/MessageFormatter;:com/google/javascript/jscomp/LightweightMessageFormatter.withoutSource()Lcom/google/javascript/jscomp/LightweightMessageFormatter;:com/google/javascript/jscomp/ErrorFormat.toFormatter(Lcom/google/javascript/jscomp/SourceExcerptProvider;Z)Lcom/google/javascript/jscomp/MessageFormatter;:com/google/javascript/jscomp/LightweightMessageFormatter.withoutSource()Lcom/google/javascript/jscomp/LightweightMessageFormatter;:com/google/javascript/jscomp/ErrorFormat.toFormatter(Lcom/google/javascript/jscomp/SourceExcerptProvider;Z)Lcom/google/javascript/jscomp/MessageFormatter;:com/google/javascript/jscomp/LightweightMessageFormatter.withoutSource()Lcom/google/javascript/jscomp/LightweightMessageFormatter;:com/google/javascript/jscomp/ErrorFormat.toFormatter(Lcom/google/javascript/jscomp/SourceExcerptProvider;Z)Lcom/google/javascript/jscomp/MessageFormatter;:com/google/javascript/jscomp/LightweightMessageFormatter.withoutSource()Lcom/google/javascript/jscomp/LightweightMessageFormatter;'
p14
I1
sS'com/google/javascript/jscomp/ErrorFormat$1.<init>(Ljava/lang/String;I)V:com/google/javascript/jscomp/ErrorFormat.<init>(Ljava/lang/String;ILcom/google/javascript/jscomp/ErrorFormat$1;)V:com/google/javascript/jscomp/ErrorFormat.<init>(Ljava/lang/String;I)V:java/lang/Enum.<init>(Ljava/lang/String;I)V'
p15
I1
sS'com/google/javascript/jscomp/ErrorFormat.toFormatter(Lcom/google/javascript/jscomp/SourceExcerptProvider;Z)Lcom/google/javascript/jscomp/MessageFormatter;:com/google/javascript/jscomp/LightweightMessageFormatter.withoutSource()Lcom/google/javascript/jscomp/LightweightMessageFormatter;:com/google/common/collect/ImmutableSet.of(Ljava/lang/Object;Ljava/lang/Object;Ljava/lang/Object;Ljava/lang/Object;)Lcom/google/common/collect/ImmutableSet;:com/google/javascript/jscomp/ErrorFormat.toFormatter(Lcom/google/javascript/jscomp/SourceExcerptProvider;Z)Lcom/google/javascript/jscomp/MessageFormatter;:com/google/javascript/jscomp/LightweightMessageFormatter.withoutSource()Lcom/google/javascript/jscomp/LightweightMessageFormatter;:com/google/javascript/jscomp/ErrorFormat.toFormatter(Lcom/google/javascript/jscomp/SourceExcerptProvider;Z)Lcom/google/javascript/jscomp/MessageFormatter;:com/google/javascript/jscomp/LightweightMessageFormatter.withoutSource()Lcom/google/javascript/jscomp/LightweightMessageFormatter;:com/google/javascript/jscomp/ErrorFormat.toFormatter(Lcom/google/javascript/jscomp/SourceExcerptProvider;Z)Lcom/google/javascript/jscomp/MessageFormatter;:com/google/javascript/jscomp/LightweightMessageFormatter.withoutSource()Lcom/google/javascript/jscomp/LightweightMessageFormatter;:com/google/javascript/jscomp/ErrorFormat.toFormatter(Lcom/google/javascript/jscomp/SourceExcerptProvider;Z)Lcom/google/javascript/jscomp/MessageFormatter;:com/google/javascript/jscomp/LightweightMessageFormatter.withoutSource()Lcom/google/javascript/jscomp/LightweightMessageFormatter;:com/google/javascript/jscomp/ErrorFormat.toFormatter(Lcom/google/javascript/jscomp/SourceExcerptProvider;Z)Lcom/google/javascript/jscomp/MessageFormatter;:com/google/javascript/jscomp/LightweightMessageFormatter.withoutSource()Lcom/google/javascript/jscomp/LightweightMessageFormatter;:com/google/javascript/jscomp/ErrorFormat.toFormatter(Lcom/google/javascript/jscomp/SourceExcerptProvider;Z)Lcom/google/javascript/jscomp/MessageFormatter;:com/google/javascript/jscomp/LightweightMessageFormatter.withoutSource()Lcom/google/javascript/jscomp/LightweightMessageFormatter;:com/google/javascript/jscomp/ErrorFormat.toFormatter(Lcom/google/javascript/jscomp/SourceExcerptProvider;Z)Lcom/google/javascript/jscomp/MessageFormatter;'
p16
I1
sS'com/google/javascript/jscomp/ErrorFormat.toFormatter(Lcom/google/javascript/jscomp/SourceExcerptProvider;Z)Lcom/google/javascript/jscomp/MessageFormatter;:com/google/javascript/jscomp/LightweightMessageFormatter.withoutSource()Lcom/google/javascript/jscomp/LightweightMessageFormatter;:com/google/common/collect/ImmutableSet.of(Ljava/lang/Object;Ljava/lang/Object;Ljava/lang/Object;Ljava/lang/Object;)Lcom/google/common/collect/ImmutableSet;:com/google/javascript/jscomp/ErrorFormat.toFormatter(Lcom/google/javascript/jscomp/SourceExcerptProvider;Z)Lcom/google/javascript/jscomp/MessageFormatter;:com/google/javascript/jscomp/LightweightMessageFormatter.withoutSource()Lcom/google/javascript/jscomp/LightweightMessageFormatter;:com/google/javascript/jscomp/ErrorFormat.toFormatter(Lcom/google/javascript/jscomp/SourceExcerptProvider;Z)Lcom/google/javascript/jscomp/MessageFormatter;:com/google/javascript/jscomp/LightweightMessageFormatter.withoutSource()Lcom/google/javascript/jscomp/LightweightMessageFormatter;:com/google/javascript/jscomp/ErrorFormat.toFormatter(Lcom/google/javascript/jscomp/SourceExcerptProvider;Z)Lcom/google/javascript/jscomp/MessageFormatter;:com/google/javascript/jscomp/LightweightMessageFormatter.withoutSource()Lcom/google/javascript/jscomp/LightweightMessageFormatter;:com/google/javascript/jscomp/ErrorFormat.toFormatter(Lcom/google/javascript/jscomp/SourceExcerptProvider;Z)Lcom/google/javascript/jscomp/MessageFormatter;:com/google/javascript/jscomp/LightweightMessageFormatter.withoutSource()Lcom/google/javascript/jscomp/LightweightMessageFormatter;'
p17
I1
sS'com/google/javascript/jscomp/ErrorFormat.toFormatter(Lcom/google/javascript/jscomp/SourceExcerptProvider;Z)Lcom/google/javascript/jscomp/MessageFormatter;:com/google/javascript/jscomp/LightweightMessageFormatter.withoutSource()Lcom/google/javascript/jscomp/LightweightMessageFormatter;:com/google/common/collect/ImmutableSet.of(Ljava/lang/Object;Ljava/lang/Object;Ljava/lang/Object;Ljava/lang/Object;)Lcom/google/common/collect/ImmutableSet;:com/google/javascript/jscomp/ErrorFormat.toFormatter(Lcom/google/javascript/jscomp/SourceExcerptProvider;Z)Lcom/google/javascript/jscomp/MessageFormatter;:com/google/javascript/jscomp/LightweightMessageFormatter.withoutSource()Lcom/google/javascript/jscomp/LightweightMessageFormatter;:com/google/javascript/jscomp/ErrorFormat.toFormatter(Lcom/google/javascript/jscomp/SourceExcerptProvider;Z)Lcom/google/javascript/jscomp/MessageFormatter;:com/google/javascript/jscomp/LightweightMessageFormatter.withoutSource()Lcom/google/javascript/jscomp/LightweightMessageFormatter;:com/google/javascript/jscomp/ErrorFormat.toFormatter(Lcom/google/javascript/jscomp/SourceExcerptProvider;Z)Lcom/google/javascript/jscomp/MessageFormatter;:com/google/javascript/jscomp/LightweightMessageFormatter.withoutSource()Lcom/google/javascript/jscomp/LightweightMessageFormatter;:com/google/javascript/jscomp/ErrorFormat.toFormatter(Lcom/google/javascript/jscomp/SourceExcerptProvider;Z)Lcom/google/javascript/jscomp/MessageFormatter;:com/google/javascript/jscomp/LightweightMessageFormatter.withoutSource()Lcom/google/javascript/jscomp/LightweightMessageFormatter;:com/google/javascript/jscomp/ErrorFormat.toFormatter(Lcom/google/javascript/jscomp/SourceExcerptProvider;Z)Lcom/google/javascript/jscomp/MessageFormatter;:com/google/javascript/jscomp/LightweightMessageFormatter.withoutSource()Lcom/google/javascript/jscomp/LightweightMessageFormatter;:com/google/javascript/jscomp/ErrorFormat.toFormatter(Lcom/google/javascript/jscomp/SourceExcerptProvider;Z)Lcom/google/javascript/jscomp/MessageFormatter;:com/google/javascript/jscomp/LightweightMessageFormatter.withoutSource()Lcom/google/javascript/jscomp/LightweightMessageFormatter;:com/google/javascript/jscomp/ErrorFormat.toFormatter(Lcom/google/javascript/jscomp/SourceExcerptProvider;Z)Lcom/google/javascript/jscomp/MessageFormatter;:com/google/javascript/jscomp/LightweightMessageFormatter.withoutSource()Lcom/google/javascript/jscomp/LightweightMessageFormatter;:com/google/javascript/jscomp/ErrorFormat.toFormatter(Lcom/google/javascript/jscomp/SourceExcerptProvider;Z)Lcom/google/javascript/jscomp/MessageFormatter;:com/google/javascript/jscomp/LightweightMessageFormatter.withoutSource()Lcom/google/javascript/jscomp/LightweightMessageFormatter;'
p18
I1
sS'com/google/javascript/jscomp/ErrorFormat.toFormatter(Lcom/google/javascript/jscomp/SourceExcerptProvider;Z)Lcom/google/javascript/jscomp/MessageFormatter;:com/google/javascript/jscomp/LightweightMessageFormatter.withoutSource()Lcom/google/javascript/jscomp/LightweightMessageFormatter;:com/google/common/collect/ImmutableSet.of(Ljava/lang/Object;Ljava/lang/Object;Ljava/lang/Object;Ljava/lang/Object;)Lcom/google/common/collect/ImmutableSet;:com/google/javascript/jscomp/ErrorFormat.toFormatter(Lcom/google/javascript/jscomp/SourceExcerptProvider;Z)Lcom/google/javascript/jscomp/MessageFormatter;:com/google/javascript/jscomp/LightweightMessageFormatter.withoutSource()Lcom/google/javascript/jscomp/LightweightMessageFormatter;:com/google/javascript/jscomp/ErrorFormat.toFormatter(Lcom/google/javascript/jscomp/SourceExcerptProvider;Z)Lcom/google/javascript/jscomp/MessageFormatter;:com/google/javascript/jscomp/LightweightMessageFormatter.withoutSource()Lcom/google/javascript/jscomp/LightweightMessageFormatter;:com/google/javascript/jscomp/ErrorFormat.toFormatter(Lcom/google/javascript/jscomp/SourceExcerptProvider;Z)Lcom/google/javascript/jscomp/MessageFormatter;:com/google/javascript/jscomp/LightweightMessageFormatter.withoutSource()Lcom/google/javascript/jscomp/LightweightMessageFormatter;'
p19
I1
sS'com/google/javascript/jscomp/ErrorFormat.toFormatter(Lcom/google/javascript/jscomp/SourceExcerptProvider;Z)Lcom/google/javascript/jscomp/MessageFormatter;:com/google/javascript/jscomp/LightweightMessageFormatter.withoutSource()Lcom/google/javascript/jscomp/LightweightMessageFormatter;:com/google/common/collect/ImmutableSet.of(Ljava/lang/Object;Ljava/lang/Object;Ljava/lang/Object;Ljava/lang/Object;)Lcom/google/common/collect/ImmutableSet;:com/google/javascript/jscomp/ErrorFormat.toFormatter(Lcom/google/javascript/jscomp/SourceExcerptProvider;Z)Lcom/google/javascript/jscomp/MessageFormatter;:com/google/javascript/jscomp/LightweightMessageFormatter.withoutSource()Lcom/google/javascript/jscomp/LightweightMessageFormatter;:com/google/javascript/jscomp/ErrorFormat.toFormatter(Lcom/google/javascript/jscomp/SourceExcerptProvider;Z)Lcom/google/javascript/jscomp/MessageFormatter;:com/google/javascript/jscomp/LightweightMessageFormatter.withoutSource()Lcom/google/javascript/jscomp/LightweightMessageFormatter;:com/google/javascript/jscomp/ErrorFormat.toFormatter(Lcom/google/javascript/jscomp/SourceExcerptProvider;Z)Lcom/google/javascript/jscomp/MessageFormatter;:com/google/javascript/jscomp/LightweightMessageFormatter.withoutSource()Lcom/google/javascript/jscomp/LightweightMessageFormatter;:com/google/javascript/jscomp/ErrorFormat.toFormatter(Lcom/google/javascript/jscomp/SourceExcerptProvider;Z)Lcom/google/javascript/jscomp/MessageFormatter;:com/google/javascript/jscomp/LightweightMessageFormatter.withoutSource()Lcom/google/javascript/jscomp/LightweightMessageFormatter;:com/google/javascript/jscomp/ErrorFormat.toFormatter(Lcom/google/javascript/jscomp/SourceExcerptProvider;Z)Lcom/google/javascript/jscomp/MessageFormatter;:com/google/javascript/jscomp/LightweightMessageFormatter.withoutSource()Lcom/google/javascript/jscomp/LightweightMessageFormatter;:com/google/javascript/jscomp/ErrorFormat.toFormatter(Lcom/google/javascript/jscomp/SourceExcerptProvider;Z)Lcom/google/javascript/jscomp/MessageFormatter;:com/google/javascript/jscomp/LightweightMessageFormatter.withoutSource()Lcom/google/javascript/jscomp/LightweightMessageFormatter;:com/google/javascript/jscomp/ErrorFormat.toFormatter(Lcom/google/javascript/jscomp/SourceExcerptProvider;Z)Lcom/google/javascript/jscomp/MessageFormatter;:com/google/javascript/jscomp/LightweightMessageFormatter.withoutSource()Lcom/google/javascript/jscomp/LightweightMessageFormatter;:com/google/javascript/jscomp/ErrorFormat.toFormatter(Lcom/google/javascript/jscomp/SourceExcerptProvider;Z)Lcom/google/javascript/jscomp/MessageFormatter;:com/google/javascript/jscomp/LightweightMessageFormatter.withoutSource()Lcom/google/javascript/jscomp/LightweightMessageFormatter;:com/google/javascript/jscomp/ErrorFormat.toFormatter(Lcom/google/javascript/jscomp/SourceExcerptProvider;Z)Lcom/google/javascript/jscomp/MessageFormatter;'
p20
I1
sS'com/google/javascript/jscomp/ErrorFormat.toFormatter(Lcom/google/javascript/jscomp/SourceExcerptProvider;Z)Lcom/google/javascript/jscomp/MessageFormatter;:com/google/javascript/jscomp/LightweightMessageFormatter.withoutSource()Lcom/google/javascript/jscomp/LightweightMessageFormatter;:com/google/common/collect/ImmutableSet.of(Ljava/lang/Object;Ljava/lang/Object;Ljava/lang/Object;Ljava/lang/Object;)Lcom/google/common/collect/ImmutableSet;:com/google/javascript/jscomp/ErrorFormat.toFormatter(Lcom/google/javascript/jscomp/SourceExcerptProvider;Z)Lcom/google/javascript/jscomp/MessageFormatter;:com/google/javascript/jscomp/LightweightMessageFormatter.withoutSource()Lcom/google/javascript/jscomp/LightweightMessageFormatter;:com/google/javascript/jscomp/ErrorFormat.toFormatter(Lcom/google/javascript/jscomp/SourceExcerptProvider;Z)Lcom/google/javascript/jscomp/MessageFormatter;:com/google/javascript/jscomp/LightweightMessageFormatter.withoutSource()Lcom/google/javascript/jscomp/LightweightMessageFormatter;:com/google/javascript/jscomp/ErrorFormat.toFormatter(Lcom/google/javascript/jscomp/SourceExcerptProvider;Z)Lcom/google/javascript/jscomp/MessageFormatter;:com/google/javascript/jscomp/LightweightMessageFormatter.withoutSource()Lcom/google/javascript/jscomp/LightweightMessageFormatter;:com/google/javascript/jscomp/ErrorFormat.toFormatter(Lcom/google/javascript/jscomp/SourceExcerptProvider;Z)Lcom/google/javascript/jscomp/MessageFormatter;:com/google/javascript/jscomp/LightweightMessageFormatter.withoutSource()Lcom/google/javascript/jscomp/LightweightMessageFormatter;:com/google/javascript/jscomp/ErrorFormat.toFormatter(Lcom/google/javascript/jscomp/SourceExcerptProvider;Z)Lcom/google/javascript/jscomp/MessageFormatter;:com/google/javascript/jscomp/LightweightMessageFormatter.withoutSource()Lcom/google/javascript/jscomp/LightweightMessageFormatter;'
p21
I1
sS'com/google/javascript/jscomp/ErrorFormat$4.<init>(Ljava/lang/String;I)V:com/google/javascript/jscomp/ErrorFormat.<init>(Ljava/lang/String;ILcom/google/javascript/jscomp/ErrorFormat$1;)V:com/google/javascript/jscomp/ErrorFormat.<init>(Ljava/lang/String;I)V'
p22
I1
sS'com/google/javascript/jscomp/ErrorFormat.toFormatter(Lcom/google/javascript/jscomp/SourceExcerptProvider;Z)Lcom/google/javascript/jscomp/MessageFormatter;:com/google/javascript/jscomp/LightweightMessageFormatter.withoutSource()Lcom/google/javascript/jscomp/LightweightMessageFormatter;'
p23
I1
sS'com/google/javascript/jscomp/ErrorFormat$4.<init>(Ljava/lang/String;I)V:com/google/javascript/jscomp/ErrorFormat.<init>(Ljava/lang/String;ILcom/google/javascript/jscomp/ErrorFormat$1;)V'
p24
I1
sS'com/google/javascript/jscomp/ErrorFormat$3.<init>(Ljava/lang/String;I)V:com/google/javascript/jscomp/ErrorFormat.<init>(Ljava/lang/String;ILcom/google/javascript/jscomp/ErrorFormat$1;)V'
p25
I1
sS'com/google/javascript/jscomp/ErrorFormat$3.<init>(Ljava/lang/String;I)V:com/google/javascript/jscomp/ErrorFormat.<init>(Ljava/lang/String;ILcom/google/javascript/jscomp/ErrorFormat$1;)V:com/google/javascript/jscomp/ErrorFormat.<init>(Ljava/lang/String;I)V'
p26
I1
sS'com/google/javascript/jscomp/ErrorFormat.toFormatter(Lcom/google/javascript/jscomp/SourceExcerptProvider;Z)Lcom/google/javascript/jscomp/MessageFormatter;:com/google/javascript/jscomp/LightweightMessageFormatter.withoutSource()Lcom/google/javascript/jscomp/LightweightMessageFormatter;:com/google/common/collect/ImmutableSet.of(Ljava/lang/Object;Ljava/lang/Object;Ljava/lang/Object;Ljava/lang/Object;)Lcom/google/common/collect/ImmutableSet;:com/google/javascript/jscomp/ErrorFormat.toFormatter(Lcom/google/javascript/jscomp/SourceExcerptProvider;Z)Lcom/google/javascript/jscomp/MessageFormatter;:com/google/javascript/jscomp/LightweightMessageFormatter.withoutSource()Lcom/google/javascript/jscomp/LightweightMessageFormatter;:com/google/javascript/jscomp/ErrorFormat.toFormatter(Lcom/google/javascript/jscomp/SourceExcerptProvider;Z)Lcom/google/javascript/jscomp/MessageFormatter;:com/google/javascript/jscomp/LightweightMessageFormatter.withoutSource()Lcom/google/javascript/jscomp/LightweightMessageFormatter;:com/google/javascript/jscomp/ErrorFormat.toFormatter(Lcom/google/javascript/jscomp/SourceExcerptProvider;Z)Lcom/google/javascript/jscomp/MessageFormatter;:com/google/javascript/jscomp/LightweightMessageFormatter.withoutSource()Lcom/google/javascript/jscomp/LightweightMessageFormatter;:com/google/javascript/jscomp/ErrorFormat.toFormatter(Lcom/google/javascript/jscomp/SourceExcerptProvider;Z)Lcom/google/javascript/jscomp/MessageFormatter;'
p27
I1
sS'com/google/javascript/jscomp/ErrorFormat.toFormatter(Lcom/google/javascript/jscomp/SourceExcerptProvider;Z)Lcom/google/javascript/jscomp/MessageFormatter;'
p28
I1
sS'com/google/javascript/jscomp/ErrorFormat$2.<init>(Ljava/lang/String;I)V:com/google/javascript/jscomp/ErrorFormat.<init>(Ljava/lang/String;ILcom/google/javascript/jscomp/ErrorFormat$1;)V'
p29
I1
sS'com/google/javascript/jscomp/ErrorFormat.toFormatter(Lcom/google/javascript/jscomp/SourceExcerptProvider;Z)Lcom/google/javascript/jscomp/MessageFormatter;:com/google/javascript/jscomp/LightweightMessageFormatter.withoutSource()Lcom/google/javascript/jscomp/LightweightMessageFormatter;:com/google/common/collect/ImmutableSet.of(Ljava/lang/Object;Ljava/lang/Object;Ljava/lang/Object;Ljava/lang/Object;)Lcom/google/common/collect/ImmutableSet;:com/google/javascript/jscomp/ErrorFormat.toFormatter(Lcom/google/javascript/jscomp/SourceExcerptProvider;Z)Lcom/google/javascript/jscomp/MessageFormatter;:com/google/javascript/jscomp/LightweightMessageFormatter.withoutSource()Lcom/google/javascript/jscomp/LightweightMessageFormatter;'
p30
I1
sS'com/google/javascript/jscomp/ErrorFormat$1.<init>(Ljava/lang/String;I)V:com/google/javascript/jscomp/ErrorFormat.<init>(Ljava/lang/String;ILcom/google/javascript/jscomp/ErrorFormat$1;)V:com/google/javascript/jscomp/ErrorFormat.<init>(Ljava/lang/String;I)V'
p31
I1
sS'com/google/javascript/jscomp/ErrorFormat.toFormatter(Lcom/google/javascript/jscomp/SourceExcerptProvider;Z)Lcom/google/javascript/jscomp/MessageFormatter;:com/google/javascript/jscomp/LightweightMessageFormatter.withoutSource()Lcom/google/javascript/jscomp/LightweightMessageFormatter;:com/google/common/collect/ImmutableSet.of(Ljava/lang/Object;Ljava/lang/Object;Ljava/lang/Object;Ljava/lang/Object;)Lcom/google/common/collect/ImmutableSet;:com/google/javascript/jscomp/ErrorFormat.toFormatter(Lcom/google/javascript/jscomp/SourceExcerptProvider;Z)Lcom/google/javascript/jscomp/MessageFormatter;:com/google/javascript/jscomp/LightweightMessageFormatter.withoutSource()Lcom/google/javascript/jscomp/LightweightMessageFormatter;:com/google/javascript/jscomp/ErrorFormat.toFormatter(Lcom/google/javascript/jscomp/SourceExcerptProvider;Z)Lcom/google/javascript/jscomp/MessageFormatter;:com/google/javascript/jscomp/LightweightMessageFormatter.withoutSource()Lcom/google/javascript/jscomp/LightweightMessageFormatter;:com/google/javascript/jscomp/ErrorFormat.toFormatter(Lcom/google/javascript/jscomp/SourceExcerptProvider;Z)Lcom/google/javascript/jscomp/MessageFormatter;:com/google/javascript/jscomp/LightweightMessageFormatter.withoutSource()Lcom/google/javascript/jscomp/LightweightMessageFormatter;:com/google/javascript/jscomp/ErrorFormat.toFormatter(Lcom/google/javascript/jscomp/SourceExcerptProvider;Z)Lcom/google/javascript/jscomp/MessageFormatter;:com/google/javascript/jscomp/LightweightMessageFormatter.withoutSource()Lcom/google/javascript/jscomp/LightweightMessageFormatter;:com/google/javascript/jscomp/ErrorFormat.toFormatter(Lcom/google/javascript/jscomp/SourceExcerptProvider;Z)Lcom/google/javascript/jscomp/MessageFormatter;:com/google/javascript/jscomp/LightweightMessageFormatter.withoutSource()Lcom/google/javascript/jscomp/LightweightMessageFormatter;:com/google/javascript/jscomp/ErrorFormat.toFormatter(Lcom/google/javascript/jscomp/SourceExcerptProvider;Z)Lcom/google/javascript/jscomp/MessageFormatter;'
p32
I1
sS'com/google/javascript/jscomp/ErrorFormat$4.<init>(Ljava/lang/String;I)V:com/google/javascript/jscomp/ErrorFormat.<init>(Ljava/lang/String;ILcom/google/javascript/jscomp/ErrorFormat$1;)V:com/google/javascript/jscomp/ErrorFormat.<init>(Ljava/lang/String;I)V:java/lang/Enum.<init>(Ljava/lang/String;I)V'
p33
I1
sS'com/google/javascript/jscomp/ErrorFormat.toFormatter(Lcom/google/javascript/jscomp/SourceExcerptProvider;Z)Lcom/google/javascript/jscomp/MessageFormatter;:com/google/javascript/jscomp/LightweightMessageFormatter.withoutSource()Lcom/google/javascript/jscomp/LightweightMessageFormatter;:com/google/common/collect/ImmutableSet.of(Ljava/lang/Object;Ljava/lang/Object;Ljava/lang/Object;Ljava/lang/Object;)Lcom/google/common/collect/ImmutableSet;'
p34
I1
sS'com/google/javascript/jscomp/ErrorFormat$2.<init>(Ljava/lang/String;I)V'
p35
I1
sS'com/google/javascript/jscomp/ErrorFormat$1.<init>(Ljava/lang/String;I)V:com/google/javascript/jscomp/ErrorFormat.<init>(Ljava/lang/String;ILcom/google/javascript/jscomp/ErrorFormat$1;)V'
p36
I1
sS'com/google/javascript/jscomp/ErrorFormat$2.<init>(Ljava/lang/String;I)V:com/google/javascript/jscomp/ErrorFormat.<init>(Ljava/lang/String;ILcom/google/javascript/jscomp/ErrorFormat$1;)V:com/google/javascript/jscomp/ErrorFormat.<init>(Ljava/lang/String;I)V'
p37
I1
s.