(dp0
S'com/google/javascript/jscomp/DotFormatter.toDot(Lcom/google/javascript/rhino/Node;Lcom/google/javascript/jscomp/ControlFlowGraph;)Ljava/lang/String;:com/google/javascript/jscomp/DotFormatter.<init>(Lcom/google/javascript/rhino/Node;Lcom/google/javascript/jscomp/ControlFlowGraph;Ljava/lang/Appendable;Z)V:com/google/javascript/jscomp/DotFormatter.traverseNodes(Lcom/google/javascript/rhino/Node;)V:com/google/javascript/jscomp/DotFormatter.key(Lcom/google/javascript/rhino/Node;)I:com/google/javascript/jscomp/DotFormatter.formatNodeName(Ljava/lang/Integer;)Ljava/lang/String;:java/lang/StringBuilder.append(Ljava/lang/Object;)Ljava/lang/StringBuilder;'
p1
I1
sS'com/google/javascript/jscomp/DotFormatter.toDot(Lcom/google/javascript/rhino/Node;Lcom/google/javascript/jscomp/ControlFlowGraph;)Ljava/lang/String;:com/google/javascript/jscomp/DotFormatter.<init>(Lcom/google/javascript/rhino/Node;Lcom/google/javascript/jscomp/ControlFlowGraph;Ljava/lang/Appendable;Z)V:com/google/javascript/jscomp/DotFormatter.traverseNodes(Lcom/google/javascript/rhino/Node;)V:com/google/javascript/jscomp/DotFormatter.key(Lcom/google/javascript/rhino/Node;)I:java/lang/Integer.intValue()I'
p2
I1
sS'com/google/javascript/jscomp/DotFormatter.formatNodeName(Ljava/lang/Integer;)Ljava/lang/String;:java/lang/StringBuilder.append(Ljava/lang/Object;)Ljava/lang/StringBuilder;'
p3
I8
sS'com/google/javascript/jscomp/DotFormatter.toDot(Lcom/google/javascript/rhino/Node;Lcom/google/javascript/jscomp/ControlFlowGraph;)Ljava/lang/String;:com/google/javascript/jscomp/DotFormatter.<init>(Lcom/google/javascript/rhino/Node;Lcom/google/javascript/jscomp/ControlFlowGraph;Ljava/lang/Appendable;Z)V:com/google/javascript/jscomp/DotFormatter.traverseNodes(Lcom/google/javascript/rhino/Node;)V:com/google/javascript/jscomp/DotFormatter.key(Lcom/google/javascript/rhino/Node;)I:java/util/HashMap.get(Ljava/lang/Object;)Ljava/lang/Object;'
p4
I1
sS'com/google/javascript/jscomp/DotFormatter.toDot(Lcom/google/javascript/rhino/Node;Lcom/google/javascript/jscomp/ControlFlowGraph;)Ljava/lang/String;:com/google/javascript/jscomp/DotFormatter.<init>(Lcom/google/javascript/rhino/Node;Lcom/google/javascript/jscomp/ControlFlowGraph;Ljava/lang/Appendable;Z)V:com/google/javascript/jscomp/DotFormatter.formatConclusion()V'
p5
I1
sS'com/google/javascript/jscomp/DotFormatter.toDot(Lcom/google/javascript/rhino/Node;Lcom/google/javascript/jscomp/ControlFlowGraph;)Ljava/lang/String;:com/google/javascript/jscomp/DotFormatter.<init>(Lcom/google/javascript/rhino/Node;Lcom/google/javascript/jscomp/ControlFlowGraph;Ljava/lang/Appendable;Z)V:com/google/javascript/jscomp/DotFormatter.traverseNodes(Lcom/google/javascript/rhino/Node;)V:com/google/javascript/jscomp/DotFormatter.key(Lcom/google/javascript/rhino/Node;)I:com/google/javascript/jscomp/DotFormatter.formatNodeName(Ljava/lang/Integer;)Ljava/lang/String;:java/lang/StringBuilder.<init>()V'
p6
I1
sS'com/google/javascript/jscomp/DotFormatter.toDot(Lcom/google/javascript/rhino/Node;Lcom/google/javascript/jscomp/ControlFlowGraph;)Ljava/lang/String;:com/google/javascript/jscomp/DotFormatter.<init>(Lcom/google/javascript/rhino/Node;Lcom/google/javascript/jscomp/ControlFlowGraph;Ljava/lang/Appendable;Z)V:java/util/HashMap.<init>()V'
p7
I1
sS'com/google/javascript/jscomp/DotFormatter.<init>()V:java/lang/StringBuilder.<init>()V'
p8
I2
sS'com/google/javascript/jscomp/DotFormatter.toDot(Lcom/google/javascript/rhino/Node;Lcom/google/javascript/jscomp/ControlFlowGraph;)Ljava/lang/String;:java/lang/StringBuilder.toString()Ljava/lang/String;'
p9
I1
sS'java/util/HashMap.put(Ljava/lang/Object;Ljava/lang/Object;)Ljava/lang/Object;'
p10
I8
sS'com/google/javascript/jscomp/DotFormatter.formatNodeName(Ljava/lang/Integer;)Ljava/lang/String;:java/lang/StringBuilder.<init>()V'
p11
I8
sS'com/google/javascript/rhino/Node.getTypeI()Lcom/google/javascript/rhino/TypeI;'
p12
I8
sS'com/google/javascript/jscomp/DotFormatter.<init>()V:java/lang/Object.<init>()V'
p13
I2
sS'com/google/javascript/jscomp/DotFormatter.toDot(Lcom/google/javascript/rhino/Node;Lcom/google/javascript/jscomp/ControlFlowGraph;)Ljava/lang/String;:com/google/javascript/jscomp/DotFormatter.<init>(Lcom/google/javascript/rhino/Node;Lcom/google/javascript/jscomp/ControlFlowGraph;Ljava/lang/Appendable;Z)V:com/google/javascript/jscomp/DotFormatter.traverseNodes(Lcom/google/javascript/rhino/Node;)V:com/google/javascript/jscomp/DotFormatter.key(Lcom/google/javascript/rhino/Node;)I:java/lang/Appendable.append(Ljava/lang/CharSequence;)Ljava/lang/Appendable;'
p14
I6
sS'com/google/javascript/jscomp/DotFormatter.toDot(Lcom/google/javascript/rhino/Node;Lcom/google/javascript/jscomp/ControlFlowGraph;)Ljava/lang/String;:com/google/javascript/jscomp/DotFormatter.<init>(Lcom/google/javascript/rhino/Node;Lcom/google/javascript/jscomp/ControlFlowGraph;Ljava/lang/Appendable;Z)V:com/google/javascript/jscomp/DotFormatter.traverseNodes(Lcom/google/javascript/rhino/Node;)V:com/google/javascript/jscomp/DotFormatter.key(Lcom/google/javascript/rhino/Node;)I:com/google/javascript/jscomp/DotFormatter.formatNodeName(Ljava/lang/Integer;)Ljava/lang/String;:java/lang/StringBuilder.toString()Ljava/lang/String;'
p15
I1
sS'java/lang/Appendable.append(Ljava/lang/CharSequence;)Ljava/lang/Appendable;'
p16
I48
sS'com/google/javascript/jscomp/DotFormatter.name(Lcom/google/javascript/rhino/Node;)Ljava/lang/String;'
p17
I8
sS'com/google/javascript/jscomp/DotFormatter.formatNodeName(Ljava/lang/Integer;)Ljava/lang/String;:java/lang/StringBuilder.toString()Ljava/lang/String;'
p18
I8
sS'com/google/javascript/jscomp/DotFormatter.toDot(Lcom/google/javascript/rhino/Node;Lcom/google/javascript/jscomp/ControlFlowGraph;)Ljava/lang/String;:com/google/javascript/jscomp/DotFormatter.<init>(Lcom/google/javascript/rhino/Node;Lcom/google/javascript/jscomp/ControlFlowGraph;Ljava/lang/Appendable;Z)V:com/google/javascript/jscomp/DotFormatter.traverseNodes(Lcom/google/javascript/rhino/Node;)V:com/google/javascript/jscomp/DotFormatter.key(Lcom/google/javascript/rhino/Node;)I:com/google/javascript/rhino/Node.getJSDocInfo()Lcom/google/javascript/rhino/JSDocInfo;:com/google/javascript/rhino/Node.getProp(I)Ljava/lang/Object;:com/google/javascript/rhino/Node.lookupProperty(I)Lcom/google/javascript/rhino/Node$PropListItem;'
p19
I1
sS'com/google/javascript/jscomp/DotFormatter.toDot(Lcom/google/javascript/rhino/Node;Lcom/google/javascript/jscomp/ControlFlowGraph;)Ljava/lang/String;:com/google/javascript/jscomp/DotFormatter.<init>(Lcom/google/javascript/rhino/Node;Lcom/google/javascript/jscomp/ControlFlowGraph;Ljava/lang/Appendable;Z)V:com/google/javascript/jscomp/DotFormatter.formatPreamble()V'
p20
I1
sS'com/google/javascript/jscomp/DotFormatter.toDot(Lcom/google/javascript/rhino/Node;Lcom/google/javascript/jscomp/ControlFlowGraph;)Ljava/lang/String;:com/google/javascript/jscomp/DotFormatter.<init>(Lcom/google/javascript/rhino/Node;Lcom/google/javascript/jscomp/ControlFlowGraph;Ljava/lang/Appendable;Z)V:com/google/javascript/jscomp/DotFormatter.traverseNodes(Lcom/google/javascript/rhino/Node;)V:com/google/javascript/jscomp/DotFormatter.key(Lcom/google/javascript/rhino/Node;)I:com/google/javascript/rhino/Node.getJSDocInfo()Lcom/google/javascript/rhino/JSDocInfo;:com/google/javascript/rhino/Node.getProp(I)Ljava/lang/Object;'
p21
I1
sS'com/google/javascript/jscomp/DotFormatter.toDot(Lcom/google/javascript/rhino/Node;Lcom/google/javascript/jscomp/ControlFlowGraph;)Ljava/lang/String;:com/google/javascript/jscomp/DotFormatter.<init>(Lcom/google/javascript/rhino/Node;Lcom/google/javascript/jscomp/ControlFlowGraph;Ljava/lang/Appendable;Z)V:com/google/javascript/jscomp/DotFormatter.traverseNodes(Lcom/google/javascript/rhino/Node;)V'
p22
I1
sS'com/google/javascript/jscomp/DotFormatter.toDot(Lcom/google/javascript/rhino/Node;Lcom/google/javascript/jscomp/ControlFlowGraph;)Ljava/lang/String;:com/google/javascript/jscomp/DotFormatter.<init>(Lcom/google/javascript/rhino/Node;Lcom/google/javascript/jscomp/ControlFlowGraph;Ljava/lang/Appendable;Z)V:com/google/javascript/jscomp/DotFormatter.formatConclusion()V:java/lang/Appendable.append(Ljava/lang/CharSequence;)Ljava/lang/Appendable;'
p23
I1
sS'com/google/javascript/jscomp/DotFormatter.toDot(Lcom/google/javascript/rhino/Node;Lcom/google/javascript/jscomp/ControlFlowGraph;)Ljava/lang/String;:com/google/javascript/jscomp/DotFormatter.<init>(Lcom/google/javascript/rhino/Node;Lcom/google/javascript/jscomp/ControlFlowGraph;Ljava/lang/Appendable;Z)V:com/google/javascript/jscomp/DotFormatter.traverseNodes(Lcom/google/javascript/rhino/Node;)V:com/google/javascript/jscomp/DotFormatter.key(Lcom/google/javascript/rhino/Node;)I:com/google/javascript/jscomp/DotFormatter.name(Lcom/google/javascript/rhino/Node;)Ljava/lang/String;'
p24
I1
sS'com/google/javascript/rhino/Node.getJSDocInfo()Lcom/google/javascript/rhino/JSDocInfo;'
p25
I8
sS'com/google/javascript/jscomp/DotFormatter.<init>()V'
p26
I2
sS'java/lang/Integer.intValue()I'
p27
I11
sS'com/google/javascript/jscomp/DotFormatter.toDot(Lcom/google/javascript/rhino/Node;Lcom/google/javascript/jscomp/ControlFlowGraph;)Ljava/lang/String;:com/google/javascript/jscomp/DotFormatter.<init>(Lcom/google/javascript/rhino/Node;Lcom/google/javascript/jscomp/ControlFlowGraph;Ljava/lang/Appendable;Z)V:java/lang/Object.<init>()V'
p28
I1
sS'com/google/javascript/jscomp/DotFormatter.toDot(Lcom/google/javascript/rhino/Node;Lcom/google/javascript/jscomp/ControlFlowGraph;)Ljava/lang/String;:com/google/javascript/jscomp/DotFormatter.<init>(Lcom/google/javascript/rhino/Node;Lcom/google/javascript/jscomp/ControlFlowGraph;Ljava/lang/Appendable;Z)V:com/google/javascript/jscomp/DotFormatter.traverseNodes(Lcom/google/javascript/rhino/Node;)V:com/google/javascript/jscomp/DotFormatter.key(Lcom/google/javascript/rhino/Node;)I:com/google/javascript/rhino/Node.getTypeI()Lcom/google/javascript/rhino/TypeI;'
p29
I1
sS'com/google/javascript/jscomp/DotFormatter.toDot(Lcom/google/javascript/rhino/Node;Lcom/google/javascript/jscomp/ControlFlowGraph;)Ljava/lang/String;:com/google/javascript/jscomp/DotFormatter.<init>(Lcom/google/javascript/rhino/Node;Lcom/google/javascript/jscomp/ControlFlowGraph;Ljava/lang/Appendable;Z)V:com/google/javascript/jscomp/DotFormatter.traverseNodes(Lcom/google/javascript/rhino/Node;)V:com/google/javascript/jscomp/DotFormatter.key(Lcom/google/javascript/rhino/Node;)I:com/google/javascript/jscomp/DotFormatter.formatNodeName(Ljava/lang/Integer;)Ljava/lang/String;:java/lang/StringBuilder.append(Ljava/lang/String;)Ljava/lang/StringBuilder;'
p30
I1
sS'com/google/javascript/jscomp/DotFormatter.toDot(Lcom/google/javascript/rhino/Node;Lcom/google/javascript/jscomp/ControlFlowGraph;)Ljava/lang/String;:java/lang/StringBuilder.<init>()V'
p31
I1
sS'com/google/javascript/jscomp/DotFormatter.toDot(Lcom/google/javascript/rhino/Node;Lcom/google/javascript/jscomp/ControlFlowGraph;)Ljava/lang/String;:com/google/javascript/jscomp/DotFormatter.<init>(Lcom/google/javascript/rhino/Node;Lcom/google/javascript/jscomp/ControlFlowGraph;Ljava/lang/Appendable;Z)V:com/google/javascript/jscomp/DotFormatter.traverseNodes(Lcom/google/javascript/rhino/Node;)V:com/google/javascript/jscomp/DotFormatter.key(Lcom/google/javascript/rhino/Node;)I:java/lang/Integer.valueOf(I)Ljava/lang/Integer;'
p32
I1
sS'java/util/HashMap.get(Ljava/lang/Object;)Ljava/lang/Object;'
p33
I11
sS'com/google/javascript/jscomp/DotFormatter.toDot(Lcom/google/javascript/rhino/Node;Lcom/google/javascript/jscomp/ControlFlowGraph;)Ljava/lang/String;:com/google/javascript/jscomp/DotFormatter.<init>(Lcom/google/javascript/rhino/Node;Lcom/google/javascript/jscomp/ControlFlowGraph;Ljava/lang/Appendable;Z)V:com/google/javascript/jscomp/DotFormatter.traverseNodes(Lcom/google/javascript/rhino/Node;)V:com/google/javascript/jscomp/DotFormatter.key(Lcom/google/javascript/rhino/Node;)I:com/google/javascript/jscomp/DotFormatter.name(Lcom/google/javascript/rhino/Node;)Ljava/lang/String;:com/google/javascript/rhino/Token.name(I)Ljava/lang/String;'
p34
I1
sS'com/google/javascript/jscomp/DotFormatter.toDot(Lcom/google/javascript/rhino/Node;Lcom/google/javascript/jscomp/ControlFlowGraph;)Ljava/lang/String;:com/google/javascript/jscomp/DotFormatter.<init>(Lcom/google/javascript/rhino/Node;Lcom/google/javascript/jscomp/ControlFlowGraph;Ljava/lang/Appendable;Z)V:com/google/javascript/jscomp/DotFormatter.traverseNodes(Lcom/google/javascript/rhino/Node;)V:com/google/javascript/jscomp/DotFormatter.key(Lcom/google/javascript/rhino/Node;)I:java/util/HashMap.put(Ljava/lang/Object;Ljava/lang/Object;)Ljava/lang/Object;'
p35
I1
sS'com/google/javascript/jscomp/DotFormatter.name(Lcom/google/javascript/rhino/Node;)Ljava/lang/String;:com/google/javascript/rhino/Token.name(I)Ljava/lang/String;'
p36
I8
sS'java/lang/Integer.valueOf(I)Ljava/lang/Integer;'
p37
I8
sS'com/google/common/base/Preconditions.checkArgument(Z)V'
p38
I1
sS'com/google/javascript/jscomp/DotFormatter.toDot(Lcom/google/javascript/rhino/Node;Lcom/google/javascript/jscomp/ControlFlowGraph;)Ljava/lang/String;:com/google/javascript/jscomp/DotFormatter.<init>(Lcom/google/javascript/rhino/Node;Lcom/google/javascript/jscomp/ControlFlowGraph;Ljava/lang/Appendable;Z)V:com/google/javascript/jscomp/DotFormatter.traverseNodes(Lcom/google/javascript/rhino/Node;)V:com/google/javascript/jscomp/DotFormatter.key(Lcom/google/javascript/rhino/Node;)I:com/google/javascript/jscomp/DotFormatter.formatNodeName(Ljava/lang/Integer;)Ljava/lang/String;'
p39
I1
sS'com/google/javascript/jscomp/DotFormatter.toDot(Lcom/google/javascript/rhino/Node;Lcom/google/javascript/jscomp/ControlFlowGraph;)Ljava/lang/String;:com/google/javascript/jscomp/DotFormatter.<init>(Lcom/google/javascript/rhino/Node;Lcom/google/javascript/jscomp/ControlFlowGraph;Ljava/lang/Appendable;Z)V:com/google/javascript/jscomp/DotFormatter.traverseNodes(Lcom/google/javascript/rhino/Node;)V:com/google/javascript/jscomp/DotFormatter.key(Lcom/google/javascript/rhino/Node;)I:com/google/javascript/jscomp/DotFormatter.name(Lcom/google/javascript/rhino/Node;)Ljava/lang/String;:com/google/javascript/rhino/Node.getType()I'
p40
I1
sS'com/google/javascript/jscomp/DotFormatter.toDot(Lcom/google/javascript/rhino/Node;Lcom/google/javascript/jscomp/ControlFlowGraph;)Ljava/lang/String;:com/google/javascript/jscomp/DotFormatter.<init>(Lcom/google/javascript/rhino/Node;Lcom/google/javascript/jscomp/ControlFlowGraph;Ljava/lang/Appendable;Z)V:com/google/javascript/jscomp/DotFormatter.traverseNodes(Lcom/google/javascript/rhino/Node;)V:com/google/javascript/rhino/Node.getFirstChild()Lcom/google/javascript/rhino/Node;'
p41
I1
sS'com/google/javascript/jscomp/DotFormatter.toDot(Lcom/google/javascript/rhino/Node;Lcom/google/javascript/jscomp/ControlFlowGraph;)Ljava/lang/String;:com/google/javascript/jscomp/DotFormatter.<init>(Lcom/google/javascript/rhino/Node;Lcom/google/javascript/jscomp/ControlFlowGraph;Ljava/lang/Appendable;Z)V:com/google/javascript/jscomp/DotFormatter.formatPreamble()V:java/lang/Appendable.append(Ljava/lang/CharSequence;)Ljava/lang/Appendable;'
p42
I3
sS'java/lang/Object.<init>()V'
p43
I11
sS'com/google/javascript/jscomp/DotFormatter.toDot(Lcom/google/javascript/rhino/Node;Lcom/google/javascript/jscomp/ControlFlowGraph;)Ljava/lang/String;:com/google/javascript/jscomp/DotFormatter.<init>(Lcom/google/javascript/rhino/Node;Lcom/google/javascript/jscomp/ControlFlowGraph;Ljava/lang/Appendable;Z)V:com/google/javascript/jscomp/DotFormatter.traverseNodes(Lcom/google/javascript/rhino/Node;)V:com/google/javascript/jscomp/DotFormatter.key(Lcom/google/javascript/rhino/Node;)I'
p44
I1
sS'com/google/javascript/rhino/Node.getJSDocInfo()Lcom/google/javascript/rhino/JSDocInfo;:com/google/javascript/rhino/Node.getProp(I)Ljava/lang/Object;'
p45
I8
sS'com/google/javascript/jscomp/DotFormatter.toDot(Lcom/google/javascript/rhino/Node;Lcom/google/javascript/jscomp/ControlFlowGraph;)Ljava/lang/String;:com/google/javascript/jscomp/DotFormatter.<init>(Lcom/google/javascript/rhino/Node;Lcom/google/javascript/jscomp/ControlFlowGraph;Ljava/lang/Appendable;Z)V:com/google/javascript/jscomp/DotFormatter.traverseNodes(Lcom/google/javascript/rhino/Node;)V:com/google/javascript/jscomp/DotFormatter.key(Lcom/google/javascript/rhino/Node;)I:com/google/javascript/rhino/Node.getJSDocInfo()Lcom/google/javascript/rhino/JSDocInfo;'
p46
I1
sS'com/google/javascript/jscomp/DotFormatter.toDot(Lcom/google/javascript/rhino/Node;Lcom/google/javascript/jscomp/ControlFlowGraph;)Ljava/lang/String;'
p47
I1
sS'com/google/javascript/jscomp/DotFormatter.<init>()V:java/util/HashMap.<init>()V'
p48
I2
sS'com/google/javascript/rhino/Node.getJSDocInfo()Lcom/google/javascript/rhino/JSDocInfo;:com/google/javascript/rhino/Node.getProp(I)Ljava/lang/Object;:com/google/javascript/rhino/Node.lookupProperty(I)Lcom/google/javascript/rhino/Node$PropListItem;'
p49
I8
sS'com/google/javascript/jscomp/DotFormatter.formatNodeName(Ljava/lang/Integer;)Ljava/lang/String;'
p50
I8
sS'com/google/javascript/jscomp/DotFormatter.name(Lcom/google/javascript/rhino/Node;)Ljava/lang/String;:com/google/javascript/rhino/Node.getType()I'
p51
I8
sS'com/google/javascript/jscomp/DotFormatter.formatNodeName(Ljava/lang/Integer;)Ljava/lang/String;:java/lang/StringBuilder.append(Ljava/lang/String;)Ljava/lang/StringBuilder;'
p52
I8
sS'com/google/javascript/jscomp/DotFormatter.toDot(Lcom/google/javascript/rhino/Node;Lcom/google/javascript/jscomp/ControlFlowGraph;)Ljava/lang/String;:com/google/javascript/jscomp/DotFormatter.<init>(Lcom/google/javascript/rhino/Node;Lcom/google/javascript/jscomp/ControlFlowGraph;Ljava/lang/Appendable;Z)V'
p53
I1
s.