(dp0
S'com/google/javascript/jscomp/ErrorFormat$3.<init>(Ljava/lang/String;I)V'
p1
I1
sS'com/google/javascript/jscomp/ErrorFormat$2.<init>(Ljava/lang/String;I)V:com/google/javascript/jscomp/ErrorFormat.<init>(Ljava/lang/String;ILcom/google/javascript/jscomp/ErrorFormat$1;)V'
p2
I1
sS'com/google/javascript/jscomp/ErrorFormat$2.<init>(Ljava/lang/String;I)V:com/google/javascript/jscomp/ErrorFormat.<init>(Ljava/lang/String;ILcom/google/javascript/jscomp/ErrorFormat$1;)V:com/google/javascript/jscomp/ErrorFormat.<init>(Ljava/lang/String;I)V:java/lang/Enum.<init>(Ljava/lang/String;I)V'
p3
I1
sS'com/google/javascript/jscomp/ErrorFormat$3.<init>(Ljava/lang/String;I)V:com/google/javascript/jscomp/ErrorFormat.<init>(Ljava/lang/String;ILcom/google/javascript/jscomp/ErrorFormat$1;)V:com/google/javascript/jscomp/ErrorFormat.<init>(Ljava/lang/String;I)V'
p4
I1
sS'com/google/javascript/jscomp/ErrorFormat$4.<init>(Ljava/lang/String;I)V:com/google/javascript/jscomp/ErrorFormat.<init>(Ljava/lang/String;ILcom/google/javascript/jscomp/ErrorFormat$1;)V'
p5
I1
sS'com/google/javascript/jscomp/ErrorFormat$4.<init>(Ljava/lang/String;I)V:com/google/javascript/jscomp/ErrorFormat.<init>(Ljava/lang/String;ILcom/google/javascript/jscomp/ErrorFormat$1;)V:com/google/javascript/jscomp/ErrorFormat.<init>(Ljava/lang/String;I)V'
p6
I1
sS'com/google/javascript/jscomp/ErrorFormat$1.<init>(Ljava/lang/String;I)V:com/google/javascript/jscomp/ErrorFormat.<init>(Ljava/lang/String;ILcom/google/javascript/jscomp/ErrorFormat$1;)V:com/google/javascript/jscomp/ErrorFormat.<init>(Ljava/lang/String;I)V:java/lang/Enum.<init>(Ljava/lang/String;I)V'
p7
I1
sS'com/google/javascript/jscomp/ErrorFormat$1.<init>(Ljava/lang/String;I)V:com/google/javascript/jscomp/ErrorFormat.<init>(Ljava/lang/String;ILcom/google/javascript/jscomp/ErrorFormat$1;)V:com/google/javascript/jscomp/ErrorFormat.<init>(Ljava/lang/String;I)V'
p8
I1
sS'com/google/javascript/jscomp/ErrorFormat$4.<init>(Ljava/lang/String;I)V'
p9
I1
sS'com/google/javascript/jscomp/ErrorFormat$4.<init>(Ljava/lang/String;I)V:com/google/javascript/jscomp/ErrorFormat.<init>(Ljava/lang/String;ILcom/google/javascript/jscomp/ErrorFormat$1;)V:com/google/javascript/jscomp/ErrorFormat.<init>(Ljava/lang/String;I)V:java/lang/Enum.<init>(Ljava/lang/String;I)V'
p10
I1
sS'com/google/javascript/jscomp/ErrorFormat$3.<init>(Ljava/lang/String;I)V:com/google/javascript/jscomp/ErrorFormat.<init>(Ljava/lang/String;ILcom/google/javascript/jscomp/ErrorFormat$1;)V:com/google/javascript/jscomp/ErrorFormat.<init>(Ljava/lang/String;I)V:java/lang/Enum.<init>(Ljava/lang/String;I)V'
p11
I1
sS'com/google/javascript/jscomp/ErrorFormat$1.<init>(Ljava/lang/String;I)V'
p12
I1
sS'com/google/javascript/jscomp/ErrorFormat$2.<init>(Ljava/lang/String;I)V'
p13
I1
sS'com/google/javascript/jscomp/ErrorFormat$1.<init>(Ljava/lang/String;I)V:com/google/javascript/jscomp/ErrorFormat.<init>(Ljava/lang/String;ILcom/google/javascript/jscomp/ErrorFormat$1;)V'
p14
I1
sS'com/google/javascript/jscomp/ErrorFormat$3.<init>(Ljava/lang/String;I)V:com/google/javascript/jscomp/ErrorFormat.<init>(Ljava/lang/String;ILcom/google/javascript/jscomp/ErrorFormat$1;)V'
p15
I1
sS'com/google/javascript/jscomp/ErrorFormat$2.<init>(Ljava/lang/String;I)V:com/google/javascript/jscomp/ErrorFormat.<init>(Ljava/lang/String;ILcom/google/javascript/jscomp/ErrorFormat$1;)V:com/google/javascript/jscomp/ErrorFormat.<init>(Ljava/lang/String;I)V'
p16
I1
s.