(dp0
S'com/google/common/collect/Sets.newHashSet()Ljava/util/HashSet;:com/google/javascript/jscomp/graph/LinkedDirectedGraph.<init>(ZZ)V:com/google/javascript/jscomp/graph/DiGraph.<init>()V:com/google/javascript/jscomp/graph/Graph.<init>()V'
p1
I1
sS'com/google/common/collect/Sets.newHashSet()Ljava/util/HashSet;:com/google/common/collect/Sets.newHashSet()Ljava/util/HashSet;:com/google/common/collect/Sets.newHashSet()Ljava/util/HashSet;:com/google/javascript/jscomp/graph/LinkedDirectedGraph.<init>(ZZ)V'
p2
I1
sS'com/google/javascript/jscomp/graph/LinkedDirectedGraph.getNodeOrFail(Ljava/lang/Object;)Lcom/google/javascript/jscomp/graph/GraphNode;'
p3
I14
sS'com/google/common/collect/Sets.newHashSet()Ljava/util/HashSet;:com/google/javascript/jscomp/graph/LinkedDirectedGraph.createDirectedGraphNode(Ljava/lang/Object;)Lcom/google/javascript/jscomp/graph/LinkedDirectedGraph$LinkedDirectedGraphNode;:java/util/Map.put(Ljava/lang/Object;Ljava/lang/Object;)Ljava/lang/Object;'
p4
I5
sS'com/google/common/collect/Sets.newHashSet()Ljava/util/HashSet;:com/google/common/collect/Sets.newHashSet()Ljava/util/HashSet;:java/util/List.add(Ljava/lang/Object;)Z'
p5
I14
sS'com/google/common/collect/Sets.newHashSet()Ljava/util/HashSet;:com/google/common/collect/Sets.newHashSet()Ljava/util/HashSet;:com/google/common/collect/Sets.newHashSet()Ljava/util/HashSet;:com/google/common/collect/Sets.newHashSet()Ljava/util/HashSet;:com/google/common/collect/Sets.newHashSet()Ljava/util/HashSet;:com/google/common/collect/Sets.newHashSet()Ljava/util/HashSet;:com/google/common/collect/Sets.newHashSet()Ljava/util/HashSet;:com/google/common/collect/Sets.newHashSet()Ljava/util/HashSet;:com/google/javascript/jscomp/graph/LinkedDirectedGraph.getNodeOrFail(Ljava/lang/Object;)Lcom/google/javascript/jscomp/graph/GraphNode;'
p6
I18
sS'com/google/common/collect/Sets.newHashSet()Ljava/util/HashSet;:com/google/common/collect/Sets.newHashSet()Ljava/util/HashSet;:com/google/common/collect/Sets.newHashSet()Ljava/util/HashSet;:com/google/javascript/jscomp/graph/LinkedDirectedGraph.createDirectedGraphNode(Ljava/lang/Object;)Lcom/google/javascript/jscomp/graph/LinkedDirectedGraph$LinkedDirectedGraphNode;'
p7
I5
sS'com/google/common/collect/Sets.newHashSet()Ljava/util/HashSet;:com/google/common/collect/Sets.newHashSet()Ljava/util/HashSet;:com/google/common/collect/Sets.newHashSet()Ljava/util/HashSet;:com/google/javascript/jscomp/graph/LinkedDirectedGraph.getNodeOrFail(Ljava/lang/Object;)Lcom/google/javascript/jscomp/graph/GraphNode;:com/google/javascript/jscomp/graph/Graph.getNode(Ljava/lang/Object;)Lcom/google/javascript/jscomp/graph/GraphNode;:com/google/javascript/jscomp/graph/LinkedDirectedGraph.getDirectedGraphNode(Ljava/lang/Object;)Lcom/google/javascript/jscomp/graph/DiGraph$DiGraphNode;:java/util/Map.get(Ljava/lang/Object;)Ljava/lang/Object;'
p8
I14
sS'com/google/common/collect/Sets.newHashSet()Ljava/util/HashSet;:com/google/common/collect/Sets.newHashSet()Ljava/util/HashSet;:com/google/common/collect/Sets.newHashSet()Ljava/util/HashSet;:com/google/common/collect/Sets.newHashSet()Ljava/util/HashSet;:com/google/common/collect/Sets.newHashSet()Ljava/util/HashSet;:com/google/common/collect/Sets.newHashSet()Ljava/util/HashSet;:com/google/javascript/jscomp/graph/LinkedDirectedGraph.<init>(ZZ)V:com/google/javascript/jscomp/graph/DiGraph.<init>()V'
p9
I1
sS'com/google/javascript/jscomp/graph/LinkedDirectedGraph.createDirectedGraphNode(Ljava/lang/Object;)Lcom/google/javascript/jscomp/graph/LinkedDirectedGraph$LinkedDirectedGraphNode;:java/util/Map.put(Ljava/lang/Object;Ljava/lang/Object;)Ljava/lang/Object;'
p10
I5
sS'com/google/common/collect/Sets.newHashSet()Ljava/util/HashSet;:com/google/common/collect/Sets.newHashSet()Ljava/util/HashSet;:com/google/javascript/jscomp/graph/LinkedDirectedGraph.<init>(ZZ)V:com/google/javascript/jscomp/graph/DiGraph.<init>()V:com/google/javascript/jscomp/graph/Graph.<init>()V:java/lang/Object.<init>()V'
p11
I1
sS'com/google/common/collect/Sets.newHashSet()Ljava/util/HashSet;:com/google/common/collect/Sets.newHashSet()Ljava/util/HashSet;:com/google/common/collect/Sets.newHashSet()Ljava/util/HashSet;:com/google/common/collect/Sets.newHashSet()Ljava/util/HashSet;:com/google/common/collect/Sets.newHashSet()Ljava/util/HashSet;:com/google/common/collect/Sets.newHashSet()Ljava/util/HashSet;:com/google/common/collect/Sets.newHashSet()Ljava/util/HashSet;:com/google/common/collect/Sets.newHashSet()Ljava/util/HashSet;:com/google/javascript/jscomp/graph/LinkedDirectedGraph.<init>(ZZ)V:com/google/javascript/jscomp/graph/DiGraph.<init>()V:com/google/javascript/jscomp/graph/Graph.<init>()V:java/lang/Object.<init>()V'
p12
I2
sS'com/google/common/collect/Sets.newHashSet()Ljava/util/HashSet;:com/google/common/collect/Sets.newHashSet()Ljava/util/HashSet;:com/google/common/collect/Sets.newHashSet()Ljava/util/HashSet;:com/google/common/collect/Sets.newHashSet()Ljava/util/HashSet;:com/google/common/collect/Sets.newHashSet()Ljava/util/HashSet;:com/google/javascript/jscomp/graph/LinkedDirectedGraph.createDirectedGraphNode(Ljava/lang/Object;)Lcom/google/javascript/jscomp/graph/LinkedDirectedGraph$LinkedDirectedGraphNode;:com/google/javascript/jscomp/graph/LinkedDirectedGraph$AnnotatedLinkedDirectedGraphNode.<init>(Ljava/lang/Object;)V:com/google/javascript/jscomp/graph/LinkedDirectedGraph$LinkedDirectedGraphNode.<init>(Ljava/lang/Object;)V:java/util/ArrayList.<init>()V'
p13
I10
sS'com/google/common/collect/Sets.newHashSet()Ljava/util/HashSet;:com/google/javascript/jscomp/graph/LinkedDirectedGraph.getNodeOrFail(Ljava/lang/Object;)Lcom/google/javascript/jscomp/graph/GraphNode;:com/google/javascript/jscomp/graph/Graph.getNode(Ljava/lang/Object;)Lcom/google/javascript/jscomp/graph/GraphNode;:com/google/javascript/jscomp/graph/LinkedDirectedGraph.getDirectedGraphNode(Ljava/lang/Object;)Lcom/google/javascript/jscomp/graph/DiGraph$DiGraphNode;:java/util/Map.get(Ljava/lang/Object;)Ljava/lang/Object;'
p14
I14
sS'com/google/common/collect/Sets.newHashSet()Ljava/util/HashSet;:com/google/common/collect/Sets.newHashSet()Ljava/util/HashSet;:com/google/common/collect/Sets.newHashSet()Ljava/util/HashSet;:com/google/common/collect/Sets.newHashSet()Ljava/util/HashSet;:com/google/common/collect/Sets.newHashSet()Ljava/util/HashSet;:com/google/common/collect/Sets.newHashSet()Ljava/util/HashSet;:com/google/common/collect/Sets.newHashSet()Ljava/util/HashSet;:com/google/javascript/jscomp/graph/LinkedDirectedGraph.getNodeOrFail(Ljava/lang/Object;)Lcom/google/javascript/jscomp/graph/GraphNode;:com/google/javascript/jscomp/graph/Graph.getNode(Ljava/lang/Object;)Lcom/google/javascript/jscomp/graph/GraphNode;:com/google/javascript/jscomp/graph/LinkedDirectedGraph.getDirectedGraphNode(Ljava/lang/Object;)Lcom/google/javascript/jscomp/graph/DiGraph$DiGraphNode;:java/util/Map.get(Ljava/lang/Object;)Ljava/lang/Object;'
p15
I14
sS'com/google/common/collect/Sets.newHashSet()Ljava/util/HashSet;:com/google/javascript/jscomp/graph/LinkedDirectedGraph.createDirectedGraphNode(Ljava/lang/Object;)Lcom/google/javascript/jscomp/graph/LinkedDirectedGraph$LinkedDirectedGraphNode;:com/google/javascript/jscomp/graph/LinkedDirectedGraph$AnnotatedLinkedDirectedGraphNode.<init>(Ljava/lang/Object;)V:com/google/javascript/jscomp/graph/LinkedDirectedGraph$LinkedDirectedGraphNode.<init>(Ljava/lang/Object;)V:java/lang/Object.<init>()V'
p16
I5
sS'com/google/common/collect/Sets.newHashSet()Ljava/util/HashSet;:com/google/common/collect/Sets.newHashSet()Ljava/util/HashSet;:com/google/common/collect/Sets.newHashSet()Ljava/util/HashSet;:com/google/common/collect/Sets.newHashSet()Ljava/util/HashSet;:com/google/javascript/jscomp/graph/LinkedDirectedGraph$AnnotatedLinkedDirectedGraphEdge.<init>(Lcom/google/javascript/jscomp/graph/DiGraph$DiGraphNode;Ljava/lang/Object;Lcom/google/javascript/jscomp/graph/DiGraph$DiGraphNode;)V:com/google/javascript/jscomp/graph/LinkedDirectedGraph$LinkedDirectedGraphEdge.<init>(Lcom/google/javascript/jscomp/graph/DiGraph$DiGraphNode;Ljava/lang/Object;Lcom/google/javascript/jscomp/graph/DiGraph$DiGraphNode;)V'
p17
I7
sS'com/google/common/collect/Sets.newHashSet()Ljava/util/HashSet;:com/google/common/collect/Sets.newHashSet()Ljava/util/HashSet;:com/google/common/collect/Sets.newHashSet()Ljava/util/HashSet;:com/google/common/collect/Sets.newHashSet()Ljava/util/HashSet;:com/google/common/collect/Sets.newHashSet()Ljava/util/HashSet;:com/google/common/collect/Sets.newHashSet()Ljava/util/HashSet;:com/google/common/collect/Sets.newHashSet()Ljava/util/HashSet;:com/google/javascript/jscomp/graph/LinkedDirectedGraph.getNodeOrFail(Ljava/lang/Object;)Lcom/google/javascript/jscomp/graph/GraphNode;:com/google/javascript/jscomp/graph/Graph.getNode(Ljava/lang/Object;)Lcom/google/javascript/jscomp/graph/GraphNode;:com/google/javascript/jscomp/graph/LinkedDirectedGraph.getDirectedGraphNode(Ljava/lang/Object;)Lcom/google/javascript/jscomp/graph/DiGraph$DiGraphNode;'
p18
I14
sS'com/google/common/collect/Sets.newHashSet()Ljava/util/HashSet;'
p19
I1
sS'com/google/common/collect/Sets.newHashSet()Ljava/util/HashSet;:com/google/common/collect/Sets.newHashSet()Ljava/util/HashSet;:com/google/common/collect/Sets.newHashSet()Ljava/util/HashSet;:com/google/common/collect/Sets.newHashSet()Ljava/util/HashSet;'
p20
I1
sS'com/google/common/collect/Sets.newHashSet()Ljava/util/HashSet;:com/google/common/collect/Sets.newHashSet()Ljava/util/HashSet;:com/google/common/collect/Sets.newHashSet()Ljava/util/HashSet;:com/google/common/collect/Sets.newHashSet()Ljava/util/HashSet;:com/google/common/collect/Sets.newHashSet()Ljava/util/HashSet;:com/google/javascript/jscomp/graph/LinkedDirectedGraph.<init>(ZZ)V:com/google/javascript/jscomp/graph/DiGraph.<init>()V:com/google/javascript/jscomp/graph/Graph.<init>()V:java/lang/Object.<init>()V'
p21
I1
sS'com/google/javascript/jscomp/graph/LinkedDirectedGraph.createDirectedGraphNode(Ljava/lang/Object;)Lcom/google/javascript/jscomp/graph/LinkedDirectedGraph$LinkedDirectedGraphNode;:com/google/javascript/jscomp/graph/LinkedDirectedGraph$AnnotatedLinkedDirectedGraphNode.<init>(Ljava/lang/Object;)V:com/google/javascript/jscomp/graph/LinkedDirectedGraph$LinkedDirectedGraphNode.<init>(Ljava/lang/Object;)V'
p22
I5
sS'com/google/common/collect/Sets.newHashSet()Ljava/util/HashSet;:com/google/common/collect/Sets.newHashSet()Ljava/util/HashSet;:com/google/common/collect/Sets.newHashSet()Ljava/util/HashSet;:com/google/common/collect/Sets.newHashSet()Ljava/util/HashSet;:com/google/common/collect/Sets.newHashSet()Ljava/util/HashSet;:com/google/common/collect/Sets.newHashSet()Ljava/util/HashSet;:com/google/common/collect/Sets.newHashSet()Ljava/util/HashSet;:com/google/common/collect/Sets.newHashSet()Ljava/util/HashSet;:com/google/javascript/jscomp/graph/LinkedDirectedGraph$AnnotatedLinkedDirectedGraphEdge.<init>(Lcom/google/javascript/jscomp/graph/DiGraph$DiGraphNode;Ljava/lang/Object;Lcom/google/javascript/jscomp/graph/DiGraph$DiGraphNode;)V:com/google/javascript/jscomp/graph/LinkedDirectedGraph$LinkedDirectedGraphEdge.<init>(Lcom/google/javascript/jscomp/graph/DiGraph$DiGraphNode;Ljava/lang/Object;Lcom/google/javascript/jscomp/graph/DiGraph$DiGraphNode;)V'
p23
I9
sS'com/google/javascript/jscomp/graph/LinkedDirectedGraph.getNodeOrFail(Ljava/lang/Object;)Lcom/google/javascript/jscomp/graph/GraphNode;:com/google/javascript/jscomp/graph/Graph.getNode(Ljava/lang/Object;)Lcom/google/javascript/jscomp/graph/GraphNode;:com/google/javascript/jscomp/graph/LinkedDirectedGraph.getDirectedGraphNode(Ljava/lang/Object;)Lcom/google/javascript/jscomp/graph/DiGraph$DiGraphNode;:java/util/Map.get(Ljava/lang/Object;)Ljava/lang/Object;'
p24
I14
sS'com/google/common/collect/Sets.newHashSet()Ljava/util/HashSet;:com/google/common/collect/Sets.newHashSet()Ljava/util/HashSet;:com/google/common/collect/Sets.newHashSet()Ljava/util/HashSet;:com/google/javascript/jscomp/graph/LinkedDirectedGraph.getNodeOrFail(Ljava/lang/Object;)Lcom/google/javascript/jscomp/graph/GraphNode;:com/google/javascript/jscomp/graph/Graph.getNode(Ljava/lang/Object;)Lcom/google/javascript/jscomp/graph/GraphNode;'
p25
I14
sS'com/google/common/collect/Sets.newHashSet()Ljava/util/HashSet;:com/google/common/collect/Sets.newHashSet()Ljava/util/HashSet;:com/google/common/collect/Sets.newHashSet()Ljava/util/HashSet;:com/google/common/collect/Sets.newHashSet()Ljava/util/HashSet;:com/google/javascript/jscomp/graph/LinkedDirectedGraph.createDirectedGraphNode(Ljava/lang/Object;)Lcom/google/javascript/jscomp/graph/LinkedDirectedGraph$LinkedDirectedGraphNode;:com/google/javascript/jscomp/graph/LinkedDirectedGraph$AnnotatedLinkedDirectedGraphNode.<init>(Ljava/lang/Object;)V:com/google/javascript/jscomp/graph/LinkedDirectedGraph$LinkedDirectedGraphNode.<init>(Ljava/lang/Object;)V:java/util/ArrayList.<init>()V'
p26
I10
sS'com/google/common/collect/Sets.newHashSet()Ljava/util/HashSet;:com/google/common/collect/Sets.newHashSet()Ljava/util/HashSet;:com/google/common/collect/Sets.newHashSet()Ljava/util/HashSet;:com/google/common/collect/Sets.newHashSet()Ljava/util/HashSet;:com/google/common/collect/Sets.newHashSet()Ljava/util/HashSet;:com/google/common/collect/Sets.newHashSet()Ljava/util/HashSet;:com/google/common/collect/Sets.newHashSet()Ljava/util/HashSet;:com/google/javascript/jscomp/graph/LinkedDirectedGraph.createDirectedGraphNode(Ljava/lang/Object;)Lcom/google/javascript/jscomp/graph/LinkedDirectedGraph$LinkedDirectedGraphNode;'
p27
I5
sS'com/google/common/collect/Sets.newHashSet()Ljava/util/HashSet;:com/google/common/collect/Sets.newHashSet()Ljava/util/HashSet;:com/google/common/collect/Sets.newHashSet()Ljava/util/HashSet;:com/google/common/collect/Sets.newHashSet()Ljava/util/HashSet;:com/google/common/collect/Sets.newHashSet()Ljava/util/HashSet;:com/google/javascript/jscomp/graph/LinkedDirectedGraph.<init>(ZZ)V'
p28
I1
sS'com/google/common/collect/Sets.newHashSet()Ljava/util/HashSet;:com/google/common/collect/Sets.newHashSet()Ljava/util/HashSet;:com/google/common/collect/Sets.newHashSet()Ljava/util/HashSet;:com/google/common/collect/Sets.newHashSet()Ljava/util/HashSet;:com/google/common/collect/Sets.newHashSet()Ljava/util/HashSet;:com/google/common/collect/Sets.newHashSet()Ljava/util/HashSet;:com/google/common/collect/Sets.newHashSet()Ljava/util/HashSet;:com/google/javascript/jscomp/graph/LinkedDirectedGraph.<init>(ZZ)V:java/util/HashMap.<init>()V'
p29
I1
sS'com/google/javascript/jscomp/graph/LinkedDirectedGraph$LinkedDirectedGraphNode.getOutEdges()Ljava/util/List;'
p30
I7
sS'com/google/common/collect/Sets.newHashSet()Ljava/util/HashSet;:com/google/common/collect/Sets.newHashSet()Ljava/util/HashSet;:com/google/common/collect/Sets.newHashSet()Ljava/util/HashSet;:com/google/javascript/jscomp/graph/LinkedDirectedGraph$LinkedDirectedGraphNode.getInEdges()Ljava/util/List;'
p31
I7
sS'com/google/common/collect/Sets.newHashSet()Ljava/util/HashSet;:com/google/common/collect/Sets.newHashSet()Ljava/util/HashSet;:com/google/common/collect/Sets.newHashSet()Ljava/util/HashSet;:com/google/common/collect/Sets.newHashSet()Ljava/util/HashSet;:com/google/common/collect/Sets.newHashSet()Ljava/util/HashSet;:com/google/javascript/jscomp/graph/LinkedDirectedGraph.createDirectedGraphNode(Ljava/lang/Object;)Lcom/google/javascript/jscomp/graph/LinkedDirectedGraph$LinkedDirectedGraphNode;:com/google/javascript/jscomp/graph/LinkedDirectedGraph$AnnotatedLinkedDirectedGraphNode.<init>(Ljava/lang/Object;)V'
p32
I5
sS'com/google/common/collect/Sets.newHashSet()Ljava/util/HashSet;:com/google/common/collect/Sets.newHashSet()Ljava/util/HashSet;:com/google/common/collect/Sets.newHashSet()Ljava/util/HashSet;:com/google/common/collect/Sets.newHashSet()Ljava/util/HashSet;:com/google/common/collect/Sets.newHashSet()Ljava/util/HashSet;:com/google/common/collect/Sets.newHashSet()Ljava/util/HashSet;:com/google/common/collect/Sets.newHashSet()Ljava/util/HashSet;'
p33
I1
sS'com/google/javascript/jscomp/graph/LinkedDirectedGraph$AnnotatedLinkedDirectedGraphEdge.<init>(Lcom/google/javascript/jscomp/graph/DiGraph$DiGraphNode;Ljava/lang/Object;Lcom/google/javascript/jscomp/graph/DiGraph$DiGraphNode;)V:com/google/javascript/jscomp/graph/LinkedDirectedGraph$LinkedDirectedGraphEdge.<init>(Lcom/google/javascript/jscomp/graph/DiGraph$DiGraphNode;Ljava/lang/Object;Lcom/google/javascript/jscomp/graph/DiGraph$DiGraphNode;)V:java/lang/Object.<init>()V'
p34
I7
sS'com/google/common/collect/Sets.newHashSet()Ljava/util/HashSet;:com/google/common/collect/Sets.newHashSet()Ljava/util/HashSet;:com/google/javascript/jscomp/graph/LinkedDirectedGraph$AnnotatedLinkedDirectedGraphEdge.<init>(Lcom/google/javascript/jscomp/graph/DiGraph$DiGraphNode;Ljava/lang/Object;Lcom/google/javascript/jscomp/graph/DiGraph$DiGraphNode;)V:com/google/javascript/jscomp/graph/LinkedDirectedGraph$LinkedDirectedGraphEdge.<init>(Lcom/google/javascript/jscomp/graph/DiGraph$DiGraphNode;Ljava/lang/Object;Lcom/google/javascript/jscomp/graph/DiGraph$DiGraphNode;)V:java/lang/Object.<init>()V'
p35
I7
sS'com/google/common/collect/Sets.newHashSet()Ljava/util/HashSet;:com/google/javascript/jscomp/graph/LinkedDirectedGraph$AnnotatedLinkedDirectedGraphEdge.<init>(Lcom/google/javascript/jscomp/graph/DiGraph$DiGraphNode;Ljava/lang/Object;Lcom/google/javascript/jscomp/graph/DiGraph$DiGraphNode;)V'
p36
I7
sS'com/google/common/collect/Sets.newHashSet()Ljava/util/HashSet;:java/util/List.add(Ljava/lang/Object;)Z'
p37
I14
sS'com/google/javascript/jscomp/graph/LinkedDirectedGraph.getNodeOrFail(Ljava/lang/Object;)Lcom/google/javascript/jscomp/graph/GraphNode;:com/google/javascript/jscomp/graph/Graph.getNode(Ljava/lang/Object;)Lcom/google/javascript/jscomp/graph/GraphNode;'
p38
I14
sS'com/google/common/collect/Sets.newHashSet()Ljava/util/HashSet;:com/google/common/collect/Sets.newHashSet()Ljava/util/HashSet;:com/google/javascript/jscomp/graph/LinkedDirectedGraph.<init>(ZZ)V:com/google/javascript/jscomp/graph/DiGraph.<init>()V:com/google/javascript/jscomp/graph/Graph.<init>()V'
p39
I1
sS'com/google/common/collect/Sets.newHashSet()Ljava/util/HashSet;:com/google/common/collect/Sets.newHashSet()Ljava/util/HashSet;:com/google/common/collect/Sets.newHashSet()Ljava/util/HashSet;:com/google/common/collect/Sets.newHashSet()Ljava/util/HashSet;:com/google/javascript/jscomp/graph/LinkedDirectedGraph.<init>(ZZ)V:java/util/HashMap.<init>()V'
p40
I1
sS'com/google/common/collect/Sets.newHashSet()Ljava/util/HashSet;:com/google/common/collect/Sets.newHashSet()Ljava/util/HashSet;:com/google/common/collect/Sets.newHashSet()Ljava/util/HashSet;:com/google/javascript/jscomp/graph/LinkedDirectedGraph$AnnotatedLinkedDirectedGraphEdge.<init>(Lcom/google/javascript/jscomp/graph/DiGraph$DiGraphNode;Ljava/lang/Object;Lcom/google/javascript/jscomp/graph/DiGraph$DiGraphNode;)V'
p41
I7
sS'com/google/common/collect/Sets.newHashSet()Ljava/util/HashSet;:com/google/common/collect/Sets.newHashSet()Ljava/util/HashSet;:com/google/javascript/jscomp/graph/LinkedDirectedGraph.<init>(ZZ)V:com/google/javascript/jscomp/graph/DiGraph.<init>()V'
p42
I1
sS'com/google/common/collect/Sets.newHashSet()Ljava/util/HashSet;:com/google/common/collect/Sets.newHashSet()Ljava/util/HashSet;:com/google/common/collect/Sets.newHashSet()Ljava/util/HashSet;:com/google/common/collect/Sets.newHashSet()Ljava/util/HashSet;:com/google/javascript/jscomp/graph/LinkedDirectedGraph.createDirectedGraphNode(Ljava/lang/Object;)Lcom/google/javascript/jscomp/graph/LinkedDirectedGraph$LinkedDirectedGraphNode;:java/util/Map.put(Ljava/lang/Object;Ljava/lang/Object;)Ljava/lang/Object;'
p43
I5
sS'com/google/common/collect/Sets.newHashSet()Ljava/util/HashSet;:com/google/common/collect/Sets.newHashSet()Ljava/util/HashSet;:com/google/common/collect/Sets.newHashSet()Ljava/util/HashSet;:com/google/common/collect/Sets.newHashSet()Ljava/util/HashSet;:com/google/common/collect/Sets.newHashSet()Ljava/util/HashSet;:com/google/common/collect/Sets.newHashSet()Ljava/util/HashSet;:com/google/javascript/jscomp/graph/LinkedDirectedGraph.<init>(ZZ)V'
p44
I1
sS'com/google/common/collect/Sets.newHashSet()Ljava/util/HashSet;:com/google/common/collect/Sets.newHashSet()Ljava/util/HashSet;:com/google/common/collect/Sets.newHashSet()Ljava/util/HashSet;:com/google/common/collect/Sets.newHashSet()Ljava/util/HashSet;:com/google/common/collect/Sets.newHashSet()Ljava/util/HashSet;:com/google/common/collect/Sets.newHashSet()Ljava/util/HashSet;:com/google/common/collect/Sets.newHashSet()Ljava/util/HashSet;:com/google/javascript/jscomp/graph/LinkedDirectedGraph.<init>(ZZ)V:com/google/javascript/jscomp/graph/DiGraph.<init>()V:com/google/javascript/jscomp/graph/Graph.<init>()V'
p45
I1
sS'com/google/common/collect/Sets.newHashSet()Ljava/util/HashSet;:com/google/common/collect/Sets.newHashSet()Ljava/util/HashSet;:com/google/common/collect/Sets.newHashSet()Ljava/util/HashSet;:com/google/common/collect/Sets.newHashSet()Ljava/util/HashSet;:com/google/javascript/jscomp/graph/LinkedDirectedGraph.<init>(ZZ)V:com/google/javascript/jscomp/graph/DiGraph.<init>()V'
p46
I1
sS'com/google/common/collect/Sets.newHashSet()Ljava/util/HashSet;:com/google/common/collect/Sets.newHashSet()Ljava/util/HashSet;:com/google/common/collect/Sets.newHashSet()Ljava/util/HashSet;:com/google/common/collect/Sets.newHashSet()Ljava/util/HashSet;:com/google/common/collect/Sets.newHashSet()Ljava/util/HashSet;:com/google/common/collect/Sets.newHashSet()Ljava/util/HashSet;:com/google/common/collect/Sets.newHashSet()Ljava/util/HashSet;:com/google/javascript/jscomp/graph/LinkedDirectedGraph.<init>(ZZ)V'
p47
I1
sS'com/google/common/collect/Sets.newHashSet()Ljava/util/HashSet;:com/google/common/collect/Sets.newHashSet()Ljava/util/HashSet;:com/google/common/collect/Sets.newHashSet()Ljava/util/HashSet;:com/google/common/collect/Sets.newHashSet()Ljava/util/HashSet;:com/google/javascript/jscomp/graph/LinkedDirectedGraph$LinkedDirectedGraphNode.getInEdges()Ljava/util/List;'
p48
I7
sS'com/google/common/collect/Sets.newHashSet()Ljava/util/HashSet;:com/google/common/collect/Sets.newHashSet()Ljava/util/HashSet;:com/google/common/collect/Sets.newHashSet()Ljava/util/HashSet;:com/google/common/collect/Sets.newHashSet()Ljava/util/HashSet;:com/google/common/collect/Sets.newHashSet()Ljava/util/HashSet;:com/google/common/collect/Sets.newHashSet()Ljava/util/HashSet;:com/google/common/collect/Sets.newHashSet()Ljava/util/HashSet;:com/google/common/collect/Sets.newHashSet()Ljava/util/HashSet;:com/google/javascript/jscomp/graph/LinkedDirectedGraph$AnnotatedLinkedDirectedGraphEdge.<init>(Lcom/google/javascript/jscomp/graph/DiGraph$DiGraphNode;Ljava/lang/Object;Lcom/google/javascript/jscomp/graph/DiGraph$DiGraphNode;)V'
p49
I9
sS'com/google/common/collect/Sets.newHashSet()Ljava/util/HashSet;:com/google/javascript/jscomp/graph/LinkedDirectedGraph.<init>(ZZ)V:com/google/javascript/jscomp/graph/DiGraph.<init>()V:com/google/javascript/jscomp/graph/Graph.<init>()V:java/lang/Object.<init>()V'
p50
I1
sS'com/google/common/collect/Sets.newHashSet()Ljava/util/HashSet;:com/google/common/collect/Sets.newHashSet()Ljava/util/HashSet;:com/google/common/collect/Sets.newHashSet()Ljava/util/HashSet;:com/google/common/collect/Sets.newHashSet()Ljava/util/HashSet;:com/google/common/collect/Sets.newHashSet()Ljava/util/HashSet;:com/google/common/collect/Sets.newHashSet()Ljava/util/HashSet;:com/google/common/collect/Sets.newHashSet()Ljava/util/HashSet;:com/google/javascript/jscomp/graph/LinkedDirectedGraph$AnnotatedLinkedDirectedGraphEdge.<init>(Lcom/google/javascript/jscomp/graph/DiGraph$DiGraphNode;Ljava/lang/Object;Lcom/google/javascript/jscomp/graph/DiGraph$DiGraphNode;)V:com/google/javascript/jscomp/graph/LinkedDirectedGraph$LinkedDirectedGraphEdge.<init>(Lcom/google/javascript/jscomp/graph/DiGraph$DiGraphNode;Ljava/lang/Object;Lcom/google/javascript/jscomp/graph/DiGraph$DiGraphNode;)V:java/lang/Object.<init>()V'
p51
I7
sS'com/google/common/collect/Sets.newHashSet()Ljava/util/HashSet;:com/google/common/collect/Sets.newHashSet()Ljava/util/HashSet;:com/google/common/collect/Sets.newHashSet()Ljava/util/HashSet;:com/google/common/collect/Sets.newHashSet()Ljava/util/HashSet;:com/google/common/collect/Sets.newHashSet()Ljava/util/HashSet;:com/google/javascript/jscomp/graph/LinkedDirectedGraph.createDirectedGraphNode(Ljava/lang/Object;)Lcom/google/javascript/jscomp/graph/LinkedDirectedGraph$LinkedDirectedGraphNode;:com/google/javascript/jscomp/graph/LinkedDirectedGraph$AnnotatedLinkedDirectedGraphNode.<init>(Ljava/lang/Object;)V:com/google/javascript/jscomp/graph/LinkedDirectedGraph$LinkedDirectedGraphNode.<init>(Ljava/lang/Object;)V'
p52
I5
sS'com/google/common/collect/Sets.newHashSet()Ljava/util/HashSet;:com/google/common/collect/Sets.newHashSet()Ljava/util/HashSet;:com/google/common/collect/Sets.newHashSet()Ljava/util/HashSet;:com/google/common/collect/Sets.newHashSet()Ljava/util/HashSet;:com/google/common/collect/Sets.newHashSet()Ljava/util/HashSet;:com/google/javascript/jscomp/graph/LinkedDirectedGraph.getNodeOrFail(Ljava/lang/Object;)Lcom/google/javascript/jscomp/graph/GraphNode;:com/google/javascript/jscomp/graph/Graph.getNode(Ljava/lang/Object;)Lcom/google/javascript/jscomp/graph/GraphNode;:com/google/javascript/jscomp/graph/LinkedDirectedGraph.getDirectedGraphNode(Ljava/lang/Object;)Lcom/google/javascript/jscomp/graph/DiGraph$DiGraphNode;'
p53
I14
sS'com/google/common/collect/Sets.newHashSet()Ljava/util/HashSet;:com/google/common/collect/Sets.newHashSet()Ljava/util/HashSet;:com/google/common/collect/Sets.newHashSet()Ljava/util/HashSet;:com/google/common/collect/Sets.newHashSet()Ljava/util/HashSet;:com/google/common/collect/Sets.newHashSet()Ljava/util/HashSet;:com/google/javascript/jscomp/graph/LinkedDirectedGraph$AnnotatedLinkedDirectedGraphEdge.<init>(Lcom/google/javascript/jscomp/graph/DiGraph$DiGraphNode;Ljava/lang/Object;Lcom/google/javascript/jscomp/graph/DiGraph$DiGraphNode;)V:com/google/javascript/jscomp/graph/LinkedDirectedGraph$LinkedDirectedGraphEdge.<init>(Lcom/google/javascript/jscomp/graph/DiGraph$DiGraphNode;Ljava/lang/Object;Lcom/google/javascript/jscomp/graph/DiGraph$DiGraphNode;)V'
p54
I7
sS'com/google/javascript/jscomp/graph/LinkedDirectedGraph.createDirectedGraphNode(Ljava/lang/Object;)Lcom/google/javascript/jscomp/graph/LinkedDirectedGraph$LinkedDirectedGraphNode;:java/util/Map.get(Ljava/lang/Object;)Ljava/lang/Object;'
p55
I5
sS'com/google/common/collect/Sets.newHashSet()Ljava/util/HashSet;:com/google/common/collect/Sets.newHashSet()Ljava/util/HashSet;:com/google/common/collect/Sets.newHashSet()Ljava/util/HashSet;:com/google/common/collect/Sets.newHashSet()Ljava/util/HashSet;:com/google/common/collect/Sets.newHashSet()Ljava/util/HashSet;:com/google/common/collect/Sets.newHashSet()Ljava/util/HashSet;:com/google/common/collect/Sets.newHashSet()Ljava/util/HashSet;:com/google/javascript/jscomp/graph/LinkedDirectedGraph$AnnotatedLinkedDirectedGraphEdge.<init>(Lcom/google/javascript/jscomp/graph/DiGraph$DiGraphNode;Ljava/lang/Object;Lcom/google/javascript/jscomp/graph/DiGraph$DiGraphNode;)V:com/google/javascript/jscomp/graph/LinkedDirectedGraph$LinkedDirectedGraphEdge.<init>(Lcom/google/javascript/jscomp/graph/DiGraph$DiGraphNode;Ljava/lang/Object;Lcom/google/javascript/jscomp/graph/DiGraph$DiGraphNode;)V'
p56
I7
sS'com/google/common/collect/Sets.newHashSet()Ljava/util/HashSet;:com/google/common/collect/Sets.newHashSet()Ljava/util/HashSet;:com/google/common/collect/Sets.newHashSet()Ljava/util/HashSet;:com/google/common/collect/Sets.newHashSet()Ljava/util/HashSet;:com/google/common/collect/Sets.newHashSet()Ljava/util/HashSet;:com/google/common/collect/Sets.newHashSet()Ljava/util/HashSet;:com/google/common/collect/Sets.newHashSet()Ljava/util/HashSet;:com/google/javascript/jscomp/graph/LinkedDirectedGraph.createDirectedGraphNode(Ljava/lang/Object;)Lcom/google/javascript/jscomp/graph/LinkedDirectedGraph$LinkedDirectedGraphNode;:com/google/javascript/jscomp/graph/LinkedDirectedGraph$AnnotatedLinkedDirectedGraphNode.<init>(Ljava/lang/Object;)V:com/google/javascript/jscomp/graph/LinkedDirectedGraph$LinkedDirectedGraphNode.<init>(Ljava/lang/Object;)V:java/lang/Object.<init>()V'
p57
I5
sS'com/google/common/collect/Sets.newHashSet()Ljava/util/HashSet;:com/google/common/collect/Sets.newHashSet()Ljava/util/HashSet;:com/google/javascript/jscomp/graph/LinkedDirectedGraph.createDirectedGraphNode(Ljava/lang/Object;)Lcom/google/javascript/jscomp/graph/LinkedDirectedGraph$LinkedDirectedGraphNode;:com/google/javascript/jscomp/graph/LinkedDirectedGraph$AnnotatedLinkedDirectedGraphNode.<init>(Ljava/lang/Object;)V:com/google/javascript/jscomp/graph/LinkedDirectedGraph$LinkedDirectedGraphNode.<init>(Ljava/lang/Object;)V:java/util/ArrayList.<init>()V'
p58
I10
sS'com/google/javascript/jscomp/graph/LinkedDirectedGraph.createDirectedGraphNode(Ljava/lang/Object;)Lcom/google/javascript/jscomp/graph/LinkedDirectedGraph$LinkedDirectedGraphNode;:com/google/javascript/jscomp/graph/LinkedDirectedGraph$AnnotatedLinkedDirectedGraphNode.<init>(Ljava/lang/Object;)V:com/google/javascript/jscomp/graph/LinkedDirectedGraph$LinkedDirectedGraphNode.<init>(Ljava/lang/Object;)V:java/lang/Object.<init>()V'
p59
I5
sS'com/google/common/collect/Sets.newHashSet()Ljava/util/HashSet;:com/google/common/collect/Sets.newHashSet()Ljava/util/HashSet;:com/google/common/collect/Sets.newHashSet()Ljava/util/HashSet;:com/google/common/collect/Sets.newHashSet()Ljava/util/HashSet;:com/google/common/collect/Sets.newHashSet()Ljava/util/HashSet;:com/google/common/collect/Sets.newHashSet()Ljava/util/HashSet;:com/google/javascript/jscomp/graph/LinkedDirectedGraph.createDirectedGraphNode(Ljava/lang/Object;)Lcom/google/javascript/jscomp/graph/LinkedDirectedGraph$LinkedDirectedGraphNode;:java/util/Map.put(Ljava/lang/Object;Ljava/lang/Object;)Ljava/lang/Object;'
p60
I5
sS'com/google/common/collect/Sets.newHashSet()Ljava/util/HashSet;:com/google/common/collect/Sets.newHashSet()Ljava/util/HashSet;:com/google/common/collect/Sets.newHashSet()Ljava/util/HashSet;:com/google/common/collect/Sets.newHashSet()Ljava/util/HashSet;:com/google/common/collect/Sets.newHashSet()Ljava/util/HashSet;:com/google/common/collect/Sets.newHashSet()Ljava/util/HashSet;:java/util/List.add(Ljava/lang/Object;)Z'
p61
I14
sS'com/google/javascript/jscomp/graph/LinkedDirectedGraph.createDirectedGraphNode(Ljava/lang/Object;)Lcom/google/javascript/jscomp/graph/LinkedDirectedGraph$LinkedDirectedGraphNode;:com/google/javascript/jscomp/graph/LinkedDirectedGraph$AnnotatedLinkedDirectedGraphNode.<init>(Ljava/lang/Object;)V'
p62
I5
sS'com/google/common/collect/Sets.newHashSet()Ljava/util/HashSet;:com/google/common/collect/Sets.newHashSet()Ljava/util/HashSet;:com/google/common/collect/Sets.newHashSet()Ljava/util/HashSet;:com/google/common/collect/Sets.newHashSet()Ljava/util/HashSet;:com/google/common/collect/Sets.newHashSet()Ljava/util/HashSet;:com/google/common/collect/Sets.newHashSet()Ljava/util/HashSet;:com/google/javascript/jscomp/graph/LinkedDirectedGraph.getNodeOrFail(Ljava/lang/Object;)Lcom/google/javascript/jscomp/graph/GraphNode;:com/google/javascript/jscomp/graph/Graph.getNode(Ljava/lang/Object;)Lcom/google/javascript/jscomp/graph/GraphNode;'
p63
I14
sS'com/google/common/collect/Sets.newHashSet()Ljava/util/HashSet;:com/google/common/collect/Sets.newHashSet()Ljava/util/HashSet;:com/google/common/collect/Sets.newHashSet()Ljava/util/HashSet;:com/google/common/collect/Sets.newHashSet()Ljava/util/HashSet;:com/google/common/collect/Sets.newHashSet()Ljava/util/HashSet;:com/google/common/collect/Sets.newHashSet()Ljava/util/HashSet;:com/google/javascript/jscomp/graph/LinkedDirectedGraph$AnnotatedLinkedDirectedGraphEdge.<init>(Lcom/google/javascript/jscomp/graph/DiGraph$DiGraphNode;Ljava/lang/Object;Lcom/google/javascript/jscomp/graph/DiGraph$DiGraphNode;)V:com/google/javascript/jscomp/graph/LinkedDirectedGraph$LinkedDirectedGraphEdge.<init>(Lcom/google/javascript/jscomp/graph/DiGraph$DiGraphNode;Ljava/lang/Object;Lcom/google/javascript/jscomp/graph/DiGraph$DiGraphNode;)V'
p64
I7
sS'com/google/common/collect/Sets.newHashSet()Ljava/util/HashSet;:com/google/common/collect/Sets.newHashSet()Ljava/util/HashSet;:com/google/common/collect/Sets.newHashSet()Ljava/util/HashSet;:com/google/common/collect/Sets.newHashSet()Ljava/util/HashSet;:com/google/common/collect/Sets.newHashSet()Ljava/util/HashSet;:com/google/common/collect/Sets.newHashSet()Ljava/util/HashSet;:com/google/javascript/jscomp/graph/LinkedDirectedGraph.createDirectedGraphNode(Ljava/lang/Object;)Lcom/google/javascript/jscomp/graph/LinkedDirectedGraph$LinkedDirectedGraphNode;:com/google/javascript/jscomp/graph/LinkedDirectedGraph$AnnotatedLinkedDirectedGraphNode.<init>(Ljava/lang/Object;)V:com/google/javascript/jscomp/graph/LinkedDirectedGraph$LinkedDirectedGraphNode.<init>(Ljava/lang/Object;)V:java/util/ArrayList.<init>()V'
p65
I10
sS'com/google/common/collect/Sets.newHashSet()Ljava/util/HashSet;:com/google/javascript/jscomp/graph/LinkedDirectedGraph$LinkedDirectedGraphNode.getInEdges()Ljava/util/List;'
p66
I7
sS'com/google/common/collect/Sets.newHashSet()Ljava/util/HashSet;:com/google/common/collect/Sets.newHashSet()Ljava/util/HashSet;:com/google/common/collect/Sets.newHashSet()Ljava/util/HashSet;:com/google/common/collect/Sets.newHashSet()Ljava/util/HashSet;:com/google/common/collect/Sets.newHashSet()Ljava/util/HashSet;:com/google/common/collect/Sets.newHashSet()Ljava/util/HashSet;:com/google/common/collect/Sets.newHashSet()Ljava/util/HashSet;:com/google/common/collect/Sets.newHashSet()Ljava/util/HashSet;:com/google/javascript/jscomp/graph/LinkedDirectedGraph$LinkedDirectedGraphNode.getOutEdges()Ljava/util/List;'
p67
I9
sS'com/google/common/collect/Sets.newHashSet()Ljava/util/HashSet;:com/google/common/collect/Sets.newHashSet()Ljava/util/HashSet;:com/google/javascript/jscomp/graph/LinkedDirectedGraph.getNodeOrFail(Ljava/lang/Object;)Lcom/google/javascript/jscomp/graph/GraphNode;:com/google/javascript/jscomp/graph/Graph.getNode(Ljava/lang/Object;)Lcom/google/javascript/jscomp/graph/GraphNode;'
p68
I14
sS'com/google/common/collect/Sets.newHashSet()Ljava/util/HashSet;:com/google/javascript/jscomp/graph/LinkedDirectedGraph.createDirectedGraphNode(Ljava/lang/Object;)Lcom/google/javascript/jscomp/graph/LinkedDirectedGraph$LinkedDirectedGraphNode;'
p69
I5
sS'com/google/common/collect/Sets.newHashSet()Ljava/util/HashSet;:com/google/common/collect/Sets.newHashSet()Ljava/util/HashSet;:com/google/common/collect/Sets.newHashSet()Ljava/util/HashSet;:com/google/common/collect/Sets.newHashSet()Ljava/util/HashSet;:com/google/javascript/jscomp/graph/LinkedDirectedGraph.<init>(ZZ)V:com/google/javascript/jscomp/graph/DiGraph.<init>()V:com/google/javascript/jscomp/graph/Graph.<init>()V:java/lang/Object.<init>()V'
p70
I1
sS'com/google/common/collect/Sets.newHashSet()Ljava/util/HashSet;:com/google/common/collect/Sets.newHashSet()Ljava/util/HashSet;:com/google/javascript/jscomp/graph/LinkedDirectedGraph.getNodeOrFail(Ljava/lang/Object;)Lcom/google/javascript/jscomp/graph/GraphNode;:com/google/javascript/jscomp/graph/Graph.getNode(Ljava/lang/Object;)Lcom/google/javascript/jscomp/graph/GraphNode;:com/google/javascript/jscomp/graph/LinkedDirectedGraph.getDirectedGraphNode(Ljava/lang/Object;)Lcom/google/javascript/jscomp/graph/DiGraph$DiGraphNode;'
p71
I14
sS'com/google/common/collect/Sets.newHashSet()Ljava/util/HashSet;:com/google/common/collect/Sets.newHashSet()Ljava/util/HashSet;:com/google/common/collect/Sets.newHashSet()Ljava/util/HashSet;:com/google/common/collect/Sets.newHashSet()Ljava/util/HashSet;:com/google/common/collect/Sets.newHashSet()Ljava/util/HashSet;:com/google/common/collect/Sets.newHashSet()Ljava/util/HashSet;:com/google/javascript/jscomp/graph/LinkedDirectedGraph.getNodeOrFail(Ljava/lang/Object;)Lcom/google/javascript/jscomp/graph/GraphNode;:com/google/javascript/jscomp/graph/Graph.getNode(Ljava/lang/Object;)Lcom/google/javascript/jscomp/graph/GraphNode;:com/google/javascript/jscomp/graph/LinkedDirectedGraph.getDirectedGraphNode(Ljava/lang/Object;)Lcom/google/javascript/jscomp/graph/DiGraph$DiGraphNode;'
p72
I14
sS'com/google/common/collect/Sets.newHashSet()Ljava/util/HashSet;:com/google/common/collect/Sets.newHashSet()Ljava/util/HashSet;:com/google/common/collect/Sets.newHashSet()Ljava/util/HashSet;:com/google/javascript/jscomp/graph/LinkedDirectedGraph$AnnotatedLinkedDirectedGraphEdge.<init>(Lcom/google/javascript/jscomp/graph/DiGraph$DiGraphNode;Ljava/lang/Object;Lcom/google/javascript/jscomp/graph/DiGraph$DiGraphNode;)V:com/google/javascript/jscomp/graph/LinkedDirectedGraph$LinkedDirectedGraphEdge.<init>(Lcom/google/javascript/jscomp/graph/DiGraph$DiGraphNode;Ljava/lang/Object;Lcom/google/javascript/jscomp/graph/DiGraph$DiGraphNode;)V'
p73
I7
sS'com/google/javascript/jscomp/graph/LinkedDirectedGraph.createDirectedGraphNode(Ljava/lang/Object;)Lcom/google/javascript/jscomp/graph/LinkedDirectedGraph$LinkedDirectedGraphNode;:com/google/javascript/jscomp/graph/LinkedDirectedGraph$AnnotatedLinkedDirectedGraphNode.<init>(Ljava/lang/Object;)V:com/google/javascript/jscomp/graph/LinkedDirectedGraph$LinkedDirectedGraphNode.<init>(Ljava/lang/Object;)V:java/util/ArrayList.<init>()V'
p74
I10
sS'com/google/common/collect/Sets.newHashSet()Ljava/util/HashSet;:com/google/javascript/jscomp/graph/LinkedDirectedGraph$LinkedDirectedGraphNode.getOutEdges()Ljava/util/List;'
p75
I7
sS'com/google/common/collect/Sets.newHashSet()Ljava/util/HashSet;:com/google/common/collect/Sets.newHashSet()Ljava/util/HashSet;:com/google/javascript/jscomp/graph/LinkedDirectedGraph.createDirectedGraphNode(Ljava/lang/Object;)Lcom/google/javascript/jscomp/graph/LinkedDirectedGraph$LinkedDirectedGraphNode;:com/google/javascript/jscomp/graph/LinkedDirectedGraph$AnnotatedLinkedDirectedGraphNode.<init>(Ljava/lang/Object;)V'
p76
I5
sS'com/google/common/collect/Sets.newHashSet()Ljava/util/HashSet;:com/google/common/collect/Sets.newHashSet()Ljava/util/HashSet;:com/google/common/collect/Sets.newHashSet()Ljava/util/HashSet;:java/util/List.add(Ljava/lang/Object;)Z'
p77
I14
sS'com/google/common/collect/Sets.newHashSet()Ljava/util/HashSet;:com/google/common/collect/Sets.newHashSet()Ljava/util/HashSet;:com/google/common/collect/Sets.newHashSet()Ljava/util/HashSet;:com/google/javascript/jscomp/graph/LinkedDirectedGraph.<init>(ZZ)V:com/google/javascript/jscomp/graph/DiGraph.<init>()V'
p78
I1
sS'com/google/common/collect/Sets.newHashSet()Ljava/util/HashSet;:com/google/common/collect/Sets.newHashSet()Ljava/util/HashSet;:com/google/common/collect/Sets.newHashSet()Ljava/util/HashSet;:com/google/common/collect/Sets.newHashSet()Ljava/util/HashSet;:com/google/common/collect/Sets.newHashSet()Ljava/util/HashSet;:com/google/common/collect/Sets.newHashSet()Ljava/util/HashSet;:com/google/common/collect/Sets.newHashSet()Ljava/util/HashSet;:com/google/common/collect/Sets.newHashSet()Ljava/util/HashSet;:com/google/javascript/jscomp/graph/LinkedDirectedGraph.<init>(ZZ)V:java/util/HashMap.<init>()V'
p79
I2
sS'com/google/common/collect/Sets.newHashSet()Ljava/util/HashSet;:com/google/common/collect/Sets.newHashSet()Ljava/util/HashSet;:com/google/common/collect/Sets.newHashSet()Ljava/util/HashSet;:com/google/common/collect/Sets.newHashSet()Ljava/util/HashSet;:com/google/common/collect/Sets.newHashSet()Ljava/util/HashSet;:com/google/javascript/jscomp/graph/LinkedDirectedGraph.createDirectedGraphNode(Ljava/lang/Object;)Lcom/google/javascript/jscomp/graph/LinkedDirectedGraph$LinkedDirectedGraphNode;:com/google/javascript/jscomp/graph/LinkedDirectedGraph$AnnotatedLinkedDirectedGraphNode.<init>(Ljava/lang/Object;)V:com/google/javascript/jscomp/graph/LinkedDirectedGraph$LinkedDirectedGraphNode.<init>(Ljava/lang/Object;)V:java/lang/Object.<init>()V'
p80
I5
sS'com/google/common/collect/Sets.newHashSet()Ljava/util/HashSet;:com/google/common/collect/Sets.newHashSet()Ljava/util/HashSet;:com/google/common/collect/Sets.newHashSet()Ljava/util/HashSet;:com/google/common/collect/Sets.newHashSet()Ljava/util/HashSet;:com/google/javascript/jscomp/graph/LinkedDirectedGraph.<init>(ZZ)V'
p81
I1
sS'com/google/common/collect/Sets.newHashSet()Ljava/util/HashSet;:com/google/common/collect/Sets.newHashSet()Ljava/util/HashSet;:com/google/common/collect/Sets.newHashSet()Ljava/util/HashSet;:com/google/javascript/jscomp/graph/LinkedDirectedGraph.getNodeOrFail(Ljava/lang/Object;)Lcom/google/javascript/jscomp/graph/GraphNode;:com/google/javascript/jscomp/graph/Graph.getNode(Ljava/lang/Object;)Lcom/google/javascript/jscomp/graph/GraphNode;:com/google/javascript/jscomp/graph/LinkedDirectedGraph.getDirectedGraphNode(Ljava/lang/Object;)Lcom/google/javascript/jscomp/graph/DiGraph$DiGraphNode;'
p82
I14
sS'com/google/common/collect/Sets.newHashSet()Ljava/util/HashSet;:com/google/common/collect/Sets.newHashSet()Ljava/util/HashSet;:com/google/common/collect/Sets.newHashSet()Ljava/util/HashSet;:com/google/common/collect/Sets.newHashSet()Ljava/util/HashSet;:com/google/common/collect/Sets.newHashSet()Ljava/util/HashSet;:com/google/common/collect/Sets.newHashSet()Ljava/util/HashSet;:com/google/javascript/jscomp/graph/LinkedDirectedGraph.createDirectedGraphNode(Ljava/lang/Object;)Lcom/google/javascript/jscomp/graph/LinkedDirectedGraph$LinkedDirectedGraphNode;:java/util/Map.get(Ljava/lang/Object;)Ljava/lang/Object;'
p83
I5
sS'com/google/common/collect/Sets.newHashSet()Ljava/util/HashSet;:com/google/common/collect/Sets.newHashSet()Ljava/util/HashSet;:com/google/common/collect/Sets.newHashSet()Ljava/util/HashSet;:com/google/common/collect/Sets.newHashSet()Ljava/util/HashSet;:com/google/common/collect/Sets.newHashSet()Ljava/util/HashSet;:com/google/common/collect/Sets.newHashSet()Ljava/util/HashSet;:com/google/common/collect/Sets.newHashSet()Ljava/util/HashSet;:com/google/common/collect/Sets.newHashSet()Ljava/util/HashSet;:com/google/javascript/jscomp/graph/LinkedDirectedGraph.getNodeOrFail(Ljava/lang/Object;)Lcom/google/javascript/jscomp/graph/GraphNode;:com/google/javascript/jscomp/graph/Graph.getNode(Ljava/lang/Object;)Lcom/google/javascript/jscomp/graph/GraphNode;'
p84
I18
sS'com/google/common/collect/Sets.newHashSet()Ljava/util/HashSet;:com/google/common/collect/Sets.newHashSet()Ljava/util/HashSet;:com/google/common/collect/Sets.newHashSet()Ljava/util/HashSet;:com/google/common/collect/Sets.newHashSet()Ljava/util/HashSet;:com/google/javascript/jscomp/graph/LinkedDirectedGraph.createDirectedGraphNode(Ljava/lang/Object;)Lcom/google/javascript/jscomp/graph/LinkedDirectedGraph$LinkedDirectedGraphNode;:com/google/javascript/jscomp/graph/LinkedDirectedGraph$AnnotatedLinkedDirectedGraphNode.<init>(Ljava/lang/Object;)V:com/google/javascript/jscomp/graph/LinkedDirectedGraph$LinkedDirectedGraphNode.<init>(Ljava/lang/Object;)V:java/lang/Object.<init>()V'
p85
I5
sS'com/google/common/collect/Sets.newHashSet()Ljava/util/HashSet;:com/google/common/collect/Sets.newHashSet()Ljava/util/HashSet;:com/google/common/collect/Sets.newHashSet()Ljava/util/HashSet;:com/google/common/collect/Sets.newHashSet()Ljava/util/HashSet;:com/google/common/collect/Sets.newHashSet()Ljava/util/HashSet;:com/google/common/collect/Sets.newHashSet()Ljava/util/HashSet;:com/google/common/collect/Sets.newHashSet()Ljava/util/HashSet;:com/google/javascript/jscomp/graph/LinkedDirectedGraph.<init>(ZZ)V:com/google/javascript/jscomp/graph/DiGraph.<init>()V'
p86
I1
sS'com/google/common/collect/Sets.newHashSet()Ljava/util/HashSet;:com/google/common/collect/Sets.newHashSet()Ljava/util/HashSet;:com/google/common/collect/Sets.newHashSet()Ljava/util/HashSet;:com/google/common/collect/Sets.newHashSet()Ljava/util/HashSet;:java/util/List.add(Ljava/lang/Object;)Z'
p87
I14
sS'com/google/common/collect/Sets.newHashSet()Ljava/util/HashSet;:com/google/common/collect/Sets.newHashSet()Ljava/util/HashSet;:com/google/common/collect/Sets.newHashSet()Ljava/util/HashSet;:com/google/common/collect/Sets.newHashSet()Ljava/util/HashSet;:com/google/common/collect/Sets.newHashSet()Ljava/util/HashSet;:com/google/common/collect/Sets.newHashSet()Ljava/util/HashSet;:com/google/common/collect/Sets.newHashSet()Ljava/util/HashSet;:com/google/common/collect/Sets.newHashSet()Ljava/util/HashSet;:com/google/javascript/jscomp/graph/LinkedDirectedGraph.createDirectedGraphNode(Ljava/lang/Object;)Lcom/google/javascript/jscomp/graph/LinkedDirectedGraph$LinkedDirectedGraphNode;:com/google/javascript/jscomp/graph/LinkedDirectedGraph$AnnotatedLinkedDirectedGraphNode.<init>(Ljava/lang/Object;)V:com/google/javascript/jscomp/graph/LinkedDirectedGraph$LinkedDirectedGraphNode.<init>(Ljava/lang/Object;)V:java/util/ArrayList.<init>()V'
p88
I14
sS'com/google/common/collect/Sets.newHashSet()Ljava/util/HashSet;:com/google/common/collect/Sets.newHashSet()Ljava/util/HashSet;:com/google/common/collect/Sets.newHashSet()Ljava/util/HashSet;:com/google/common/collect/Sets.newHashSet()Ljava/util/HashSet;:com/google/javascript/jscomp/graph/LinkedDirectedGraph.createDirectedGraphNode(Ljava/lang/Object;)Lcom/google/javascript/jscomp/graph/LinkedDirectedGraph$LinkedDirectedGraphNode;'
p89
I5
sS'com/google/common/collect/Sets.newHashSet()Ljava/util/HashSet;:com/google/common/collect/Sets.newHashSet()Ljava/util/HashSet;:com/google/common/collect/Sets.newHashSet()Ljava/util/HashSet;:com/google/common/collect/Sets.newHashSet()Ljava/util/HashSet;:com/google/common/collect/Sets.newHashSet()Ljava/util/HashSet;:com/google/common/collect/Sets.newHashSet()Ljava/util/HashSet;:com/google/common/collect/Sets.newHashSet()Ljava/util/HashSet;:com/google/javascript/jscomp/graph/LinkedDirectedGraph$LinkedDirectedGraphNode.getInEdges()Ljava/util/List;'
p90
I7
sS'com/google/common/collect/Sets.newHashSet()Ljava/util/HashSet;:com/google/common/collect/Sets.newHashSet()Ljava/util/HashSet;:com/google/common/collect/Sets.newHashSet()Ljava/util/HashSet;:com/google/common/collect/Sets.newHashSet()Ljava/util/HashSet;:com/google/javascript/jscomp/graph/LinkedDirectedGraph.getNodeOrFail(Ljava/lang/Object;)Lcom/google/javascript/jscomp/graph/GraphNode;'
p91
I14
sS'com/google/common/collect/Sets.newHashSet()Ljava/util/HashSet;:com/google/common/collect/Sets.newHashSet()Ljava/util/HashSet;:com/google/common/collect/Sets.newHashSet()Ljava/util/HashSet;:com/google/javascript/jscomp/graph/LinkedDirectedGraph.createDirectedGraphNode(Ljava/lang/Object;)Lcom/google/javascript/jscomp/graph/LinkedDirectedGraph$LinkedDirectedGraphNode;:com/google/javascript/jscomp/graph/LinkedDirectedGraph$AnnotatedLinkedDirectedGraphNode.<init>(Ljava/lang/Object;)V:com/google/javascript/jscomp/graph/LinkedDirectedGraph$LinkedDirectedGraphNode.<init>(Ljava/lang/Object;)V:java/lang/Object.<init>()V'
p92
I5
sS'com/google/javascript/jscomp/graph/LinkedDirectedGraph$AnnotatedLinkedDirectedGraphEdge.<init>(Lcom/google/javascript/jscomp/graph/DiGraph$DiGraphNode;Ljava/lang/Object;Lcom/google/javascript/jscomp/graph/DiGraph$DiGraphNode;)V:com/google/javascript/jscomp/graph/LinkedDirectedGraph$LinkedDirectedGraphEdge.<init>(Lcom/google/javascript/jscomp/graph/DiGraph$DiGraphNode;Ljava/lang/Object;Lcom/google/javascript/jscomp/graph/DiGraph$DiGraphNode;)V'
p93
I7
sS'com/google/common/collect/Sets.newHashSet()Ljava/util/HashSet;:com/google/common/collect/Sets.newHashSet()Ljava/util/HashSet;:com/google/javascript/jscomp/graph/LinkedDirectedGraph.<init>(ZZ)V'
p94
I1
sS'com/google/common/collect/Sets.newHashSet()Ljava/util/HashSet;:com/google/common/collect/Sets.newHashSet()Ljava/util/HashSet;:com/google/javascript/jscomp/graph/LinkedDirectedGraph.createDirectedGraphNode(Ljava/lang/Object;)Lcom/google/javascript/jscomp/graph/LinkedDirectedGraph$LinkedDirectedGraphNode;:com/google/javascript/jscomp/graph/LinkedDirectedGraph$AnnotatedLinkedDirectedGraphNode.<init>(Ljava/lang/Object;)V:com/google/javascript/jscomp/graph/LinkedDirectedGraph$LinkedDirectedGraphNode.<init>(Ljava/lang/Object;)V'
p95
I5
sS'com/google/common/collect/Sets.newHashSet()Ljava/util/HashSet;:com/google/common/collect/Sets.newHashSet()Ljava/util/HashSet;:com/google/common/collect/Sets.newHashSet()Ljava/util/HashSet;:com/google/common/collect/Sets.newHashSet()Ljava/util/HashSet;:com/google/common/collect/Sets.newHashSet()Ljava/util/HashSet;:com/google/common/collect/Sets.newHashSet()Ljava/util/HashSet;:com/google/common/collect/Sets.newHashSet()Ljava/util/HashSet;:com/google/javascript/jscomp/graph/LinkedDirectedGraph.<init>(ZZ)V:com/google/javascript/jscomp/graph/DiGraph.<init>()V:com/google/javascript/jscomp/graph/Graph.<init>()V:java/lang/Object.<init>()V'
p96
I1
sS'com/google/common/collect/Sets.newHashSet()Ljava/util/HashSet;:com/google/common/collect/Sets.newHashSet()Ljava/util/HashSet;:com/google/common/collect/Sets.newHashSet()Ljava/util/HashSet;:com/google/common/collect/Sets.newHashSet()Ljava/util/HashSet;:com/google/common/collect/Sets.newHashSet()Ljava/util/HashSet;:com/google/common/collect/Sets.newHashSet()Ljava/util/HashSet;:com/google/javascript/jscomp/graph/LinkedDirectedGraph$AnnotatedLinkedDirectedGraphEdge.<init>(Lcom/google/javascript/jscomp/graph/DiGraph$DiGraphNode;Ljava/lang/Object;Lcom/google/javascript/jscomp/graph/DiGraph$DiGraphNode;)V:com/google/javascript/jscomp/graph/LinkedDirectedGraph$LinkedDirectedGraphEdge.<init>(Lcom/google/javascript/jscomp/graph/DiGraph$DiGraphNode;Ljava/lang/Object;Lcom/google/javascript/jscomp/graph/DiGraph$DiGraphNode;)V:java/lang/Object.<init>()V'
p97
I7
sS'com/google/common/collect/Sets.newHashSet()Ljava/util/HashSet;:com/google/common/collect/Sets.newHashSet()Ljava/util/HashSet;:com/google/common/collect/Sets.newHashSet()Ljava/util/HashSet;:com/google/common/collect/Sets.newHashSet()Ljava/util/HashSet;:com/google/common/collect/Sets.newHashSet()Ljava/util/HashSet;:com/google/common/collect/Sets.newHashSet()Ljava/util/HashSet;:com/google/common/collect/Sets.newHashSet()Ljava/util/HashSet;:com/google/common/collect/Sets.newHashSet()Ljava/util/HashSet;:com/google/javascript/jscomp/graph/LinkedDirectedGraph$AnnotatedLinkedDirectedGraphEdge.<init>(Lcom/google/javascript/jscomp/graph/DiGraph$DiGraphNode;Ljava/lang/Object;Lcom/google/javascript/jscomp/graph/DiGraph$DiGraphNode;)V:com/google/javascript/jscomp/graph/LinkedDirectedGraph$LinkedDirectedGraphEdge.<init>(Lcom/google/javascript/jscomp/graph/DiGraph$DiGraphNode;Ljava/lang/Object;Lcom/google/javascript/jscomp/graph/DiGraph$DiGraphNode;)V:java/lang/Object.<init>()V'
p98
I9
sS'com/google/common/collect/Sets.newHashSet()Ljava/util/HashSet;:com/google/common/collect/Sets.newHashSet()Ljava/util/HashSet;:com/google/common/collect/Sets.newHashSet()Ljava/util/HashSet;:com/google/common/collect/Sets.newHashSet()Ljava/util/HashSet;:com/google/common/collect/Sets.newHashSet()Ljava/util/HashSet;:com/google/common/collect/Sets.newHashSet()Ljava/util/HashSet;:com/google/common/collect/Sets.newHashSet()Ljava/util/HashSet;:com/google/common/collect/Sets.newHashSet()Ljava/util/HashSet;:com/google/javascript/jscomp/graph/LinkedDirectedGraph.getNodeOrFail(Ljava/lang/Object;)Lcom/google/javascript/jscomp/graph/GraphNode;:com/google/javascript/jscomp/graph/Graph.getNode(Ljava/lang/Object;)Lcom/google/javascript/jscomp/graph/GraphNode;:com/google/javascript/jscomp/graph/LinkedDirectedGraph.getDirectedGraphNode(Ljava/lang/Object;)Lcom/google/javascript/jscomp/graph/DiGraph$DiGraphNode;'
p99
I18
sS'com/google/common/collect/Sets.newHashSet()Ljava/util/HashSet;:com/google/common/collect/Sets.newHashSet()Ljava/util/HashSet;:com/google/common/collect/Sets.newHashSet()Ljava/util/HashSet;:com/google/common/collect/Sets.newHashSet()Ljava/util/HashSet;:com/google/common/collect/Sets.newHashSet()Ljava/util/HashSet;:com/google/common/collect/Sets.newHashSet()Ljava/util/HashSet;:com/google/javascript/jscomp/graph/LinkedDirectedGraph.createDirectedGraphNode(Ljava/lang/Object;)Lcom/google/javascript/jscomp/graph/LinkedDirectedGraph$LinkedDirectedGraphNode;:com/google/javascript/jscomp/graph/LinkedDirectedGraph$AnnotatedLinkedDirectedGraphNode.<init>(Ljava/lang/Object;)V:com/google/javascript/jscomp/graph/LinkedDirectedGraph$LinkedDirectedGraphNode.<init>(Ljava/lang/Object;)V:java/lang/Object.<init>()V'
p100
I5
sS'com/google/common/collect/Sets.newHashSet()Ljava/util/HashSet;:com/google/common/collect/Sets.newHashSet()Ljava/util/HashSet;:com/google/common/collect/Sets.newHashSet()Ljava/util/HashSet;:com/google/common/collect/Sets.newHashSet()Ljava/util/HashSet;:com/google/common/collect/Sets.newHashSet()Ljava/util/HashSet;:com/google/common/collect/Sets.newHashSet()Ljava/util/HashSet;:com/google/common/collect/Sets.newHashSet()Ljava/util/HashSet;:com/google/javascript/jscomp/graph/LinkedDirectedGraph$LinkedDirectedGraphNode.getOutEdges()Ljava/util/List;'
p101
I7
sS'com/google/common/collect/Sets.newHashSet()Ljava/util/HashSet;:com/google/common/collect/Sets.newHashSet()Ljava/util/HashSet;:com/google/common/collect/Sets.newHashSet()Ljava/util/HashSet;:com/google/common/collect/Sets.newHashSet()Ljava/util/HashSet;:com/google/javascript/jscomp/graph/LinkedDirectedGraph$AnnotatedLinkedDirectedGraphEdge.<init>(Lcom/google/javascript/jscomp/graph/DiGraph$DiGraphNode;Ljava/lang/Object;Lcom/google/javascript/jscomp/graph/DiGraph$DiGraphNode;)V'
p102
I7
sS'com/google/common/collect/Sets.newHashSet()Ljava/util/HashSet;:com/google/javascript/jscomp/graph/LinkedDirectedGraph.<init>(ZZ)V:java/util/HashMap.<init>()V'
p103
I1
sS'com/google/common/collect/Sets.newHashSet()Ljava/util/HashSet;:com/google/common/collect/Sets.newHashSet()Ljava/util/HashSet;:com/google/common/collect/Sets.newHashSet()Ljava/util/HashSet;:com/google/common/collect/Sets.newHashSet()Ljava/util/HashSet;:com/google/common/collect/Sets.newHashSet()Ljava/util/HashSet;:com/google/common/collect/Sets.newHashSet()Ljava/util/HashSet;:com/google/common/collect/Sets.newHashSet()Ljava/util/HashSet;:com/google/common/collect/Sets.newHashSet()Ljava/util/HashSet;:com/google/javascript/jscomp/graph/LinkedDirectedGraph.createDirectedGraphNode(Ljava/lang/Object;)Lcom/google/javascript/jscomp/graph/LinkedDirectedGraph$LinkedDirectedGraphNode;:com/google/javascript/jscomp/graph/LinkedDirectedGraph$AnnotatedLinkedDirectedGraphNode.<init>(Ljava/lang/Object;)V:com/google/javascript/jscomp/graph/LinkedDirectedGraph$LinkedDirectedGraphNode.<init>(Ljava/lang/Object;)V:java/lang/Object.<init>()V'
p104
I7
sS'com/google/common/collect/Sets.newHashSet()Ljava/util/HashSet;:com/google/common/collect/Sets.newHashSet()Ljava/util/HashSet;:com/google/common/collect/Sets.newHashSet()Ljava/util/HashSet;:com/google/common/collect/Sets.newHashSet()Ljava/util/HashSet;:com/google/common/collect/Sets.newHashSet()Ljava/util/HashSet;:com/google/common/collect/Sets.newHashSet()Ljava/util/HashSet;:com/google/javascript/jscomp/graph/LinkedDirectedGraph.<init>(ZZ)V:com/google/javascript/jscomp/graph/DiGraph.<init>()V:com/google/javascript/jscomp/graph/Graph.<init>()V:java/lang/Object.<init>()V'
p105
I1
sS'com/google/common/collect/Sets.newHashSet()Ljava/util/HashSet;:com/google/common/collect/Sets.newHashSet()Ljava/util/HashSet;:com/google/common/collect/Sets.newHashSet()Ljava/util/HashSet;:com/google/common/collect/Sets.newHashSet()Ljava/util/HashSet;:com/google/common/collect/Sets.newHashSet()Ljava/util/HashSet;:com/google/common/collect/Sets.newHashSet()Ljava/util/HashSet;:com/google/javascript/jscomp/graph/LinkedDirectedGraph.<init>(ZZ)V:java/util/HashMap.<init>()V'
p106
I1
sS'com/google/common/collect/Sets.newHashSet()Ljava/util/HashSet;:com/google/common/collect/Sets.newHashSet()Ljava/util/HashSet;:com/google/common/collect/Sets.newHashSet()Ljava/util/HashSet;:com/google/common/collect/Sets.newHashSet()Ljava/util/HashSet;:com/google/javascript/jscomp/graph/LinkedDirectedGraph.getNodeOrFail(Ljava/lang/Object;)Lcom/google/javascript/jscomp/graph/GraphNode;:com/google/javascript/jscomp/graph/Graph.getNode(Ljava/lang/Object;)Lcom/google/javascript/jscomp/graph/GraphNode;:com/google/javascript/jscomp/graph/LinkedDirectedGraph.getDirectedGraphNode(Ljava/lang/Object;)Lcom/google/javascript/jscomp/graph/DiGraph$DiGraphNode;'
p107
I14
sS'com/google/common/collect/Sets.newHashSet()Ljava/util/HashSet;:com/google/common/collect/Sets.newHashSet()Ljava/util/HashSet;:com/google/common/collect/Sets.newHashSet()Ljava/util/HashSet;:com/google/common/collect/Sets.newHashSet()Ljava/util/HashSet;:com/google/common/collect/Sets.newHashSet()Ljava/util/HashSet;:com/google/common/collect/Sets.newHashSet()Ljava/util/HashSet;:com/google/common/collect/Sets.newHashSet()Ljava/util/HashSet;:com/google/common/collect/Sets.newHashSet()Ljava/util/HashSet;:com/google/javascript/jscomp/graph/LinkedDirectedGraph.createDirectedGraphNode(Ljava/lang/Object;)Lcom/google/javascript/jscomp/graph/LinkedDirectedGraph$LinkedDirectedGraphNode;:java/util/Map.put(Ljava/lang/Object;Ljava/lang/Object;)Ljava/lang/Object;'
p108
I7
sS'com/google/common/collect/Sets.newHashSet()Ljava/util/HashSet;:com/google/common/collect/Sets.newHashSet()Ljava/util/HashSet;:com/google/javascript/jscomp/graph/LinkedDirectedGraph.createDirectedGraphNode(Ljava/lang/Object;)Lcom/google/javascript/jscomp/graph/LinkedDirectedGraph$LinkedDirectedGraphNode;'
p109
I5
sS'com/google/common/collect/Sets.newHashSet()Ljava/util/HashSet;:com/google/common/collect/Sets.newHashSet()Ljava/util/HashSet;:com/google/common/collect/Sets.newHashSet()Ljava/util/HashSet;:com/google/javascript/jscomp/graph/LinkedDirectedGraph.createDirectedGraphNode(Ljava/lang/Object;)Lcom/google/javascript/jscomp/graph/LinkedDirectedGraph$LinkedDirectedGraphNode;:com/google/javascript/jscomp/graph/LinkedDirectedGraph$AnnotatedLinkedDirectedGraphNode.<init>(Ljava/lang/Object;)V:com/google/javascript/jscomp/graph/LinkedDirectedGraph$LinkedDirectedGraphNode.<init>(Ljava/lang/Object;)V:java/util/ArrayList.<init>()V'
p110
I10
sS'com/google/common/collect/Sets.newHashSet()Ljava/util/HashSet;:com/google/common/collect/Sets.newHashSet()Ljava/util/HashSet;:com/google/common/collect/Sets.newHashSet()Ljava/util/HashSet;:com/google/common/collect/Sets.newHashSet()Ljava/util/HashSet;:com/google/common/collect/Sets.newHashSet()Ljava/util/HashSet;:com/google/common/collect/Sets.newHashSet()Ljava/util/HashSet;:com/google/common/collect/Sets.newHashSet()Ljava/util/HashSet;:com/google/javascript/jscomp/graph/LinkedDirectedGraph.createDirectedGraphNode(Ljava/lang/Object;)Lcom/google/javascript/jscomp/graph/LinkedDirectedGraph$LinkedDirectedGraphNode;:com/google/javascript/jscomp/graph/LinkedDirectedGraph$AnnotatedLinkedDirectedGraphNode.<init>(Ljava/lang/Object;)V:com/google/javascript/jscomp/graph/LinkedDirectedGraph$LinkedDirectedGraphNode.<init>(Ljava/lang/Object;)V:java/util/ArrayList.<init>()V'
p111
I10
sS'com/google/common/collect/Sets.newHashSet()Ljava/util/HashSet;:com/google/common/collect/Sets.newHashSet()Ljava/util/HashSet;:com/google/common/collect/Sets.newHashSet()Ljava/util/HashSet;:com/google/common/collect/Sets.newHashSet()Ljava/util/HashSet;:com/google/javascript/jscomp/graph/LinkedDirectedGraph$LinkedDirectedGraphNode.getOutEdges()Ljava/util/List;'
p112
I7
sS'com/google/common/collect/Sets.newHashSet()Ljava/util/HashSet;:com/google/common/collect/Sets.newHashSet()Ljava/util/HashSet;:com/google/common/collect/Sets.newHashSet()Ljava/util/HashSet;:com/google/common/collect/Sets.newHashSet()Ljava/util/HashSet;:com/google/common/collect/Sets.newHashSet()Ljava/util/HashSet;:com/google/common/collect/Sets.newHashSet()Ljava/util/HashSet;:com/google/common/collect/Sets.newHashSet()Ljava/util/HashSet;:com/google/javascript/jscomp/graph/LinkedDirectedGraph$AnnotatedLinkedDirectedGraphEdge.<init>(Lcom/google/javascript/jscomp/graph/DiGraph$DiGraphNode;Ljava/lang/Object;Lcom/google/javascript/jscomp/graph/DiGraph$DiGraphNode;)V'
p113
I7
sS'com/google/common/collect/Sets.newHashSet()Ljava/util/HashSet;:com/google/common/collect/Sets.newHashSet()Ljava/util/HashSet;:com/google/common/collect/Sets.newHashSet()Ljava/util/HashSet;:com/google/javascript/jscomp/graph/LinkedDirectedGraph.<init>(ZZ)V:com/google/javascript/jscomp/graph/DiGraph.<init>()V:com/google/javascript/jscomp/graph/Graph.<init>()V:java/lang/Object.<init>()V'
p114
I1
sS'com/google/javascript/jscomp/graph/LinkedDirectedGraph.<init>(ZZ)V:com/google/javascript/jscomp/graph/DiGraph.<init>()V'
p115
I1
sS'com/google/common/collect/Sets.newHashSet()Ljava/util/HashSet;:com/google/common/collect/Sets.newHashSet()Ljava/util/HashSet;:com/google/common/collect/Sets.newHashSet()Ljava/util/HashSet;:com/google/javascript/jscomp/graph/LinkedDirectedGraph.createDirectedGraphNode(Ljava/lang/Object;)Lcom/google/javascript/jscomp/graph/LinkedDirectedGraph$LinkedDirectedGraphNode;:com/google/javascript/jscomp/graph/LinkedDirectedGraph$AnnotatedLinkedDirectedGraphNode.<init>(Ljava/lang/Object;)V:com/google/javascript/jscomp/graph/LinkedDirectedGraph$LinkedDirectedGraphNode.<init>(Ljava/lang/Object;)V'
p116
I5
sS'com/google/common/collect/Sets.newHashSet()Ljava/util/HashSet;:com/google/common/collect/Sets.newHashSet()Ljava/util/HashSet;:com/google/common/collect/Sets.newHashSet()Ljava/util/HashSet;:com/google/common/collect/Sets.newHashSet()Ljava/util/HashSet;:com/google/common/collect/Sets.newHashSet()Ljava/util/HashSet;:com/google/common/collect/Sets.newHashSet()Ljava/util/HashSet;:com/google/javascript/jscomp/graph/LinkedDirectedGraph.createDirectedGraphNode(Ljava/lang/Object;)Lcom/google/javascript/jscomp/graph/LinkedDirectedGraph$LinkedDirectedGraphNode;:com/google/javascript/jscomp/graph/LinkedDirectedGraph$AnnotatedLinkedDirectedGraphNode.<init>(Ljava/lang/Object;)V:com/google/javascript/jscomp/graph/LinkedDirectedGraph$LinkedDirectedGraphNode.<init>(Ljava/lang/Object;)V'
p117
I5
sS'com/google/common/collect/Sets.newHashSet()Ljava/util/HashSet;:com/google/common/collect/Sets.newHashSet()Ljava/util/HashSet;:com/google/common/collect/Sets.newHashSet()Ljava/util/HashSet;:com/google/common/collect/Sets.newHashSet()Ljava/util/HashSet;:com/google/common/collect/Sets.newHashSet()Ljava/util/HashSet;:java/util/List.add(Ljava/lang/Object;)Z'
p118
I14
sS'com/google/common/collect/Sets.newHashSet()Ljava/util/HashSet;:com/google/common/collect/Sets.newHashSet()Ljava/util/HashSet;:com/google/common/collect/Sets.newHashSet()Ljava/util/HashSet;:com/google/javascript/jscomp/graph/LinkedDirectedGraph.getNodeOrFail(Ljava/lang/Object;)Lcom/google/javascript/jscomp/graph/GraphNode;'
p119
I14
sS'com/google/common/collect/Sets.newHashSet()Ljava/util/HashSet;:com/google/common/collect/Sets.newHashSet()Ljava/util/HashSet;:com/google/common/collect/Sets.newHashSet()Ljava/util/HashSet;:com/google/common/collect/Sets.newHashSet()Ljava/util/HashSet;:com/google/common/collect/Sets.newHashSet()Ljava/util/HashSet;:com/google/common/collect/Sets.newHashSet()Ljava/util/HashSet;:com/google/javascript/jscomp/graph/LinkedDirectedGraph.getNodeOrFail(Ljava/lang/Object;)Lcom/google/javascript/jscomp/graph/GraphNode;:com/google/javascript/jscomp/graph/Graph.getNode(Ljava/lang/Object;)Lcom/google/javascript/jscomp/graph/GraphNode;:com/google/javascript/jscomp/graph/LinkedDirectedGraph.getDirectedGraphNode(Ljava/lang/Object;)Lcom/google/javascript/jscomp/graph/DiGraph$DiGraphNode;:java/util/Map.get(Ljava/lang/Object;)Ljava/lang/Object;'
p120
I14
sS'com/google/common/collect/Sets.newHashSet()Ljava/util/HashSet;:com/google/common/collect/Sets.newHashSet()Ljava/util/HashSet;:com/google/common/collect/Sets.newHashSet()Ljava/util/HashSet;:com/google/common/collect/Sets.newHashSet()Ljava/util/HashSet;:com/google/common/collect/Sets.newHashSet()Ljava/util/HashSet;:com/google/common/collect/Sets.newHashSet()Ljava/util/HashSet;:com/google/javascript/jscomp/graph/LinkedDirectedGraph.<init>(ZZ)V:com/google/javascript/jscomp/graph/DiGraph.<init>()V:com/google/javascript/jscomp/graph/Graph.<init>()V'
p121
I1
sS'com/google/common/collect/Sets.newHashSet()Ljava/util/HashSet;:com/google/common/collect/Sets.newHashSet()Ljava/util/HashSet;:com/google/common/collect/Sets.newHashSet()Ljava/util/HashSet;:com/google/common/collect/Sets.newHashSet()Ljava/util/HashSet;:com/google/common/collect/Sets.newHashSet()Ljava/util/HashSet;:com/google/javascript/jscomp/graph/LinkedDirectedGraph.<init>(ZZ)V:com/google/javascript/jscomp/graph/DiGraph.<init>()V:com/google/javascript/jscomp/graph/Graph.<init>()V'
p122
I1
sS'com/google/javascript/jscomp/graph/LinkedDirectedGraph.<init>(ZZ)V:java/util/HashMap.<init>()V'
p123
I1
sS'com/google/common/collect/Sets.newHashSet()Ljava/util/HashSet;:com/google/common/collect/Sets.newHashSet()Ljava/util/HashSet;:com/google/javascript/jscomp/graph/LinkedDirectedGraph.createDirectedGraphNode(Ljava/lang/Object;)Lcom/google/javascript/jscomp/graph/LinkedDirectedGraph$LinkedDirectedGraphNode;:java/util/Map.get(Ljava/lang/Object;)Ljava/lang/Object;'
p124
I5
sS'com/google/common/collect/Sets.newHashSet()Ljava/util/HashSet;:com/google/common/collect/Sets.newHashSet()Ljava/util/HashSet;:com/google/common/collect/Sets.newHashSet()Ljava/util/HashSet;:com/google/common/collect/Sets.newHashSet()Ljava/util/HashSet;:com/google/common/collect/Sets.newHashSet()Ljava/util/HashSet;:com/google/javascript/jscomp/graph/LinkedDirectedGraph.getNodeOrFail(Ljava/lang/Object;)Lcom/google/javascript/jscomp/graph/GraphNode;:com/google/javascript/jscomp/graph/Graph.getNode(Ljava/lang/Object;)Lcom/google/javascript/jscomp/graph/GraphNode;'
p125
I14
sS'com/google/common/collect/Sets.newHashSet()Ljava/util/HashSet;:com/google/common/collect/Sets.newHashSet()Ljava/util/HashSet;:com/google/common/collect/Sets.newHashSet()Ljava/util/HashSet;:com/google/common/collect/Sets.newHashSet()Ljava/util/HashSet;:com/google/common/collect/Sets.newHashSet()Ljava/util/HashSet;:com/google/javascript/jscomp/graph/LinkedDirectedGraph.createDirectedGraphNode(Ljava/lang/Object;)Lcom/google/javascript/jscomp/graph/LinkedDirectedGraph$LinkedDirectedGraphNode;'
p126
I5
sS'com/google/common/collect/Sets.newHashSet()Ljava/util/HashSet;:com/google/common/collect/Sets.newHashSet()Ljava/util/HashSet;:com/google/common/collect/Sets.newHashSet()Ljava/util/HashSet;:com/google/common/collect/Sets.newHashSet()Ljava/util/HashSet;:com/google/common/collect/Sets.newHashSet()Ljava/util/HashSet;:com/google/javascript/jscomp/graph/LinkedDirectedGraph.createDirectedGraphNode(Ljava/lang/Object;)Lcom/google/javascript/jscomp/graph/LinkedDirectedGraph$LinkedDirectedGraphNode;:java/util/Map.get(Ljava/lang/Object;)Ljava/lang/Object;'
p127
I5
sS'com/google/common/collect/Sets.newHashSet()Ljava/util/HashSet;:com/google/common/collect/Sets.newHashSet()Ljava/util/HashSet;:com/google/javascript/jscomp/graph/LinkedDirectedGraph.getNodeOrFail(Ljava/lang/Object;)Lcom/google/javascript/jscomp/graph/GraphNode;:com/google/javascript/jscomp/graph/Graph.getNode(Ljava/lang/Object;)Lcom/google/javascript/jscomp/graph/GraphNode;:com/google/javascript/jscomp/graph/LinkedDirectedGraph.getDirectedGraphNode(Ljava/lang/Object;)Lcom/google/javascript/jscomp/graph/DiGraph$DiGraphNode;:java/util/Map.get(Ljava/lang/Object;)Ljava/lang/Object;'
p128
I14
sS'com/google/common/collect/Sets.newHashSet()Ljava/util/HashSet;:com/google/common/collect/Sets.newHashSet()Ljava/util/HashSet;:com/google/common/collect/Sets.newHashSet()Ljava/util/HashSet;:com/google/common/collect/Sets.newHashSet()Ljava/util/HashSet;:com/google/common/collect/Sets.newHashSet()Ljava/util/HashSet;:com/google/common/collect/Sets.newHashSet()Ljava/util/HashSet;:com/google/common/collect/Sets.newHashSet()Ljava/util/HashSet;:com/google/common/collect/Sets.newHashSet()Ljava/util/HashSet;:java/util/List.add(Ljava/lang/Object;)Z'
p129
I18
sS'com/google/common/collect/Sets.newHashSet()Ljava/util/HashSet;:com/google/common/collect/Sets.newHashSet()Ljava/util/HashSet;:com/google/common/collect/Sets.newHashSet()Ljava/util/HashSet;:com/google/javascript/jscomp/graph/LinkedDirectedGraph.createDirectedGraphNode(Ljava/lang/Object;)Lcom/google/javascript/jscomp/graph/LinkedDirectedGraph$LinkedDirectedGraphNode;:java/util/Map.put(Ljava/lang/Object;Ljava/lang/Object;)Ljava/lang/Object;'
p130
I5
sS'com/google/common/collect/Sets.newHashSet()Ljava/util/HashSet;:com/google/common/collect/Sets.newHashSet()Ljava/util/HashSet;:com/google/common/collect/Sets.newHashSet()Ljava/util/HashSet;:com/google/common/collect/Sets.newHashSet()Ljava/util/HashSet;:com/google/common/collect/Sets.newHashSet()Ljava/util/HashSet;:com/google/javascript/jscomp/graph/LinkedDirectedGraph.createDirectedGraphNode(Ljava/lang/Object;)Lcom/google/javascript/jscomp/graph/LinkedDirectedGraph$LinkedDirectedGraphNode;:java/util/Map.put(Ljava/lang/Object;Ljava/lang/Object;)Ljava/lang/Object;'
p131
I5
sS'com/google/common/collect/Sets.newHashSet()Ljava/util/HashSet;:com/google/common/collect/Sets.newHashSet()Ljava/util/HashSet;:com/google/common/collect/Sets.newHashSet()Ljava/util/HashSet;:com/google/common/collect/Sets.newHashSet()Ljava/util/HashSet;:com/google/common/collect/Sets.newHashSet()Ljava/util/HashSet;:com/google/javascript/jscomp/graph/LinkedDirectedGraph.getNodeOrFail(Ljava/lang/Object;)Lcom/google/javascript/jscomp/graph/GraphNode;'
p132
I14
sS'com/google/common/collect/Sets.newHashSet()Ljava/util/HashSet;:com/google/common/collect/Sets.newHashSet()Ljava/util/HashSet;:com/google/common/collect/Sets.newHashSet()Ljava/util/HashSet;:com/google/common/collect/Sets.newHashSet()Ljava/util/HashSet;:com/google/common/collect/Sets.newHashSet()Ljava/util/HashSet;'
p133
I1
sS'com/google/common/collect/Sets.newHashSet()Ljava/util/HashSet;:com/google/common/collect/Sets.newHashSet()Ljava/util/HashSet;:com/google/common/collect/Sets.newHashSet()Ljava/util/HashSet;:com/google/common/collect/Sets.newHashSet()Ljava/util/HashSet;:com/google/common/collect/Sets.newHashSet()Ljava/util/HashSet;:com/google/common/collect/Sets.newHashSet()Ljava/util/HashSet;:com/google/common/collect/Sets.newHashSet()Ljava/util/HashSet;:com/google/common/collect/Sets.newHashSet()Ljava/util/HashSet;:com/google/javascript/jscomp/graph/LinkedDirectedGraph.createDirectedGraphNode(Ljava/lang/Object;)Lcom/google/javascript/jscomp/graph/LinkedDirectedGraph$LinkedDirectedGraphNode;:com/google/javascript/jscomp/graph/LinkedDirectedGraph$AnnotatedLinkedDirectedGraphNode.<init>(Ljava/lang/Object;)V:com/google/javascript/jscomp/graph/LinkedDirectedGraph$LinkedDirectedGraphNode.<init>(Ljava/lang/Object;)V'
p134
I7
sS'com/google/common/collect/Sets.newHashSet()Ljava/util/HashSet;:com/google/common/collect/Sets.newHashSet()Ljava/util/HashSet;:com/google/common/collect/Sets.newHashSet()Ljava/util/HashSet;:com/google/common/collect/Sets.newHashSet()Ljava/util/HashSet;:com/google/common/collect/Sets.newHashSet()Ljava/util/HashSet;:com/google/common/collect/Sets.newHashSet()Ljava/util/HashSet;:com/google/common/collect/Sets.newHashSet()Ljava/util/HashSet;:com/google/javascript/jscomp/graph/LinkedDirectedGraph.getNodeOrFail(Ljava/lang/Object;)Lcom/google/javascript/jscomp/graph/GraphNode;'
p135
I14
sS'com/google/common/collect/Sets.newHashSet()Ljava/util/HashSet;:com/google/common/collect/Sets.newHashSet()Ljava/util/HashSet;:com/google/common/collect/Sets.newHashSet()Ljava/util/HashSet;:com/google/common/collect/Sets.newHashSet()Ljava/util/HashSet;:com/google/common/collect/Sets.newHashSet()Ljava/util/HashSet;:com/google/common/collect/Sets.newHashSet()Ljava/util/HashSet;:com/google/common/collect/Sets.newHashSet()Ljava/util/HashSet;:com/google/common/collect/Sets.newHashSet()Ljava/util/HashSet;:com/google/javascript/jscomp/graph/LinkedDirectedGraph.createDirectedGraphNode(Ljava/lang/Object;)Lcom/google/javascript/jscomp/graph/LinkedDirectedGraph$LinkedDirectedGraphNode;:com/google/javascript/jscomp/graph/LinkedDirectedGraph$AnnotatedLinkedDirectedGraphNode.<init>(Ljava/lang/Object;)V'
p136
I7
sS'com/google/common/collect/Sets.newHashSet()Ljava/util/HashSet;:com/google/common/collect/Sets.newHashSet()Ljava/util/HashSet;:com/google/javascript/jscomp/graph/LinkedDirectedGraph.createDirectedGraphNode(Ljava/lang/Object;)Lcom/google/javascript/jscomp/graph/LinkedDirectedGraph$LinkedDirectedGraphNode;:java/util/Map.put(Ljava/lang/Object;Ljava/lang/Object;)Ljava/lang/Object;'
p137
I5
sS'com/google/common/collect/Sets.newHashSet()Ljava/util/HashSet;:com/google/common/collect/Sets.newHashSet()Ljava/util/HashSet;:com/google/javascript/jscomp/graph/LinkedDirectedGraph$AnnotatedLinkedDirectedGraphEdge.<init>(Lcom/google/javascript/jscomp/graph/DiGraph$DiGraphNode;Ljava/lang/Object;Lcom/google/javascript/jscomp/graph/DiGraph$DiGraphNode;)V:com/google/javascript/jscomp/graph/LinkedDirectedGraph$LinkedDirectedGraphEdge.<init>(Lcom/google/javascript/jscomp/graph/DiGraph$DiGraphNode;Ljava/lang/Object;Lcom/google/javascript/jscomp/graph/DiGraph$DiGraphNode;)V'
p138
I7
sS'com/google/common/collect/Sets.newHashSet()Ljava/util/HashSet;:com/google/common/collect/Sets.newHashSet()Ljava/util/HashSet;:com/google/common/collect/Sets.newHashSet()Ljava/util/HashSet;:com/google/common/collect/Sets.newHashSet()Ljava/util/HashSet;:com/google/common/collect/Sets.newHashSet()Ljava/util/HashSet;:com/google/common/collect/Sets.newHashSet()Ljava/util/HashSet;:com/google/javascript/jscomp/graph/LinkedDirectedGraph$LinkedDirectedGraphNode.getInEdges()Ljava/util/List;'
p139
I7
sS'com/google/common/collect/Sets.newHashSet()Ljava/util/HashSet;:com/google/common/collect/Sets.newHashSet()Ljava/util/HashSet;:com/google/common/collect/Sets.newHashSet()Ljava/util/HashSet;:com/google/common/collect/Sets.newHashSet()Ljava/util/HashSet;:com/google/common/collect/Sets.newHashSet()Ljava/util/HashSet;:com/google/common/collect/Sets.newHashSet()Ljava/util/HashSet;:com/google/javascript/jscomp/graph/LinkedDirectedGraph$AnnotatedLinkedDirectedGraphEdge.<init>(Lcom/google/javascript/jscomp/graph/DiGraph$DiGraphNode;Ljava/lang/Object;Lcom/google/javascript/jscomp/graph/DiGraph$DiGraphNode;)V'
p140
I7
sS'com/google/common/collect/Sets.newHashSet()Ljava/util/HashSet;:com/google/javascript/jscomp/graph/LinkedDirectedGraph.<init>(ZZ)V:com/google/javascript/jscomp/graph/DiGraph.<init>()V'
p141
I1
sS'com/google/common/collect/Sets.newHashSet()Ljava/util/HashSet;:com/google/common/collect/Sets.newHashSet()Ljava/util/HashSet;:com/google/common/collect/Sets.newHashSet()Ljava/util/HashSet;:com/google/common/collect/Sets.newHashSet()Ljava/util/HashSet;:com/google/javascript/jscomp/graph/LinkedDirectedGraph.createDirectedGraphNode(Ljava/lang/Object;)Lcom/google/javascript/jscomp/graph/LinkedDirectedGraph$LinkedDirectedGraphNode;:com/google/javascript/jscomp/graph/LinkedDirectedGraph$AnnotatedLinkedDirectedGraphNode.<init>(Ljava/lang/Object;)V'
p142
I5
sS'com/google/common/collect/Sets.newHashSet()Ljava/util/HashSet;:com/google/common/collect/Sets.newHashSet()Ljava/util/HashSet;:com/google/common/collect/Sets.newHashSet()Ljava/util/HashSet;:com/google/common/collect/Sets.newHashSet()Ljava/util/HashSet;:com/google/common/collect/Sets.newHashSet()Ljava/util/HashSet;:com/google/common/collect/Sets.newHashSet()Ljava/util/HashSet;:com/google/common/collect/Sets.newHashSet()Ljava/util/HashSet;:com/google/common/collect/Sets.newHashSet()Ljava/util/HashSet;:com/google/javascript/jscomp/graph/LinkedDirectedGraph.getNodeOrFail(Ljava/lang/Object;)Lcom/google/javascript/jscomp/graph/GraphNode;:com/google/javascript/jscomp/graph/Graph.getNode(Ljava/lang/Object;)Lcom/google/javascript/jscomp/graph/GraphNode;:com/google/javascript/jscomp/graph/LinkedDirectedGraph.getDirectedGraphNode(Ljava/lang/Object;)Lcom/google/javascript/jscomp/graph/DiGraph$DiGraphNode;:java/util/Map.get(Ljava/lang/Object;)Ljava/lang/Object;'
p143
I18
sS'com/google/common/collect/Sets.newHashSet()Ljava/util/HashSet;:com/google/common/collect/Sets.newHashSet()Ljava/util/HashSet;:com/google/common/collect/Sets.newHashSet()Ljava/util/HashSet;:com/google/common/collect/Sets.newHashSet()Ljava/util/HashSet;:com/google/javascript/jscomp/graph/LinkedDirectedGraph.createDirectedGraphNode(Ljava/lang/Object;)Lcom/google/javascript/jscomp/graph/LinkedDirectedGraph$LinkedDirectedGraphNode;:java/util/Map.get(Ljava/lang/Object;)Ljava/lang/Object;'
p144
I5
sS'com/google/common/collect/Sets.newHashSet()Ljava/util/HashSet;:com/google/common/collect/Sets.newHashSet()Ljava/util/HashSet;:com/google/common/collect/Sets.newHashSet()Ljava/util/HashSet;:com/google/javascript/jscomp/graph/LinkedDirectedGraph$LinkedDirectedGraphNode.getOutEdges()Ljava/util/List;'
p145
I7
sS'com/google/common/collect/Sets.newHashSet()Ljava/util/HashSet;:com/google/common/collect/Sets.newHashSet()Ljava/util/HashSet;:com/google/common/collect/Sets.newHashSet()Ljava/util/HashSet;:com/google/common/collect/Sets.newHashSet()Ljava/util/HashSet;:com/google/common/collect/Sets.newHashSet()Ljava/util/HashSet;:com/google/javascript/jscomp/graph/LinkedDirectedGraph.<init>(ZZ)V:com/google/javascript/jscomp/graph/DiGraph.<init>()V'
p146
I1
sS'com/google/common/collect/Sets.newHashSet()Ljava/util/HashSet;:com/google/common/collect/Sets.newHashSet()Ljava/util/HashSet;:com/google/common/collect/Sets.newHashSet()Ljava/util/HashSet;:com/google/common/collect/Sets.newHashSet()Ljava/util/HashSet;:com/google/common/collect/Sets.newHashSet()Ljava/util/HashSet;:com/google/common/collect/Sets.newHashSet()Ljava/util/HashSet;:com/google/common/collect/Sets.newHashSet()Ljava/util/HashSet;:com/google/javascript/jscomp/graph/LinkedDirectedGraph.createDirectedGraphNode(Ljava/lang/Object;)Lcom/google/javascript/jscomp/graph/LinkedDirectedGraph$LinkedDirectedGraphNode;:com/google/javascript/jscomp/graph/LinkedDirectedGraph$AnnotatedLinkedDirectedGraphNode.<init>(Ljava/lang/Object;)V'
p147
I5
sS'com/google/javascript/jscomp/graph/LinkedDirectedGraph.getNodeOrFail(Ljava/lang/Object;)Lcom/google/javascript/jscomp/graph/GraphNode;:com/google/javascript/jscomp/graph/Graph.getNode(Ljava/lang/Object;)Lcom/google/javascript/jscomp/graph/GraphNode;:com/google/javascript/jscomp/graph/LinkedDirectedGraph.getDirectedGraphNode(Ljava/lang/Object;)Lcom/google/javascript/jscomp/graph/DiGraph$DiGraphNode;'
p148
I14
sS'com/google/common/collect/Sets.newHashSet()Ljava/util/HashSet;:com/google/common/collect/Sets.newHashSet()Ljava/util/HashSet;:com/google/common/collect/Sets.newHashSet()Ljava/util/HashSet;:com/google/common/collect/Sets.newHashSet()Ljava/util/HashSet;:com/google/javascript/jscomp/graph/LinkedDirectedGraph.getNodeOrFail(Ljava/lang/Object;)Lcom/google/javascript/jscomp/graph/GraphNode;:com/google/javascript/jscomp/graph/Graph.getNode(Ljava/lang/Object;)Lcom/google/javascript/jscomp/graph/GraphNode;'
p149
I14
sS'com/google/common/collect/Sets.newHashSet()Ljava/util/HashSet;:com/google/common/collect/Sets.newHashSet()Ljava/util/HashSet;:com/google/common/collect/Sets.newHashSet()Ljava/util/HashSet;:com/google/javascript/jscomp/graph/LinkedDirectedGraph.createDirectedGraphNode(Ljava/lang/Object;)Lcom/google/javascript/jscomp/graph/LinkedDirectedGraph$LinkedDirectedGraphNode;:java/util/Map.get(Ljava/lang/Object;)Ljava/lang/Object;'
p150
I5
sS'com/google/common/collect/Sets.newHashSet()Ljava/util/HashSet;:com/google/common/collect/Sets.newHashSet()Ljava/util/HashSet;:com/google/javascript/jscomp/graph/LinkedDirectedGraph.<init>(ZZ)V:java/util/HashMap.<init>()V'
p151
I1
sS'com/google/common/collect/Sets.newHashSet()Ljava/util/HashSet;:com/google/common/collect/Sets.newHashSet()Ljava/util/HashSet;:com/google/common/collect/Sets.newHashSet()Ljava/util/HashSet;:com/google/common/collect/Sets.newHashSet()Ljava/util/HashSet;:com/google/common/collect/Sets.newHashSet()Ljava/util/HashSet;:com/google/common/collect/Sets.newHashSet()Ljava/util/HashSet;:com/google/javascript/jscomp/graph/LinkedDirectedGraph.getNodeOrFail(Ljava/lang/Object;)Lcom/google/javascript/jscomp/graph/GraphNode;'
p152
I14
sS'com/google/common/collect/Sets.newHashSet()Ljava/util/HashSet;:com/google/javascript/jscomp/graph/LinkedDirectedGraph$AnnotatedLinkedDirectedGraphEdge.<init>(Lcom/google/javascript/jscomp/graph/DiGraph$DiGraphNode;Ljava/lang/Object;Lcom/google/javascript/jscomp/graph/DiGraph$DiGraphNode;)V:com/google/javascript/jscomp/graph/LinkedDirectedGraph$LinkedDirectedGraphEdge.<init>(Lcom/google/javascript/jscomp/graph/DiGraph$DiGraphNode;Ljava/lang/Object;Lcom/google/javascript/jscomp/graph/DiGraph$DiGraphNode;)V:java/lang/Object.<init>()V'
p153
I7
sS'com/google/javascript/jscomp/graph/LinkedDirectedGraph$LinkedDirectedGraphNode.getInEdges()Ljava/util/List;'
p154
I7
sS'java/lang/Object.<init>()V'
p155
I9
sS'com/google/common/collect/Sets.newHashSet()Ljava/util/HashSet;:com/google/common/collect/Sets.newHashSet()Ljava/util/HashSet;:com/google/common/collect/Sets.newHashSet()Ljava/util/HashSet;:com/google/common/collect/Sets.newHashSet()Ljava/util/HashSet;:com/google/javascript/jscomp/graph/LinkedDirectedGraph$AnnotatedLinkedDirectedGraphEdge.<init>(Lcom/google/javascript/jscomp/graph/DiGraph$DiGraphNode;Ljava/lang/Object;Lcom/google/javascript/jscomp/graph/DiGraph$DiGraphNode;)V:com/google/javascript/jscomp/graph/LinkedDirectedGraph$LinkedDirectedGraphEdge.<init>(Lcom/google/javascript/jscomp/graph/DiGraph$DiGraphNode;Ljava/lang/Object;Lcom/google/javascript/jscomp/graph/DiGraph$DiGraphNode;)V:java/lang/Object.<init>()V'
p156
I7
sS'com/google/common/collect/Sets.newHashSet()Ljava/util/HashSet;:com/google/common/collect/Sets.newHashSet()Ljava/util/HashSet;:com/google/javascript/jscomp/graph/LinkedDirectedGraph$LinkedDirectedGraphNode.getInEdges()Ljava/util/List;'
p157
I7
sS'java/util/List.add(Ljava/lang/Object;)Z'
p158
I14
sS'com/google/common/collect/Sets.newHashSet()Ljava/util/HashSet;:com/google/common/collect/Sets.newHashSet()Ljava/util/HashSet;:com/google/javascript/jscomp/graph/LinkedDirectedGraph$LinkedDirectedGraphNode.getOutEdges()Ljava/util/List;'
p159
I7
sS'com/google/common/collect/Sets.newHashSet()Ljava/util/HashSet;:com/google/javascript/jscomp/graph/LinkedDirectedGraph.createDirectedGraphNode(Ljava/lang/Object;)Lcom/google/javascript/jscomp/graph/LinkedDirectedGraph$LinkedDirectedGraphNode;:com/google/javascript/jscomp/graph/LinkedDirectedGraph$AnnotatedLinkedDirectedGraphNode.<init>(Ljava/lang/Object;)V'
p160
I5
sS'com/google/javascript/jscomp/graph/LinkedDirectedGraph.<init>(ZZ)V:com/google/javascript/jscomp/graph/DiGraph.<init>()V:com/google/javascript/jscomp/graph/Graph.<init>()V'
p161
I1
sS'com/google/common/collect/Sets.newHashSet()Ljava/util/HashSet;:com/google/common/collect/Sets.newHashSet()Ljava/util/HashSet;:com/google/common/collect/Sets.newHashSet()Ljava/util/HashSet;:com/google/common/collect/Sets.newHashSet()Ljava/util/HashSet;:com/google/common/collect/Sets.newHashSet()Ljava/util/HashSet;:com/google/common/collect/Sets.newHashSet()Ljava/util/HashSet;:com/google/common/collect/Sets.newHashSet()Ljava/util/HashSet;:com/google/common/collect/Sets.newHashSet()Ljava/util/HashSet;:com/google/javascript/jscomp/graph/LinkedDirectedGraph.<init>(ZZ)V:com/google/javascript/jscomp/graph/DiGraph.<init>()V'
p162
I2
sS'com/google/common/collect/Sets.newHashSet()Ljava/util/HashSet;:com/google/common/collect/Sets.newHashSet()Ljava/util/HashSet;:com/google/common/collect/Sets.newHashSet()Ljava/util/HashSet;:com/google/common/collect/Sets.newHashSet()Ljava/util/HashSet;:com/google/common/collect/Sets.newHashSet()Ljava/util/HashSet;:com/google/common/collect/Sets.newHashSet()Ljava/util/HashSet;:com/google/common/collect/Sets.newHashSet()Ljava/util/HashSet;:com/google/javascript/jscomp/graph/LinkedDirectedGraph.createDirectedGraphNode(Ljava/lang/Object;)Lcom/google/javascript/jscomp/graph/LinkedDirectedGraph$LinkedDirectedGraphNode;:java/util/Map.get(Ljava/lang/Object;)Ljava/lang/Object;'
p163
I5
sS'com/google/common/collect/Sets.newHashSet()Ljava/util/HashSet;:com/google/common/collect/Sets.newHashSet()Ljava/util/HashSet;:com/google/common/collect/Sets.newHashSet()Ljava/util/HashSet;:com/google/common/collect/Sets.newHashSet()Ljava/util/HashSet;:com/google/common/collect/Sets.newHashSet()Ljava/util/HashSet;:com/google/javascript/jscomp/graph/LinkedDirectedGraph.getNodeOrFail(Ljava/lang/Object;)Lcom/google/javascript/jscomp/graph/GraphNode;:com/google/javascript/jscomp/graph/Graph.getNode(Ljava/lang/Object;)Lcom/google/javascript/jscomp/graph/GraphNode;:com/google/javascript/jscomp/graph/LinkedDirectedGraph.getDirectedGraphNode(Ljava/lang/Object;)Lcom/google/javascript/jscomp/graph/DiGraph$DiGraphNode;:java/util/Map.get(Ljava/lang/Object;)Ljava/lang/Object;'
p164
I14
sS'com/google/common/collect/Sets.newHashSet()Ljava/util/HashSet;:com/google/common/collect/Sets.newHashSet()Ljava/util/HashSet;:com/google/common/collect/Sets.newHashSet()Ljava/util/HashSet;:com/google/common/collect/Sets.newHashSet()Ljava/util/HashSet;:com/google/common/collect/Sets.newHashSet()Ljava/util/HashSet;:com/google/common/collect/Sets.newHashSet()Ljava/util/HashSet;:com/google/common/collect/Sets.newHashSet()Ljava/util/HashSet;:com/google/common/collect/Sets.newHashSet()Ljava/util/HashSet;:com/google/javascript/jscomp/graph/LinkedDirectedGraph.<init>(ZZ)V'
p165
I2
sS'com/google/common/collect/Sets.newHashSet()Ljava/util/HashSet;:com/google/javascript/jscomp/graph/LinkedDirectedGraph$AnnotatedLinkedDirectedGraphEdge.<init>(Lcom/google/javascript/jscomp/graph/DiGraph$DiGraphNode;Ljava/lang/Object;Lcom/google/javascript/jscomp/graph/DiGraph$DiGraphNode;)V:com/google/javascript/jscomp/graph/LinkedDirectedGraph$LinkedDirectedGraphEdge.<init>(Lcom/google/javascript/jscomp/graph/DiGraph$DiGraphNode;Ljava/lang/Object;Lcom/google/javascript/jscomp/graph/DiGraph$DiGraphNode;)V'
p166
I7
sS'com/google/javascript/jscomp/graph/LinkedDirectedGraph.<init>(ZZ)V'
p167
I1
sS'com/google/common/collect/Sets.newHashSet()Ljava/util/HashSet;:com/google/common/collect/Sets.newHashSet()Ljava/util/HashSet;:com/google/common/collect/Sets.newHashSet()Ljava/util/HashSet;:com/google/common/collect/Sets.newHashSet()Ljava/util/HashSet;:com/google/common/collect/Sets.newHashSet()Ljava/util/HashSet;:com/google/common/collect/Sets.newHashSet()Ljava/util/HashSet;'
p168
I1
sS'com/google/common/collect/Sets.newHashSet()Ljava/util/HashSet;:com/google/common/collect/Sets.newHashSet()Ljava/util/HashSet;:com/google/common/collect/Sets.newHashSet()Ljava/util/HashSet;:com/google/common/collect/Sets.newHashSet()Ljava/util/HashSet;:com/google/common/collect/Sets.newHashSet()Ljava/util/HashSet;:com/google/javascript/jscomp/graph/LinkedDirectedGraph.<init>(ZZ)V:java/util/HashMap.<init>()V'
p169
I1
sS'com/google/common/collect/Sets.newHashSet()Ljava/util/HashSet;:com/google/common/collect/Sets.newHashSet()Ljava/util/HashSet;:com/google/common/collect/Sets.newHashSet()Ljava/util/HashSet;:com/google/common/collect/Sets.newHashSet()Ljava/util/HashSet;:com/google/common/collect/Sets.newHashSet()Ljava/util/HashSet;:com/google/javascript/jscomp/graph/LinkedDirectedGraph$AnnotatedLinkedDirectedGraphEdge.<init>(Lcom/google/javascript/jscomp/graph/DiGraph$DiGraphNode;Ljava/lang/Object;Lcom/google/javascript/jscomp/graph/DiGraph$DiGraphNode;)V:com/google/javascript/jscomp/graph/LinkedDirectedGraph$LinkedDirectedGraphEdge.<init>(Lcom/google/javascript/jscomp/graph/DiGraph$DiGraphNode;Ljava/lang/Object;Lcom/google/javascript/jscomp/graph/DiGraph$DiGraphNode;)V:java/lang/Object.<init>()V'
p170
I7
sS'com/google/common/collect/Sets.newHashSet()Ljava/util/HashSet;:com/google/common/collect/Sets.newHashSet()Ljava/util/HashSet;:com/google/common/collect/Sets.newHashSet()Ljava/util/HashSet;:com/google/common/collect/Sets.newHashSet()Ljava/util/HashSet;:com/google/javascript/jscomp/graph/LinkedDirectedGraph.<init>(ZZ)V:com/google/javascript/jscomp/graph/DiGraph.<init>()V:com/google/javascript/jscomp/graph/Graph.<init>()V'
p171
I1
sS'com/google/common/collect/Sets.newHashSet()Ljava/util/HashSet;:com/google/common/collect/Sets.newHashSet()Ljava/util/HashSet;:com/google/common/collect/Sets.newHashSet()Ljava/util/HashSet;:com/google/common/collect/Sets.newHashSet()Ljava/util/HashSet;:com/google/common/collect/Sets.newHashSet()Ljava/util/HashSet;:com/google/common/collect/Sets.newHashSet()Ljava/util/HashSet;:com/google/common/collect/Sets.newHashSet()Ljava/util/HashSet;:com/google/common/collect/Sets.newHashSet()Ljava/util/HashSet;:com/google/common/collect/Sets.newHashSet()Ljava/util/HashSet;'
p172
I1
sS'com/google/common/collect/Sets.newHashSet()Ljava/util/HashSet;:com/google/common/collect/Sets.newHashSet()Ljava/util/HashSet;:com/google/common/collect/Sets.newHashSet()Ljava/util/HashSet;:com/google/javascript/jscomp/graph/LinkedDirectedGraph.<init>(ZZ)V:com/google/javascript/jscomp/graph/DiGraph.<init>()V:com/google/javascript/jscomp/graph/Graph.<init>()V'
p173
I1
sS'com/google/common/collect/Sets.newHashSet()Ljava/util/HashSet;:com/google/common/collect/Sets.newHashSet()Ljava/util/HashSet;:com/google/common/collect/Sets.newHashSet()Ljava/util/HashSet;:com/google/common/collect/Sets.newHashSet()Ljava/util/HashSet;:com/google/javascript/jscomp/graph/LinkedDirectedGraph.getNodeOrFail(Ljava/lang/Object;)Lcom/google/javascript/jscomp/graph/GraphNode;:com/google/javascript/jscomp/graph/Graph.getNode(Ljava/lang/Object;)Lcom/google/javascript/jscomp/graph/GraphNode;:com/google/javascript/jscomp/graph/LinkedDirectedGraph.getDirectedGraphNode(Ljava/lang/Object;)Lcom/google/javascript/jscomp/graph/DiGraph$DiGraphNode;:java/util/Map.get(Ljava/lang/Object;)Ljava/lang/Object;'
p174
I14
sS'com/google/common/collect/Sets.newHashSet()Ljava/util/HashSet;:com/google/common/collect/Sets.newHashSet()Ljava/util/HashSet;:com/google/common/collect/Sets.newHashSet()Ljava/util/HashSet;:com/google/common/collect/Sets.newHashSet()Ljava/util/HashSet;:com/google/common/collect/Sets.newHashSet()Ljava/util/HashSet;:com/google/common/collect/Sets.newHashSet()Ljava/util/HashSet;:com/google/common/collect/Sets.newHashSet()Ljava/util/HashSet;:com/google/javascript/jscomp/graph/LinkedDirectedGraph.createDirectedGraphNode(Ljava/lang/Object;)Lcom/google/javascript/jscomp/graph/LinkedDirectedGraph$LinkedDirectedGraphNode;:java/util/Map.put(Ljava/lang/Object;Ljava/lang/Object;)Ljava/lang/Object;'
p175
I5
sS'com/google/common/collect/Sets.newHashSet()Ljava/util/HashSet;:com/google/common/collect/Sets.newHashSet()Ljava/util/HashSet;:com/google/common/collect/Sets.newHashSet()Ljava/util/HashSet;:com/google/common/collect/Sets.newHashSet()Ljava/util/HashSet;:com/google/common/collect/Sets.newHashSet()Ljava/util/HashSet;:com/google/javascript/jscomp/graph/LinkedDirectedGraph$LinkedDirectedGraphNode.getInEdges()Ljava/util/List;'
p176
I7
sS'com/google/common/collect/Sets.newHashSet()Ljava/util/HashSet;:com/google/common/collect/Sets.newHashSet()Ljava/util/HashSet;:com/google/common/collect/Sets.newHashSet()Ljava/util/HashSet;:com/google/common/collect/Sets.newHashSet()Ljava/util/HashSet;:com/google/common/collect/Sets.newHashSet()Ljava/util/HashSet;:com/google/javascript/jscomp/graph/LinkedDirectedGraph$LinkedDirectedGraphNode.getOutEdges()Ljava/util/List;'
p177
I7
sS'com/google/common/collect/Sets.newHashSet()Ljava/util/HashSet;:com/google/javascript/jscomp/graph/LinkedDirectedGraph.createDirectedGraphNode(Ljava/lang/Object;)Lcom/google/javascript/jscomp/graph/LinkedDirectedGraph$LinkedDirectedGraphNode;:java/util/Map.get(Ljava/lang/Object;)Ljava/lang/Object;'
p178
I5
sS'com/google/common/collect/Sets.newHashSet()Ljava/util/HashSet;:com/google/javascript/jscomp/graph/LinkedDirectedGraph.<init>(ZZ)V'
p179
I1
sS'com/google/common/collect/Sets.newHashSet()Ljava/util/HashSet;:com/google/javascript/jscomp/graph/LinkedDirectedGraph.getNodeOrFail(Ljava/lang/Object;)Lcom/google/javascript/jscomp/graph/GraphNode;:com/google/javascript/jscomp/graph/Graph.getNode(Ljava/lang/Object;)Lcom/google/javascript/jscomp/graph/GraphNode;'
p180
I14
sS'com/google/common/collect/Sets.newHashSet()Ljava/util/HashSet;:com/google/common/collect/Sets.newHashSet()Ljava/util/HashSet;:com/google/common/collect/Sets.newHashSet()Ljava/util/HashSet;:com/google/common/collect/Sets.newHashSet()Ljava/util/HashSet;:com/google/common/collect/Sets.newHashSet()Ljava/util/HashSet;:com/google/common/collect/Sets.newHashSet()Ljava/util/HashSet;:com/google/javascript/jscomp/graph/LinkedDirectedGraph.createDirectedGraphNode(Ljava/lang/Object;)Lcom/google/javascript/jscomp/graph/LinkedDirectedGraph$LinkedDirectedGraphNode;'
p181
I5
sS'com/google/common/collect/Sets.newHashSet()Ljava/util/HashSet;:com/google/common/collect/Sets.newHashSet()Ljava/util/HashSet;:com/google/common/collect/Sets.newHashSet()Ljava/util/HashSet;:com/google/javascript/jscomp/graph/LinkedDirectedGraph$AnnotatedLinkedDirectedGraphEdge.<init>(Lcom/google/javascript/jscomp/graph/DiGraph$DiGraphNode;Ljava/lang/Object;Lcom/google/javascript/jscomp/graph/DiGraph$DiGraphNode;)V:com/google/javascript/jscomp/graph/LinkedDirectedGraph$LinkedDirectedGraphEdge.<init>(Lcom/google/javascript/jscomp/graph/DiGraph$DiGraphNode;Ljava/lang/Object;Lcom/google/javascript/jscomp/graph/DiGraph$DiGraphNode;)V:java/lang/Object.<init>()V'
p182
I7
sS'com/google/common/collect/Sets.newHashSet()Ljava/util/HashSet;:com/google/common/collect/Sets.newHashSet()Ljava/util/HashSet;:com/google/common/collect/Sets.newHashSet()Ljava/util/HashSet;:com/google/common/collect/Sets.newHashSet()Ljava/util/HashSet;:com/google/common/collect/Sets.newHashSet()Ljava/util/HashSet;:com/google/common/collect/Sets.newHashSet()Ljava/util/HashSet;:com/google/common/collect/Sets.newHashSet()Ljava/util/HashSet;:com/google/common/collect/Sets.newHashSet()Ljava/util/HashSet;:com/google/javascript/jscomp/graph/LinkedDirectedGraph.<init>(ZZ)V:com/google/javascript/jscomp/graph/DiGraph.<init>()V:com/google/javascript/jscomp/graph/Graph.<init>()V'
p183
I2
sS'com/google/common/collect/Sets.newHashSet()Ljava/util/HashSet;:com/google/common/collect/Sets.newHashSet()Ljava/util/HashSet;:com/google/common/collect/Sets.newHashSet()Ljava/util/HashSet;:com/google/common/collect/Sets.newHashSet()Ljava/util/HashSet;:com/google/common/collect/Sets.newHashSet()Ljava/util/HashSet;:com/google/common/collect/Sets.newHashSet()Ljava/util/HashSet;:com/google/common/collect/Sets.newHashSet()Ljava/util/HashSet;:com/google/common/collect/Sets.newHashSet()Ljava/util/HashSet;:com/google/javascript/jscomp/graph/LinkedDirectedGraph$LinkedDirectedGraphNode.getInEdges()Ljava/util/List;'
p184
I9
sS'com/google/common/collect/Sets.newHashSet()Ljava/util/HashSet;:com/google/javascript/jscomp/graph/LinkedDirectedGraph.getNodeOrFail(Ljava/lang/Object;)Lcom/google/javascript/jscomp/graph/GraphNode;'
p185
I14
sS'com/google/common/collect/Sets.newHashSet()Ljava/util/HashSet;:com/google/common/collect/Sets.newHashSet()Ljava/util/HashSet;:com/google/common/collect/Sets.newHashSet()Ljava/util/HashSet;'
p186
I1
sS'com/google/common/collect/Sets.newHashSet()Ljava/util/HashSet;:com/google/common/collect/Sets.newHashSet()Ljava/util/HashSet;:com/google/common/collect/Sets.newHashSet()Ljava/util/HashSet;:com/google/common/collect/Sets.newHashSet()Ljava/util/HashSet;:com/google/common/collect/Sets.newHashSet()Ljava/util/HashSet;:com/google/common/collect/Sets.newHashSet()Ljava/util/HashSet;:com/google/javascript/jscomp/graph/LinkedDirectedGraph$LinkedDirectedGraphNode.getOutEdges()Ljava/util/List;'
p187
I7
sS'com/google/javascript/jscomp/graph/LinkedDirectedGraph.createDirectedGraphNode(Ljava/lang/Object;)Lcom/google/javascript/jscomp/graph/LinkedDirectedGraph$LinkedDirectedGraphNode;'
p188
I5
sS'com/google/common/collect/Sets.newHashSet()Ljava/util/HashSet;:com/google/common/collect/Sets.newHashSet()Ljava/util/HashSet;:com/google/common/collect/Sets.newHashSet()Ljava/util/HashSet;:com/google/javascript/jscomp/graph/LinkedDirectedGraph.<init>(ZZ)V:java/util/HashMap.<init>()V'
p189
I1
sS'com/google/common/collect/Sets.newHashSet()Ljava/util/HashSet;:com/google/javascript/jscomp/graph/LinkedDirectedGraph.createDirectedGraphNode(Ljava/lang/Object;)Lcom/google/javascript/jscomp/graph/LinkedDirectedGraph$LinkedDirectedGraphNode;:com/google/javascript/jscomp/graph/LinkedDirectedGraph$AnnotatedLinkedDirectedGraphNode.<init>(Ljava/lang/Object;)V:com/google/javascript/jscomp/graph/LinkedDirectedGraph$LinkedDirectedGraphNode.<init>(Ljava/lang/Object;)V:java/util/ArrayList.<init>()V'
p190
I10
sS'com/google/common/collect/Sets.newHashSet()Ljava/util/HashSet;:com/google/common/collect/Sets.newHashSet()Ljava/util/HashSet;:com/google/common/collect/Sets.newHashSet()Ljava/util/HashSet;:com/google/common/collect/Sets.newHashSet()Ljava/util/HashSet;:com/google/javascript/jscomp/graph/LinkedDirectedGraph.createDirectedGraphNode(Ljava/lang/Object;)Lcom/google/javascript/jscomp/graph/LinkedDirectedGraph$LinkedDirectedGraphNode;:com/google/javascript/jscomp/graph/LinkedDirectedGraph$AnnotatedLinkedDirectedGraphNode.<init>(Ljava/lang/Object;)V:com/google/javascript/jscomp/graph/LinkedDirectedGraph$LinkedDirectedGraphNode.<init>(Ljava/lang/Object;)V'
p191
I5
sS'com/google/common/collect/Sets.newHashSet()Ljava/util/HashSet;:com/google/common/collect/Sets.newHashSet()Ljava/util/HashSet;:com/google/common/collect/Sets.newHashSet()Ljava/util/HashSet;:com/google/common/collect/Sets.newHashSet()Ljava/util/HashSet;:com/google/common/collect/Sets.newHashSet()Ljava/util/HashSet;:com/google/javascript/jscomp/graph/LinkedDirectedGraph$AnnotatedLinkedDirectedGraphEdge.<init>(Lcom/google/javascript/jscomp/graph/DiGraph$DiGraphNode;Ljava/lang/Object;Lcom/google/javascript/jscomp/graph/DiGraph$DiGraphNode;)V'
p192
I7
sS'com/google/common/collect/Sets.newHashSet()Ljava/util/HashSet;:com/google/common/collect/Sets.newHashSet()Ljava/util/HashSet;:com/google/javascript/jscomp/graph/LinkedDirectedGraph$AnnotatedLinkedDirectedGraphEdge.<init>(Lcom/google/javascript/jscomp/graph/DiGraph$DiGraphNode;Ljava/lang/Object;Lcom/google/javascript/jscomp/graph/DiGraph$DiGraphNode;)V'
p193
I7
sS'com/google/common/collect/Sets.newHashSet()Ljava/util/HashSet;:com/google/common/collect/Sets.newHashSet()Ljava/util/HashSet;:com/google/javascript/jscomp/graph/LinkedDirectedGraph.getNodeOrFail(Ljava/lang/Object;)Lcom/google/javascript/jscomp/graph/GraphNode;'
p194
I14
sS'com/google/common/collect/Sets.newHashSet()Ljava/util/HashSet;:com/google/common/collect/Sets.newHashSet()Ljava/util/HashSet;:com/google/common/collect/Sets.newHashSet()Ljava/util/HashSet;:com/google/common/collect/Sets.newHashSet()Ljava/util/HashSet;:com/google/common/collect/Sets.newHashSet()Ljava/util/HashSet;:com/google/common/collect/Sets.newHashSet()Ljava/util/HashSet;:com/google/common/collect/Sets.newHashSet()Ljava/util/HashSet;:com/google/javascript/jscomp/graph/LinkedDirectedGraph.createDirectedGraphNode(Ljava/lang/Object;)Lcom/google/javascript/jscomp/graph/LinkedDirectedGraph$LinkedDirectedGraphNode;:com/google/javascript/jscomp/graph/LinkedDirectedGraph$AnnotatedLinkedDirectedGraphNode.<init>(Ljava/lang/Object;)V:com/google/javascript/jscomp/graph/LinkedDirectedGraph$LinkedDirectedGraphNode.<init>(Ljava/lang/Object;)V'
p195
I5
sS'com/google/common/collect/Sets.newHashSet()Ljava/util/HashSet;:com/google/common/collect/Sets.newHashSet()Ljava/util/HashSet;:com/google/common/collect/Sets.newHashSet()Ljava/util/HashSet;:com/google/common/collect/Sets.newHashSet()Ljava/util/HashSet;:com/google/common/collect/Sets.newHashSet()Ljava/util/HashSet;:com/google/common/collect/Sets.newHashSet()Ljava/util/HashSet;:com/google/common/collect/Sets.newHashSet()Ljava/util/HashSet;:com/google/common/collect/Sets.newHashSet()Ljava/util/HashSet;:com/google/javascript/jscomp/graph/LinkedDirectedGraph.createDirectedGraphNode(Ljava/lang/Object;)Lcom/google/javascript/jscomp/graph/LinkedDirectedGraph$LinkedDirectedGraphNode;:java/util/Map.get(Ljava/lang/Object;)Ljava/lang/Object;'
p196
I7
sS'com/google/javascript/jscomp/graph/LinkedDirectedGraph$AnnotatedLinkedDirectedGraphEdge.<init>(Lcom/google/javascript/jscomp/graph/DiGraph$DiGraphNode;Ljava/lang/Object;Lcom/google/javascript/jscomp/graph/DiGraph$DiGraphNode;)V'
p197
I7
sS'com/google/common/collect/Sets.newHashSet()Ljava/util/HashSet;:com/google/common/collect/Sets.newHashSet()Ljava/util/HashSet;'
p198
I1
sS'com/google/common/collect/Sets.newHashSet()Ljava/util/HashSet;:com/google/common/collect/Sets.newHashSet()Ljava/util/HashSet;:com/google/common/collect/Sets.newHashSet()Ljava/util/HashSet;:com/google/common/collect/Sets.newHashSet()Ljava/util/HashSet;:com/google/common/collect/Sets.newHashSet()Ljava/util/HashSet;:com/google/common/collect/Sets.newHashSet()Ljava/util/HashSet;:com/google/javascript/jscomp/graph/LinkedDirectedGraph.createDirectedGraphNode(Ljava/lang/Object;)Lcom/google/javascript/jscomp/graph/LinkedDirectedGraph$LinkedDirectedGraphNode;:com/google/javascript/jscomp/graph/LinkedDirectedGraph$AnnotatedLinkedDirectedGraphNode.<init>(Ljava/lang/Object;)V'
p199
I5
sS'com/google/common/collect/Sets.newHashSet()Ljava/util/HashSet;:com/google/common/collect/Sets.newHashSet()Ljava/util/HashSet;:com/google/common/collect/Sets.newHashSet()Ljava/util/HashSet;:com/google/common/collect/Sets.newHashSet()Ljava/util/HashSet;:com/google/common/collect/Sets.newHashSet()Ljava/util/HashSet;:com/google/common/collect/Sets.newHashSet()Ljava/util/HashSet;:com/google/common/collect/Sets.newHashSet()Ljava/util/HashSet;:java/util/List.add(Ljava/lang/Object;)Z'
p200
I14
sS'com/google/common/collect/Sets.newHashSet()Ljava/util/HashSet;:com/google/javascript/jscomp/graph/LinkedDirectedGraph.getNodeOrFail(Ljava/lang/Object;)Lcom/google/javascript/jscomp/graph/GraphNode;:com/google/javascript/jscomp/graph/Graph.getNode(Ljava/lang/Object;)Lcom/google/javascript/jscomp/graph/GraphNode;:com/google/javascript/jscomp/graph/LinkedDirectedGraph.getDirectedGraphNode(Ljava/lang/Object;)Lcom/google/javascript/jscomp/graph/DiGraph$DiGraphNode;'
p201
I14
sS'com/google/common/collect/Sets.newHashSet()Ljava/util/HashSet;:com/google/javascript/jscomp/graph/LinkedDirectedGraph.createDirectedGraphNode(Ljava/lang/Object;)Lcom/google/javascript/jscomp/graph/LinkedDirectedGraph$LinkedDirectedGraphNode;:com/google/javascript/jscomp/graph/LinkedDirectedGraph$AnnotatedLinkedDirectedGraphNode.<init>(Ljava/lang/Object;)V:com/google/javascript/jscomp/graph/LinkedDirectedGraph$LinkedDirectedGraphNode.<init>(Ljava/lang/Object;)V'
p202
I5
sS'com/google/common/collect/Sets.newHashSet()Ljava/util/HashSet;:com/google/common/collect/Sets.newHashSet()Ljava/util/HashSet;:com/google/common/collect/Sets.newHashSet()Ljava/util/HashSet;:com/google/common/collect/Sets.newHashSet()Ljava/util/HashSet;:com/google/common/collect/Sets.newHashSet()Ljava/util/HashSet;:com/google/common/collect/Sets.newHashSet()Ljava/util/HashSet;:com/google/common/collect/Sets.newHashSet()Ljava/util/HashSet;:com/google/javascript/jscomp/graph/LinkedDirectedGraph.getNodeOrFail(Ljava/lang/Object;)Lcom/google/javascript/jscomp/graph/GraphNode;:com/google/javascript/jscomp/graph/Graph.getNode(Ljava/lang/Object;)Lcom/google/javascript/jscomp/graph/GraphNode;'
p203
I14
sS'com/google/javascript/jscomp/graph/LinkedDirectedGraph.<init>(ZZ)V:com/google/javascript/jscomp/graph/DiGraph.<init>()V:com/google/javascript/jscomp/graph/Graph.<init>()V:java/lang/Object.<init>()V'
p204
I1
sS'com/google/common/collect/Sets.newHashSet()Ljava/util/HashSet;:com/google/common/collect/Sets.newHashSet()Ljava/util/HashSet;:com/google/common/collect/Sets.newHashSet()Ljava/util/HashSet;:com/google/common/collect/Sets.newHashSet()Ljava/util/HashSet;:com/google/common/collect/Sets.newHashSet()Ljava/util/HashSet;:com/google/common/collect/Sets.newHashSet()Ljava/util/HashSet;:com/google/common/collect/Sets.newHashSet()Ljava/util/HashSet;:com/google/common/collect/Sets.newHashSet()Ljava/util/HashSet;:com/google/javascript/jscomp/graph/LinkedDirectedGraph.createDirectedGraphNode(Ljava/lang/Object;)Lcom/google/javascript/jscomp/graph/LinkedDirectedGraph$LinkedDirectedGraphNode;'
p205
I7
sS'com/google/common/collect/Sets.newHashSet()Ljava/util/HashSet;:com/google/common/collect/Sets.newHashSet()Ljava/util/HashSet;:com/google/javascript/jscomp/graph/LinkedDirectedGraph.createDirectedGraphNode(Ljava/lang/Object;)Lcom/google/javascript/jscomp/graph/LinkedDirectedGraph$LinkedDirectedGraphNode;:com/google/javascript/jscomp/graph/LinkedDirectedGraph$AnnotatedLinkedDirectedGraphNode.<init>(Ljava/lang/Object;)V:com/google/javascript/jscomp/graph/LinkedDirectedGraph$LinkedDirectedGraphNode.<init>(Ljava/lang/Object;)V:java/lang/Object.<init>()V'
p206
I5
sS'com/google/common/collect/Sets.newHashSet()Ljava/util/HashSet;:com/google/common/collect/Sets.newHashSet()Ljava/util/HashSet;:com/google/common/collect/Sets.newHashSet()Ljava/util/HashSet;:com/google/common/collect/Sets.newHashSet()Ljava/util/HashSet;:com/google/common/collect/Sets.newHashSet()Ljava/util/HashSet;:com/google/common/collect/Sets.newHashSet()Ljava/util/HashSet;:com/google/common/collect/Sets.newHashSet()Ljava/util/HashSet;:com/google/common/collect/Sets.newHashSet()Ljava/util/HashSet;'
p207
I1
sS'com/google/common/collect/Sets.newHashSet()Ljava/util/HashSet;:com/google/common/collect/Sets.newHashSet()Ljava/util/HashSet;:com/google/common/collect/Sets.newHashSet()Ljava/util/HashSet;:com/google/javascript/jscomp/graph/LinkedDirectedGraph.createDirectedGraphNode(Ljava/lang/Object;)Lcom/google/javascript/jscomp/graph/LinkedDirectedGraph$LinkedDirectedGraphNode;:com/google/javascript/jscomp/graph/LinkedDirectedGraph$AnnotatedLinkedDirectedGraphNode.<init>(Ljava/lang/Object;)V'
p208
I5
s.