(dp0
S'com/google/javascript/jscomp/FunctionInjector$CallSiteType$6.<init>(Ljava/lang/String;I)V:com/google/javascript/jscomp/FunctionInjector$CallSiteType.<init>(Ljava/lang/String;ILcom/google/javascript/jscomp/FunctionInjector$1;)V:com/google/javascript/jscomp/FunctionInjector$CallSiteType.<init>(Ljava/lang/String;I)V'
p1
I1
sS'com/google/javascript/jscomp/FunctionInjector$CallSiteType$3.<init>(Ljava/lang/String;I)V'
p2
I1
sS'com/google/javascript/jscomp/FunctionInjector$CallSiteType$4.<init>(Ljava/lang/String;I)V:com/google/javascript/jscomp/FunctionInjector$CallSiteType.<init>(Ljava/lang/String;ILcom/google/javascript/jscomp/FunctionInjector$1;)V:com/google/javascript/jscomp/FunctionInjector$CallSiteType.<init>(Ljava/lang/String;I)V'
p3
I1
sS'com/google/javascript/jscomp/FunctionInjector$CallSiteType$6.<init>(Ljava/lang/String;I)V'
p4
I1
sS'com/google/javascript/jscomp/FunctionInjector$CallSiteType$1.<init>(Ljava/lang/String;I)V'
p5
I1
sS'com/google/javascript/jscomp/FunctionInjector$CallSiteType$5.<init>(Ljava/lang/String;I)V:com/google/javascript/jscomp/FunctionInjector$CallSiteType.<init>(Ljava/lang/String;ILcom/google/javascript/jscomp/FunctionInjector$1;)V'
p6
I1
sS'com/google/javascript/jscomp/FunctionInjector$CallSiteType$6.<init>(Ljava/lang/String;I)V:com/google/javascript/jscomp/FunctionInjector$CallSiteType.<init>(Ljava/lang/String;ILcom/google/javascript/jscomp/FunctionInjector$1;)V:com/google/javascript/jscomp/FunctionInjector$CallSiteType.<init>(Ljava/lang/String;I)V:java/lang/Enum.<init>(Ljava/lang/String;I)V'
p7
I1
sS'com/google/javascript/jscomp/FunctionInjector$CallSiteType$1.<init>(Ljava/lang/String;I)V:com/google/javascript/jscomp/FunctionInjector$CallSiteType.<init>(Ljava/lang/String;ILcom/google/javascript/jscomp/FunctionInjector$1;)V:com/google/javascript/jscomp/FunctionInjector$CallSiteType.<init>(Ljava/lang/String;I)V:java/lang/Enum.<init>(Ljava/lang/String;I)V'
p8
I1
sS'com/google/javascript/jscomp/FunctionInjector$CallSiteType$5.<init>(Ljava/lang/String;I)V'
p9
I1
sS'com/google/javascript/jscomp/FunctionInjector$CallSiteType$2.<init>(Ljava/lang/String;I)V:com/google/javascript/jscomp/FunctionInjector$CallSiteType.<init>(Ljava/lang/String;ILcom/google/javascript/jscomp/FunctionInjector$1;)V:com/google/javascript/jscomp/FunctionInjector$CallSiteType.<init>(Ljava/lang/String;I)V:java/lang/Enum.<init>(Ljava/lang/String;I)V'
p10
I1
sS'com/google/javascript/jscomp/FunctionInjector$CallSiteType$4.<init>(Ljava/lang/String;I)V:com/google/javascript/jscomp/FunctionInjector$CallSiteType.<init>(Ljava/lang/String;ILcom/google/javascript/jscomp/FunctionInjector$1;)V:com/google/javascript/jscomp/FunctionInjector$CallSiteType.<init>(Ljava/lang/String;I)V:java/lang/Enum.<init>(Ljava/lang/String;I)V'
p11
I1
sS'com/google/javascript/jscomp/FunctionInjector$CallSiteType$2.<init>(Ljava/lang/String;I)V'
p12
I1
sS'com/google/javascript/jscomp/FunctionInjector$CallSiteType$4.<init>(Ljava/lang/String;I)V'
p13
I1
sS'com/google/javascript/jscomp/FunctionInjector$CallSiteType$5.<init>(Ljava/lang/String;I)V:com/google/javascript/jscomp/FunctionInjector$CallSiteType.<init>(Ljava/lang/String;ILcom/google/javascript/jscomp/FunctionInjector$1;)V:com/google/javascript/jscomp/FunctionInjector$CallSiteType.<init>(Ljava/lang/String;I)V'
p14
I1
sS'com/google/javascript/jscomp/FunctionInjector$CallSiteType$3.<init>(Ljava/lang/String;I)V:com/google/javascript/jscomp/FunctionInjector$CallSiteType.<init>(Ljava/lang/String;ILcom/google/javascript/jscomp/FunctionInjector$1;)V:com/google/javascript/jscomp/FunctionInjector$CallSiteType.<init>(Ljava/lang/String;I)V'
p15
I1
sS'com/google/javascript/jscomp/FunctionInjector$CallSiteType$6.<init>(Ljava/lang/String;I)V:com/google/javascript/jscomp/FunctionInjector$CallSiteType.<init>(Ljava/lang/String;ILcom/google/javascript/jscomp/FunctionInjector$1;)V'
p16
I1
sS'com/google/javascript/jscomp/FunctionInjector$CallSiteType$5.<init>(Ljava/lang/String;I)V:com/google/javascript/jscomp/FunctionInjector$CallSiteType.<init>(Ljava/lang/String;ILcom/google/javascript/jscomp/FunctionInjector$1;)V:com/google/javascript/jscomp/FunctionInjector$CallSiteType.<init>(Ljava/lang/String;I)V:java/lang/Enum.<init>(Ljava/lang/String;I)V'
p17
I1
sS'com/google/javascript/jscomp/FunctionInjector$CallSiteType$1.<init>(Ljava/lang/String;I)V:com/google/javascript/jscomp/FunctionInjector$CallSiteType.<init>(Ljava/lang/String;ILcom/google/javascript/jscomp/FunctionInjector$1;)V:com/google/javascript/jscomp/FunctionInjector$CallSiteType.<init>(Ljava/lang/String;I)V'
p18
I1
sS'com/google/javascript/jscomp/FunctionInjector$CallSiteType$2.<init>(Ljava/lang/String;I)V:com/google/javascript/jscomp/FunctionInjector$CallSiteType.<init>(Ljava/lang/String;ILcom/google/javascript/jscomp/FunctionInjector$1;)V'
p19
I1
sS'com/google/javascript/jscomp/FunctionInjector$CallSiteType$4.<init>(Ljava/lang/String;I)V:com/google/javascript/jscomp/FunctionInjector$CallSiteType.<init>(Ljava/lang/String;ILcom/google/javascript/jscomp/FunctionInjector$1;)V'
p20
I1
sS'com/google/javascript/jscomp/FunctionInjector$CallSiteType$3.<init>(Ljava/lang/String;I)V:com/google/javascript/jscomp/FunctionInjector$CallSiteType.<init>(Ljava/lang/String;ILcom/google/javascript/jscomp/FunctionInjector$1;)V'
p21
I1
sS'com/google/javascript/jscomp/FunctionInjector$CallSiteType$2.<init>(Ljava/lang/String;I)V:com/google/javascript/jscomp/FunctionInjector$CallSiteType.<init>(Ljava/lang/String;ILcom/google/javascript/jscomp/FunctionInjector$1;)V:com/google/javascript/jscomp/FunctionInjector$CallSiteType.<init>(Ljava/lang/String;I)V'
p22
I1
sS'com/google/javascript/jscomp/FunctionInjector$CallSiteType$1.<init>(Ljava/lang/String;I)V:com/google/javascript/jscomp/FunctionInjector$CallSiteType.<init>(Ljava/lang/String;ILcom/google/javascript/jscomp/FunctionInjector$1;)V'
p23
I1
sS'com/google/javascript/jscomp/FunctionInjector$CallSiteType$3.<init>(Ljava/lang/String;I)V:com/google/javascript/jscomp/FunctionInjector$CallSiteType.<init>(Ljava/lang/String;ILcom/google/javascript/jscomp/FunctionInjector$1;)V:com/google/javascript/jscomp/FunctionInjector$CallSiteType.<init>(Ljava/lang/String;I)V:java/lang/Enum.<init>(Ljava/lang/String;I)V'
p24
I1
s.