(dp0
S'java/lang/Class.desiredAssertionStatus()Z'
p1
I1
sS'com/google/javascript/jscomp/NodeNameExtractor.<init>(C)V'
p2
I1
sS'com/google/javascript/jscomp/NodeNameExtractor.<init>(C)V:java/lang/Object.<init>()V'
p3
I1
s.