(dp0
S'com/google/javascript/jscomp/GlobalNamespace$Ref$Type.<init>(Ljava/lang/String;I)V'
p1
I7
sS'com/google/javascript/jscomp/GlobalNamespace$Name$Type.<init>(Ljava/lang/String;I)V:java/lang/Enum.<init>(Ljava/lang/String;I)V'
p2
I5
sS'com/google/javascript/jscomp/GlobalNamespace$Ref.<init>(Lcom/google/javascript/jscomp/GlobalNamespace$Ref$Type;I)V:java/lang/Object.<init>()V'
p3
I4
sS'com/google/javascript/jscomp/GlobalNamespace$Ref.<init>(Lcom/google/javascript/jscomp/GlobalNamespace$Ref$Type;I)V'
p4
I4
sS'com/google/javascript/jscomp/GlobalNamespace$Ref$Type.<init>(Ljava/lang/String;I)V:java/lang/Enum.<init>(Ljava/lang/String;I)V'
p5
I7
sS'com/google/javascript/jscomp/GlobalNamespace$Name$Type.<init>(Ljava/lang/String;I)V'
p6
I5
s.