(dp0
S'org/joda/time/convert/ConverterSet.selectSlow(Lorg/joda/time/convert/ConverterSet;Ljava/lang/Class;)Lorg/joda/time/convert/Converter;:java/lang/Class.isAssignableFrom(Ljava/lang/Class;)Z'
p1
I54
sS'org/joda/time/convert/ConverterSet.remove(I[Lorg/joda/time/convert/Converter;)Lorg/joda/time/convert/ConverterSet;:org/joda/time/convert/ConverterSet.<init>([Lorg/joda/time/convert/Converter;)V'
p2
I1
sS'org/joda/time/convert/ConverterSet.remove(I[Lorg/joda/time/convert/Converter;)Lorg/joda/time/convert/ConverterSet;:org/joda/time/convert/ConverterSet.<init>([Lorg/joda/time/convert/Converter;)V:java/lang/Object.<init>()V'
p3
I1
sS'org/joda/time/convert/Converter.getSupportedType()Ljava/lang/Class;'
p4
I22
sS'org/joda/time/convert/ConverterSet$Entry.<init>(Ljava/lang/Class;Lorg/joda/time/convert/Converter;)V:java/lang/Object.<init>()V'
p5
I17
sS'org/joda/time/convert/ConverterSet.selectSlow(Lorg/joda/time/convert/ConverterSet;Ljava/lang/Class;)Lorg/joda/time/convert/Converter;:org/joda/time/convert/ConverterSet.remove(I[Lorg/joda/time/convert/Converter;)Lorg/joda/time/convert/ConverterSet;:org/joda/time/convert/ConverterSet.<init>([Lorg/joda/time/convert/Converter;)V'
p6
I54
sS'java/lang/Object.hashCode()I'
p7
I32
sS'org/joda/time/convert/ConverterSet$Entry.<init>(Ljava/lang/Class;Lorg/joda/time/convert/Converter;)V'
p8
I17
sS'java/lang/IndexOutOfBoundsException.<init>()V'
p9
I1
sS'java/lang/System.arraycopy(Ljava/lang/Object;ILjava/lang/Object;II)V'
p10
I1
sS'java/lang/Object.<init>()V'
p11
I8
sS'org/joda/time/convert/ConverterSet.selectSlow(Lorg/joda/time/convert/ConverterSet;Ljava/lang/Class;)Lorg/joda/time/convert/Converter;:org/joda/time/convert/ConverterSet.remove(I[Lorg/joda/time/convert/Converter;)Lorg/joda/time/convert/ConverterSet;'
p12
I54
sS'[Lorg/joda/time/convert/ConverterSet$Entry;.clone()Ljava/lang/Object;'
p13
I17
sS'org/joda/time/convert/ConverterSet.selectSlow(Lorg/joda/time/convert/ConverterSet;Ljava/lang/Class;)Lorg/joda/time/convert/Converter;'
p14
I17
sS'org/joda/time/convert/ConverterSet.<init>([Lorg/joda/time/convert/Converter;)V'
p15
I2
sS'org/joda/time/convert/ConverterSet.<init>([Lorg/joda/time/convert/Converter;)V:java/lang/Object.<init>()V'
p16
I2
sS'org/joda/time/convert/ConverterSet.selectSlow(Lorg/joda/time/convert/ConverterSet;Ljava/lang/Class;)Lorg/joda/time/convert/Converter;:org/joda/time/convert/ConverterSet.remove(I[Lorg/joda/time/convert/Converter;)Lorg/joda/time/convert/ConverterSet;:org/joda/time/convert/ConverterSet.<init>([Lorg/joda/time/convert/Converter;)V:java/lang/Object.<init>()V'
p17
I54
sS'org/joda/time/convert/ConverterSet.remove(I[Lorg/joda/time/convert/Converter;)Lorg/joda/time/convert/ConverterSet;'
p18
I1
sS'org/joda/time/convert/ConverterSet.selectSlow(Lorg/joda/time/convert/ConverterSet;Ljava/lang/Class;)Lorg/joda/time/convert/Converter;:org/joda/time/convert/Converter.getSupportedType()Ljava/lang/Class;'
p19
I62
sS'java/lang/Object.equals(Ljava/lang/Object;)Z'
p20
I19
s.