(dp0
S'org/joda/time/DateTimeUtils$SystemMillisProvider.<init>()V'
p1
I1
sS'org/joda/time/DateTimeUtils$SystemMillisProvider.<init>()V:java/lang/Object.<init>()V'
p2
I1
sS'java/util/concurrent/atomic/AtomicReference.<init>()V'
p3
I1
s.