(dp0
S'java/lang/StringBuilder.append(I)Ljava/lang/StringBuilder;'
p1
I16
sS'java/lang/ArithmeticException.<init>(Ljava/lang/String;)V'
p2
I28
sS'java/lang/StringBuilder.append(Ljava/lang/String;)Ljava/lang/StringBuilder;'
p3
I56
sS'java/lang/StringBuilder.toString()Ljava/lang/String;'
p4
I28
sS'java/lang/StringBuilder.<init>()V'
p5
I28
sS'java/lang/StringBuilder.append(J)Ljava/lang/StringBuilder;'
p6
I40
s.