(dp0
S'org/joda/time/UTCDateTimeZone.<init>()V'
p1
I1
sS'java/util/concurrent/atomic/AtomicReference.<init>()V'
p2
I3
sS'org/joda/time/UTCDateTimeZone.<init>()V:org/joda/time/DateTimeZone.<init>(Ljava/lang/String;)V'
p3
I1
sS'org/joda/time/UTCDateTimeZone.<init>()V:org/joda/time/DateTimeZone.<init>(Ljava/lang/String;)V:java/lang/Object.<init>()V'
p4
I1
s.