(dp0
S'org/joda/time/base/BasePeriod$1.<init>()V:org/joda/time/base/AbstractPeriod.<init>()V:java/lang/Object.<init>()V'
p1
I1
sS'org/joda/time/base/BasePeriod$1.<init>()V'
p2
I1
sS'org/joda/time/base/BasePeriod$1.<init>()V:org/joda/time/base/AbstractPeriod.<init>()V'
p3
I1
s.